---
triple:          'arm64-apple-darwin'
binary-path:     '/Users/kabirsmac/Library/CloudStorage/OneDrive-Personal/IITD/Classes/Sem 3/COL 106/Lab/Assignment 4/COL106 A4 StarterCode/drivercode'
relocations:
  - { offsetInCU: 0x38A1, offset: 0x38A1, size: 0x8, addend: 0x0, symName: __ZNSt3__115regex_constants13__get_grammarB8ue170006ENS0_18syntax_option_typeE, symObjAddr: 0x126C0, symBinAddr: 0x100015834, symSize: 0x18 }
  - { offsetInCU: 0x38CF, offset: 0x38CF, size: 0x8, addend: 0x0, symName: __ZNSt3__115regex_constantsoRB8ue170006ERNS0_18syntax_option_typeES1_, symObjAddr: 0x126D8, symBinAddr: 0x10001584C, symSize: 0x3C }
  - { offsetInCU: 0x390C, offset: 0x390C, size: 0x8, addend: 0x0, symName: __ZNSt3__115regex_constantsorB8ue170006ENS0_18syntax_option_typeES1_, symObjAddr: 0x12990, symBinAddr: 0x100015B04, symSize: 0x20 }
  - { offsetInCU: 0x3949, offset: 0x3949, size: 0x8, addend: 0x0, symName: __ZNSt3__115regex_constantsanB8ue170006ENS0_18syntax_option_typeES1_, symObjAddr: 0x15BD4, symBinAddr: 0x100018D48, symSize: 0x20 }
  - { offsetInCU: 0x3986, offset: 0x3986, size: 0x8, addend: 0x0, symName: __ZNSt3__115regex_constantsanB8ue170006ENS0_15match_flag_typeES1_, symObjAddr: 0x15DF4, symBinAddr: 0x100018F68, symSize: 0x20 }
  - { offsetInCU: 0x39C3, offset: 0x39C3, size: 0x8, addend: 0x0, symName: __ZNSt3__115regex_constantsorB8ue170006ENS0_15match_flag_typeES1_, symObjAddr: 0x173E4, symBinAddr: 0x10001A558, symSize: 0x20 }
  - { offsetInCU: 0x3A00, offset: 0x3A00, size: 0x8, addend: 0x0, symName: __ZNSt3__115regex_constantscoB8ue170006ENS0_15match_flag_typeE, symObjAddr: 0x17404, symBinAddr: 0x10001A578, symSize: 0x1C }
  - { offsetInCU: 0x3A2E, offset: 0x3A2E, size: 0x8, addend: 0x0, symName: __ZNSt3__115regex_constantsaNB8ue170006ERNS0_15match_flag_typeES1_, symObjAddr: 0x2F2F8, symBinAddr: 0x10003246C, symSize: 0x3C }
  - { offsetInCU: 0x3A6B, offset: 0x3A6B, size: 0x8, addend: 0x0, symName: __ZNSt3__115regex_constantsoRB8ue170006ERNS0_15match_flag_typeES1_, symObjAddr: 0x2F4AC, symBinAddr: 0x100032620, symSize: 0x3C }
  - { offsetInCU: 0xABA0, offset: 0xABA0, size: 0x8, addend: 0x0, symName: __ZNSt3__16copy_nB8ue170006IPKcmPcEENS_9enable_ifIXsr37__has_random_access_iterator_categoryIT_EE5valueET1_E4typeES5_T0_S6_, symObjAddr: 0xD4E0, symBinAddr: 0x100010654, symSize: 0x44 }
  - { offsetInCU: 0xDDF5, offset: 0xDDF5, size: 0x8, addend: 0x0, symName: __ZNSt3__124__put_character_sequenceB8ue170006IcNS_11char_traitsIcEEEERNS_13basic_ostreamIT_T0_EES7_PKS4_m, symObjAddr: 0xFA34, symBinAddr: 0x100012BA8, symSize: 0x1EC }
  - { offsetInCU: 0xF5DC, offset: 0xF5DC, size: 0x8, addend: 0x0, symName: __ZNSt3__17advanceB8ue170006IPKcllvEEvRT_T0_, symObjAddr: 0x15E98, symBinAddr: 0x10001900C, symSize: 0x38 }
  - { offsetInCU: 0x1737F, offset: 0x1737F, size: 0x8, addend: 0x0, symName: __ZNSt3__17advanceB8ue170006IPNS_9sub_matchIPKcEEllvEEvRT_T0_, symObjAddr: 0x35098, symBinAddr: 0x10003820C, symSize: 0x38 }
  - { offsetInCU: 0x173EA, offset: 0x173EA, size: 0x8, addend: 0x0, symName: __ZNSt3__17advanceB8ue170006IPNS_4pairImPKcEEllvEEvRT_T0_, symObjAddr: 0x3564C, symBinAddr: 0x1000387C0, symSize: 0x38 }
  - { offsetInCU: 0x17778, offset: 0x17778, size: 0x8, addend: 0x0, symName: __ZNSt3__17advanceB8ue170006INS_11__wrap_iterIPKcEEllvEEvRT_T0_, symObjAddr: 0x36C24, symBinAddr: 0x100039D98, symSize: 0x38 }
  - { offsetInCU: 0x1A670, offset: 0x1A670, size: 0x8, addend: 0x0, symName: __ZNSt3__1eqB8ue170006IcNS_11char_traitsIcEENS_9allocatorIcEEEEbRKNS_12basic_stringIT_T0_T1_EEPKS6_, symObjAddr: 0x4778, symBinAddr: 0x1000078EC, symSize: 0xAC }
  - { offsetInCU: 0x1A6D7, offset: 0x1A6D7, size: 0x8, addend: 0x0, symName: __ZNSt3__1neB8ue170006IcNS_11char_traitsIcEENS_9allocatorIcEEEEbRKNS_12basic_stringIT_T0_T1_EEPKS6_, symObjAddr: 0x4EFC, symBinAddr: 0x100008070, symSize: 0x34 }
  - { offsetInCU: 0x1A72F, offset: 0x1A72F, size: 0x8, addend: 0x0, symName: __ZNSt3__1plB8ue170006IcNS_11char_traitsIcEENS_9allocatorIcEEEENS_12basic_stringIT_T0_T1_EEOS9_RKS9_, symObjAddr: 0x56B0, symBinAddr: 0x100008824, symSize: 0x40 }
  - { offsetInCU: 0x1A787, offset: 0x1A787, size: 0x8, addend: 0x0, symName: __ZNSt3__1plB8ue170006IcNS_11char_traitsIcEENS_9allocatorIcEEEENS_12basic_stringIT_T0_T1_EERKS9_PKS6_, symObjAddr: 0x56F0, symBinAddr: 0x100008864, symSize: 0x11C }
  - { offsetInCU: 0x1A828, offset: 0x1A828, size: 0x8, addend: 0x0, symName: __ZNSt3__1neB8ue170006IcNS_11char_traitsIcEENS_9allocatorIcEEEEbRKNS_12basic_stringIT_T0_T1_EESB_, symObjAddr: 0x6BCC, symBinAddr: 0x100009D40, symSize: 0x34 }
  - { offsetInCU: 0x1A880, offset: 0x1A880, size: 0x8, addend: 0x0, symName: __ZNSt3__1gtB8ue170006IcNS_11char_traitsIcEENS_9allocatorIcEEEEbRKNS_12basic_stringIT_T0_T1_EESB_, symObjAddr: 0x6C00, symBinAddr: 0x100009D74, symSize: 0x30 }
  - { offsetInCU: 0x1A8D8, offset: 0x1A8D8, size: 0x8, addend: 0x0, symName: __ZNSt3__1ltB8ue170006IcNS_11char_traitsIcEENS_9allocatorIcEEEEbRKNS_12basic_stringIT_T0_T1_EESB_, symObjAddr: 0x6F80, symBinAddr: 0x10000A0F4, symSize: 0x38 }
  - { offsetInCU: 0x1A930, offset: 0x1A930, size: 0x8, addend: 0x0, symName: __ZNSt3__1eqB8ue170006INS_9allocatorIcEEEEbRKNS_12basic_stringIcNS_11char_traitsIcEET_EES9_, symObjAddr: 0x7174, symBinAddr: 0x10000A2E8, symSize: 0x148 }
  - { offsetInCU: 0x1A9A3, offset: 0x1A9A3, size: 0x8, addend: 0x0, symName: __ZNSt3__1lsB8ue170006INS_11char_traitsIcEEEERNS_13basic_ostreamIcT_EES6_PKc, symObjAddr: 0x8DAC, symBinAddr: 0x10000BF20, symSize: 0x48 }
  - { offsetInCU: 0x1A9E9, offset: 0x1A9E9, size: 0x8, addend: 0x0, symName: __ZNSt3__14endlB8ue170006IcNS_11char_traitsIcEEEERNS_13basic_ostreamIT_T0_EES7_, symObjAddr: 0x8E20, symBinAddr: 0x10000BF94, symSize: 0x58 }
  - { offsetInCU: 0x1AA29, offset: 0x1AA29, size: 0x8, addend: 0x0, symName: __ZNSt3__1lsB8ue170006IcNS_11char_traitsIcEENS_9allocatorIcEEEERNS_13basic_ostreamIT_T0_EES9_RKNS_12basic_stringIS6_S7_T1_EE, symObjAddr: 0x96EC, symBinAddr: 0x10000C860, symSize: 0x4C }
  - { offsetInCU: 0x1AA81, offset: 0x1AA81, size: 0x8, addend: 0x0, symName: __ZNSt3__1plB8ue170006IcNS_11char_traitsIcEENS_9allocatorIcEEEENS_12basic_stringIT_T0_T1_EEOS9_PKS6_, symObjAddr: 0xA1EC, symBinAddr: 0x10000D360, symSize: 0x40 }
  - { offsetInCU: 0x1AAD9, offset: 0x1AAD9, size: 0x8, addend: 0x0, symName: __ZNSt3__1plB8ue170006IcNS_11char_traitsIcEENS_9allocatorIcEEEENS_12basic_stringIT_T0_T1_EEPKS6_OS9_, symObjAddr: 0xA22C, symBinAddr: 0x10000D3A0, symSize: 0x44 }
  - { offsetInCU: 0x1B8D8, offset: 0x1B8D8, size: 0x8, addend: 0x0, symName: __ZNSt3__17getlineB8ue170006IcNS_11char_traitsIcEENS_9allocatorIcEEEERNS_13basic_istreamIT_T0_EES9_RNS_12basic_stringIS6_S7_T1_EE, symObjAddr: 0xA434, symBinAddr: 0x10000D5A8, symSize: 0x5C }
  - { offsetInCU: 0x1BE48, offset: 0x1BE48, size: 0x8, addend: 0x0, symName: __ZNSt3__1neB8ue170006INS_12basic_stringIcNS_11char_traitsIcEENS_9allocatorIcEEEENS4_IS6_EEEEbRKNS_6vectorIT_T0_EESD_, symObjAddr: 0xA960, symBinAddr: 0x10000DAD4, symSize: 0x34 }
  - { offsetInCU: 0x1BEA2, offset: 0x1BEA2, size: 0x8, addend: 0x0, symName: __ZNSt3__122__make_exception_guardB8ue170006INS_6vectorINS_9sub_matchINS_11__wrap_iterIPKcEEEENS_9allocatorIS7_EEE16__destroy_vectorEEENS_28__exception_guard_exceptionsIT_EESD_, symObjAddr: 0xAE4C, symBinAddr: 0x10000DFC0, symSize: 0x40 }
  - { offsetInCU: 0x1BED7, offset: 0x1BED7, size: 0x8, addend: 0x0, symName: __ZNSt3__119__allocate_at_leastB8ue170006INS_9allocatorINS_9sub_matchINS_11__wrap_iterIPKcEEEEEEEENS_19__allocation_resultINS_16allocator_traitsIT_E7pointerEEERSB_m, symObjAddr: 0xB13C, symBinAddr: 0x10000E2B0, symSize: 0x40 }
  - { offsetInCU: 0x1BF1A, offset: 0x1BF1A, size: 0x8, addend: 0x0, symName: __ZNSt3__13minB8ue170006ImEERKT_S3_S3_, symObjAddr: 0xB294, symBinAddr: 0x10000E408, symSize: 0x2C }
  - { offsetInCU: 0x1C15E, offset: 0x1C15E, size: 0x8, addend: 0x0, symName: __ZNSt3__13minB8ue170006ImNS_6__lessIvvEEEERKT_S5_S5_T0_, symObjAddr: 0xB2F8, symBinAddr: 0x10000E46C, symSize: 0x54 }
  - { offsetInCU: 0x1C1FD, offset: 0x1C1FD, size: 0x8, addend: 0x0, symName: __ZNSt3__120__throw_length_errorB8ue170006EPKc, symObjAddr: 0xB3A0, symBinAddr: 0x10000E514, symSize: 0x64 }
  - { offsetInCU: 0x1C227, offset: 0x1C227, size: 0x8, addend: 0x0, symName: __ZNSt3__117__libcpp_allocateB8ue170006Emm, symObjAddr: 0xB514, symBinAddr: 0x10000E688, symSize: 0x28 }
  - { offsetInCU: 0x1C264, offset: 0x1C264, size: 0x8, addend: 0x0, symName: __ZNSt3__121__libcpp_operator_newB8ue170006IJmEEEPvDpT_, symObjAddr: 0xB53C, symBinAddr: 0x10000E6B0, symSize: 0x24 }
  - { offsetInCU: 0x1C29D, offset: 0x1C29D, size: 0x8, addend: 0x0, symName: __ZNSt3__112__to_addressB8ue170006INS_9sub_matchINS_11__wrap_iterIPKcEEEEEEPT_S8_, symObjAddr: 0xB658, symBinAddr: 0x10000E7CC, symSize: 0x14 }
  - { offsetInCU: 0x1C2D2, offset: 0x1C2D2, size: 0x8, addend: 0x0, symName: __ZNSt3__130__uninitialized_allocator_copyB8ue170006INS_9allocatorINS_9sub_matchINS_11__wrap_iterIPKcEEEEEEPS7_S9_S9_EET2_RT_T0_T1_SA_, symObjAddr: 0xB708, symBinAddr: 0x10000E87C, symSize: 0x80 }
  - { offsetInCU: 0x1C36F, offset: 0x1C36F, size: 0x8, addend: 0x0, symName: __ZNSt3__114__unwrap_rangeB8ue170006IPNS_9sub_matchINS_11__wrap_iterIPKcEEEES7_EENS_4pairIT0_S9_EET_SB_, symObjAddr: 0xB800, symBinAddr: 0x10000E974, symSize: 0x60 }
  - { offsetInCU: 0x1C3BB, offset: 0x1C3BB, size: 0x8, addend: 0x0, symName: __ZNSt3__135__uninitialized_allocator_copy_implB8ue170006INS_9allocatorINS_9sub_matchINS_11__wrap_iterIPKcEEEEEEPS7_S9_S9_EET2_RT_T0_T1_SA_, symObjAddr: 0xB860, symBinAddr: 0x10000E9D4, symSize: 0xF4 }
  - { offsetInCU: 0x1C459, offset: 0x1C459, size: 0x8, addend: 0x0, symName: __ZNSt3__113__unwrap_iterB8ue170006IPNS_9sub_matchINS_11__wrap_iterIPKcEEEENS_18__unwrap_iter_implIS7_Lb1EEELi0EEEDTclsrT0_8__unwrapclsr3stdE7declvalIT_EEEESB_, symObjAddr: 0xB954, symBinAddr: 0x10000EAC8, symSize: 0x24 }
  - { offsetInCU: 0x1C49D, offset: 0x1C49D, size: 0x8, addend: 0x0, symName: __ZNSt3__113__rewrap_iterB8ue170006IPNS_9sub_matchINS_11__wrap_iterIPKcEEEES7_NS_18__unwrap_iter_implIS7_Lb1EEEEET_SA_T0_, symObjAddr: 0xB978, symBinAddr: 0x10000EAEC, symSize: 0x3C }
  - { offsetInCU: 0x1C4F2, offset: 0x1C4F2, size: 0x8, addend: 0x0, symName: __ZNSt3__19make_pairB8ue170006IPNS_9sub_matchINS_11__wrap_iterIPKcEEEES7_EENS_4pairINS_18__unwrap_ref_decayIT_E4typeENS9_IT0_E4typeEEEOSA_OSD_, symObjAddr: 0xB9B4, symBinAddr: 0x10000EB28, symSize: 0x38 }
  - { offsetInCU: 0x1C615, offset: 0x1C615, size: 0x8, addend: 0x0, symName: __ZNSt3__122__make_exception_guardB8ue170006INS_29_AllocatorDestroyRangeReverseINS_9allocatorINS_9sub_matchINS_11__wrap_iterIPKcEEEEEEPS8_EEEENS_28__exception_guard_exceptionsIT_EESD_, symObjAddr: 0xBA5C, symBinAddr: 0x10000EBD0, symSize: 0x4C }
  - { offsetInCU: 0x1C64B, offset: 0x1C64B, size: 0x8, addend: 0x0, symName: __ZNSt3__119__allocator_destroyB8ue170006INS_9allocatorINS_9sub_matchINS_11__wrap_iterIPKcEEEEEENS_16reverse_iteratorIPS7_EESB_EEvRT_T0_T1_, symObjAddr: 0xBCEC, symBinAddr: 0x10000EE60, symSize: 0x70 }
  - { offsetInCU: 0x1C6AE, offset: 0x1C6AE, size: 0x8, addend: 0x0, symName: __ZNSt3__1neB8ue170006IPNS_9sub_matchINS_11__wrap_iterIPKcEEEES7_EEbRKNS_16reverse_iteratorIT_EERKNS8_IT0_EE, symObjAddr: 0xBD90, symBinAddr: 0x10000EF04, symSize: 0x48 }
  - { offsetInCU: 0x1C6FA, offset: 0x1C6FA, size: 0x8, addend: 0x0, symName: __ZNSt3__112__to_addressB8ue170006INS_16reverse_iteratorIPNS_9sub_matchINS_11__wrap_iterIPKcEEEEEEvEEu7__decayIDTclsr19__to_address_helperIT_EE6__callclsr3stdE7declvalIRKSA_EEEEESC_, symObjAddr: 0xBE04, symBinAddr: 0x10000EF78, symSize: 0x24 }
  - { offsetInCU: 0x1C7AC, offset: 0x1C7AC, size: 0x8, addend: 0x0, symName: __ZNSt3__119__libcpp_deallocateB8ue170006EPvmm, symObjAddr: 0xC29C, symBinAddr: 0x10000F410, symSize: 0x30 }
  - { offsetInCU: 0x1C7F4, offset: 0x1C7F4, size: 0x8, addend: 0x0, symName: __ZNSt3__127__do_deallocate_handle_sizeB8ue170006IJEEEvPvmDpT_, symObjAddr: 0xC2CC, symBinAddr: 0x10000F440, symSize: 0x28 }
  - { offsetInCU: 0x1C832, offset: 0x1C832, size: 0x8, addend: 0x0, symName: __ZNSt3__124__libcpp_operator_deleteB8ue170006IJPvEEEvDpT_, symObjAddr: 0xC2F4, symBinAddr: 0x10000F468, symSize: 0x24 }
  - { offsetInCU: 0x1C867, offset: 0x1C867, size: 0x8, addend: 0x0, symName: __ZNSt3__134__libcpp_atomic_refcount_decrementB8ue170006IlEET_RS1_, symObjAddr: 0xC5A8, symBinAddr: 0x10000F71C, symSize: 0x30 }
  - { offsetInCU: 0x1C8CF, offset: 0x1C8CF, size: 0x8, addend: 0x0, symName: __ZNSt3__112__to_addressB8ue170006IKcEEPT_S3_, symObjAddr: 0xCC58, symBinAddr: 0x10000FDCC, symSize: 0x14 }
  - { offsetInCU: 0x1C942, offset: 0x1C942, size: 0x8, addend: 0x0, symName: __ZNSt3__118__constexpr_strlenB8ue170006EPKc, symObjAddr: 0xCE08, symBinAddr: 0x10000FF7C, symSize: 0x24 }
  - { offsetInCU: 0x1C96E, offset: 0x1C96E, size: 0x8, addend: 0x0, symName: __ZNSt3__112__to_addressB8ue170006IcEEPT_S2_, symObjAddr: 0xCEF4, symBinAddr: 0x100010068, symSize: 0x14 }
  - { offsetInCU: 0x1CBA5, offset: 0x1CBA5, size: 0x8, addend: 0x0, symName: __ZNSt3__14copyB8ue170006IPKcPcEET0_T_S5_S4_, symObjAddr: 0xD524, symBinAddr: 0x100010698, symSize: 0x40 }
  - { offsetInCU: 0x1CBFF, offset: 0x1CBFF, size: 0x8, addend: 0x0, symName: __ZNSt3__16__copyB8ue170006INS_17_ClassicAlgPolicyEPKcS3_PcEENS_4pairIT0_T2_EES6_T1_S7_, symObjAddr: 0xD564, symBinAddr: 0x1000106D8, symSize: 0x44 }
  - { offsetInCU: 0x1CC6B, offset: 0x1CC6B, size: 0x8, addend: 0x0, symName: __ZNSt3__123__dispatch_copy_or_moveB8ue170006INS_17_ClassicAlgPolicyENS_11__copy_loopIS1_EENS_14__copy_trivialEPKcS6_PcEENS_4pairIT2_T4_EES9_T3_SA_, symObjAddr: 0xD5A8, symBinAddr: 0x10001071C, symSize: 0x44 }
  - { offsetInCU: 0x1CCE9, offset: 0x1CCE9, size: 0x8, addend: 0x0, symName: __ZNSt3__121__unwrap_and_dispatchB8ue170006INS_10__overloadINS_11__copy_loopINS_17_ClassicAlgPolicyEEENS_14__copy_trivialEEEPKcS8_PcLi0EEENS_4pairIT0_T2_EESB_T1_SC_, symObjAddr: 0xD5EC, symBinAddr: 0x100010760, symSize: 0xB4 }
  - { offsetInCU: 0x1CD77, offset: 0x1CD77, size: 0x8, addend: 0x0, symName: __ZNSt3__114__unwrap_rangeB8ue170006IPKcS2_EENS_4pairIT0_S4_EET_S6_, symObjAddr: 0xD6A0, symBinAddr: 0x100010814, symSize: 0x60 }
  - { offsetInCU: 0x1CF0C, offset: 0x1CF0C, size: 0x8, addend: 0x0, symName: __ZNSt3__113__unwrap_iterB8ue170006IPcNS_18__unwrap_iter_implIS1_Lb1EEELi0EEEDTclsrT0_8__unwrapclsr3stdE7declvalIT_EEEES5_, symObjAddr: 0xD748, symBinAddr: 0x1000108BC, symSize: 0x24 }
  - { offsetInCU: 0x1CF50, offset: 0x1CF50, size: 0x8, addend: 0x0, symName: __ZNSt3__19make_pairB8ue170006IPKcPcEENS_4pairINS_18__unwrap_ref_decayIT_E4typeENS5_IT0_E4typeEEEOS6_OS9_, symObjAddr: 0xD76C, symBinAddr: 0x1000108E0, symSize: 0x38 }
  - { offsetInCU: 0x1CF9F, offset: 0x1CF9F, size: 0x8, addend: 0x0, symName: __ZNSt3__114__rewrap_rangeB8ue170006IPKcS2_EET_S3_T0_, symObjAddr: 0xD7A4, symBinAddr: 0x100010918, symSize: 0x2C }
  - { offsetInCU: 0x1CFEB, offset: 0x1CFEB, size: 0x8, addend: 0x0, symName: __ZNSt3__113__rewrap_iterB8ue170006IPcS1_NS_18__unwrap_iter_implIS1_Lb1EEEEET_S4_T0_, symObjAddr: 0xD7D0, symBinAddr: 0x100010944, symSize: 0x3C }
  - { offsetInCU: 0x1D040, offset: 0x1D040, size: 0x8, addend: 0x0, symName: __ZNSt3__19make_pairB8ue170006IPKcS2_EENS_4pairINS_18__unwrap_ref_decayIT_E4typeENS4_IT0_E4typeEEEOS5_OS8_, symObjAddr: 0xD80C, symBinAddr: 0x100010980, symSize: 0x38 }
  - { offsetInCU: 0x1D08F, offset: 0x1D08F, size: 0x8, addend: 0x0, symName: __ZNSt3__113__unwrap_iterB8ue170006IPKcNS_18__unwrap_iter_implIS2_Lb1EEELi0EEEDTclsrT0_8__unwrapclsr3stdE7declvalIT_EEEES6_, symObjAddr: 0xD844, symBinAddr: 0x1000109B8, symSize: 0x24 }
  - { offsetInCU: 0x1D126, offset: 0x1D126, size: 0x8, addend: 0x0, symName: __ZNSt3__119__copy_trivial_implB8ue170006IKccEENS_4pairIPT_PT0_EES4_S4_S6_, symObjAddr: 0xD8FC, symBinAddr: 0x100010A70, symSize: 0x78 }
  - { offsetInCU: 0x1D18E, offset: 0x1D18E, size: 0x8, addend: 0x0, symName: __ZNSt3__119__constexpr_memmoveB8ue170006IcKcLi0EEEPT_S3_PT0_NS_15__element_countE, symObjAddr: 0xD974, symBinAddr: 0x100010AE8, symSize: 0x64 }
  - { offsetInCU: 0x1D1FC, offset: 0x1D1FC, size: 0x8, addend: 0x0, symName: __ZNSt3__19make_pairB8ue170006IRPKcPcEENS_4pairINS_18__unwrap_ref_decayIT_E4typeENS6_IT0_E4typeEEEOS7_OSA_, symObjAddr: 0xD9D8, symBinAddr: 0x100010B4C, symSize: 0x38 }
  - { offsetInCU: 0x1D29E, offset: 0x1D29E, size: 0x8, addend: 0x0, symName: __ZNSt3__113__rewrap_iterB8ue170006IPKcS2_NS_18__unwrap_iter_implIS2_Lb1EEEEET_S5_T0_, symObjAddr: 0xDB14, symBinAddr: 0x100010C88, symSize: 0x3C }
  - { offsetInCU: 0x1D2F3, offset: 0x1D2F3, size: 0x8, addend: 0x0, symName: __ZNSt3__16fill_nB8ue170006IPcmcEET_S2_T0_RKT1_, symObjAddr: 0xDBE0, symBinAddr: 0x100010D54, symSize: 0x44 }
  - { offsetInCU: 0x1D356, offset: 0x1D356, size: 0x8, addend: 0x0, symName: __ZNSt3__18__fill_nB8ue170006IPcmcEET_S2_T0_RKT1_, symObjAddr: 0xDC24, symBinAddr: 0x100010D98, symSize: 0x64 }
  - { offsetInCU: 0x1D3B9, offset: 0x1D3B9, size: 0x8, addend: 0x0, symName: __ZNSt3__121__convert_to_integralB8ue170006Em, symObjAddr: 0xDC88, symBinAddr: 0x100010DFC, symSize: 0x14 }
  - { offsetInCU: 0x1D3E5, offset: 0x1D3E5, size: 0x8, addend: 0x0, symName: __ZNSt3__112__to_addressB8ue170006IP12ExprTreeNodeEEPT_S4_, symObjAddr: 0xE458, symBinAddr: 0x1000115CC, symSize: 0x14 }
  - { offsetInCU: 0x1D41A, offset: 0x1D41A, size: 0x8, addend: 0x0, symName: __ZNSt3__13maxB8ue170006ImEERKT_S3_S3_, symObjAddr: 0xEB40, symBinAddr: 0x100011CB4, symSize: 0x2C }
  - { offsetInCU: 0x1D45D, offset: 0x1D45D, size: 0x8, addend: 0x0, symName: __ZNSt3__13maxB8ue170006ImNS_6__lessIvvEEEERKT_S5_S5_T0_, symObjAddr: 0xEC04, symBinAddr: 0x100011D78, symSize: 0x54 }
  - { offsetInCU: 0x1D4B7, offset: 0x1D4B7, size: 0x8, addend: 0x0, symName: __ZNSt3__119__allocate_at_leastB8ue170006INS_9allocatorIP12ExprTreeNodeEEEENS_19__allocation_resultINS_16allocator_traitsIT_E7pointerEEERS7_m, symObjAddr: 0xED68, symBinAddr: 0x100011EDC, symSize: 0x40 }
  - { offsetInCU: 0x1D4FA, offset: 0x1D4FA, size: 0x8, addend: 0x0, symName: __ZNSt3__142__uninitialized_allocator_move_if_noexceptB8ue170006INS_9allocatorIP12ExprTreeNodeEENS_16reverse_iteratorIPS3_EES7_S3_vEET1_RT_T0_SB_S8_, symObjAddr: 0xEF1C, symBinAddr: 0x100012090, symSize: 0x78 }
  - { offsetInCU: 0x1D577, offset: 0x1D577, size: 0x8, addend: 0x0, symName: __ZNSt3__14swapB8ue170006IPP12ExprTreeNodeEENS_9enable_ifIXaasr21is_move_constructibleIT_EE5valuesr18is_move_assignableIS5_EE5valueEvE4typeERS5_S8_, symObjAddr: 0xEFE0, symBinAddr: 0x100012154, symSize: 0x3C }
  - { offsetInCU: 0x1D5C8, offset: 0x1D5C8, size: 0x8, addend: 0x0, symName: __ZNSt3__14moveB8ue170006INS_16reverse_iteratorIPP12ExprTreeNodeEES5_EET0_T_S7_S6_, symObjAddr: 0xF0C8, symBinAddr: 0x10001223C, symSize: 0x78 }
  - { offsetInCU: 0x1D622, offset: 0x1D622, size: 0x8, addend: 0x0, symName: __ZNSt3__16__moveB8ue170006INS_17_ClassicAlgPolicyENS_16reverse_iteratorIPP12ExprTreeNodeEES6_S6_EENS_4pairIT0_T2_EES8_T1_S9_, symObjAddr: 0xF140, symBinAddr: 0x1000122B4, symSize: 0x64 }
  - { offsetInCU: 0x1D68E, offset: 0x1D68E, size: 0x8, addend: 0x0, symName: __ZNSt3__123__dispatch_copy_or_moveB8ue170006INS_17_ClassicAlgPolicyENS_11__move_loopIS1_EENS_14__move_trivialENS_16reverse_iteratorIPP12ExprTreeNodeEES9_S9_EENS_4pairIT2_T4_EESB_T3_SC_, symObjAddr: 0xF1A4, symBinAddr: 0x100012318, symSize: 0x64 }
  - { offsetInCU: 0x1D70C, offset: 0x1D70C, size: 0x8, addend: 0x0, symName: __ZNSt3__121__unwrap_and_dispatchB8ue170006INS_10__overloadINS_11__move_loopINS_17_ClassicAlgPolicyEEENS_14__move_trivialEEENS_16reverse_iteratorIPP12ExprTreeNodeEESB_SB_Li0EEENS_4pairIT0_T2_EESD_T1_SE_, symObjAddr: 0xF208, symBinAddr: 0x10001237C, symSize: 0x12C }
  - { offsetInCU: 0x1D79C, offset: 0x1D79C, size: 0x8, addend: 0x0, symName: __ZNSt3__114__unwrap_rangeB8ue170006INS_16reverse_iteratorIPP12ExprTreeNodeEES5_EENS_4pairIT0_S7_EET_S9_, symObjAddr: 0xF334, symBinAddr: 0x1000124A8, symSize: 0x84 }
  - { offsetInCU: 0x1D956, offset: 0x1D956, size: 0x8, addend: 0x0, symName: __ZNSt3__113__unwrap_iterB8ue170006INS_16reverse_iteratorIPP12ExprTreeNodeEENS_18__unwrap_iter_implIS5_Lb0EEELi0EEEDTclsrT0_8__unwrapclsr3stdE7declvalIT_EEEES9_, symObjAddr: 0xF458, symBinAddr: 0x1000125CC, symSize: 0x44 }
  - { offsetInCU: 0x1D99A, offset: 0x1D99A, size: 0x8, addend: 0x0, symName: __ZNSt3__19make_pairB8ue170006INS_16reverse_iteratorIPP12ExprTreeNodeEES5_EENS_4pairINS_18__unwrap_ref_decayIT_E4typeENS7_IT0_E4typeEEEOS8_OSB_, symObjAddr: 0xF49C, symBinAddr: 0x100012610, symSize: 0x38 }
  - { offsetInCU: 0x1D9E9, offset: 0x1D9E9, size: 0x8, addend: 0x0, symName: __ZNSt3__114__rewrap_rangeB8ue170006INS_16reverse_iteratorIPP12ExprTreeNodeEES5_EET_S6_T0_, symObjAddr: 0xF4D4, symBinAddr: 0x100012648, symSize: 0x5C }
  - { offsetInCU: 0x1DA35, offset: 0x1DA35, size: 0x8, addend: 0x0, symName: __ZNSt3__113__rewrap_iterB8ue170006INS_16reverse_iteratorIPP12ExprTreeNodeEES5_NS_18__unwrap_iter_implIS5_Lb0EEEEET_S8_T0_, symObjAddr: 0xF530, symBinAddr: 0x1000126A4, symSize: 0x74 }
  - { offsetInCU: 0x1DA8A, offset: 0x1DA8A, size: 0x8, addend: 0x0, symName: __ZNSt3__1neB8ue170006IPP12ExprTreeNodeS3_EEbRKNS_16reverse_iteratorIT_EERKNS4_IT0_EE, symObjAddr: 0xF5A4, symBinAddr: 0x100012718, symSize: 0x48 }
  - { offsetInCU: 0x1DBDA, offset: 0x1DBDA, size: 0x8, addend: 0x0, symName: __ZNSt3__116__pad_and_outputB8ue170006IcNS_11char_traitsIcEEEENS_19ostreambuf_iteratorIT_T0_EES6_PKS4_S8_S8_RNS_8ios_baseES4_, symObjAddr: 0xFC3C, symBinAddr: 0x100012DB0, symSize: 0x240 }
  - { offsetInCU: 0x1DCA9, offset: 0x1DCA9, size: 0x8, addend: 0x0, symName: __ZNSt3__19use_facetB8ue170006INS_5ctypeIcEEEERKT_RKNS_6localeE, symObjAddr: 0x101C8, symBinAddr: 0x10001333C, symSize: 0x2C }
  - { offsetInCU: 0x1DCDE, offset: 0x1DCDE, size: 0x8, addend: 0x0, symName: __ZNSt3__112__to_addressB8ue170006INS_12basic_stringIcNS_11char_traitsIcEENS_9allocatorIcEEEEEEPT_S8_, symObjAddr: 0x104C0, symBinAddr: 0x100013634, symSize: 0x14 }
  - { offsetInCU: 0x1DD13, offset: 0x1DD13, size: 0x8, addend: 0x0, symName: __ZNSt3__119__allocate_at_leastB8ue170006INS_9allocatorINS_12basic_stringIcNS_11char_traitsIcEENS1_IcEEEEEEEENS_19__allocation_resultINS_16allocator_traitsIT_E7pointerEEERSA_m, symObjAddr: 0x10ADC, symBinAddr: 0x100013C50, symSize: 0x40 }
  - { offsetInCU: 0x1DD56, offset: 0x1DD56, size: 0x8, addend: 0x0, symName: __ZNSt3__142__uninitialized_allocator_move_if_noexceptB8ue170006INS_9allocatorINS_12basic_stringIcNS_11char_traitsIcEENS1_IcEEEEEENS_16reverse_iteratorIPS6_EESA_SA_EET2_RT_T0_T1_SB_, symObjAddr: 0x10D84, symBinAddr: 0x100013EF8, symSize: 0x12C }
  - { offsetInCU: 0x1DDF6, offset: 0x1DDF6, size: 0x8, addend: 0x0, symName: __ZNSt3__14swapB8ue170006IPNS_12basic_stringIcNS_11char_traitsIcEENS_9allocatorIcEEEEEENS_9enable_ifIXaasr21is_move_constructibleIT_EE5valuesr18is_move_assignableIS9_EE5valueEvE4typeERS9_SC_, symObjAddr: 0x10EFC, symBinAddr: 0x100014070, symSize: 0x3C }
  - { offsetInCU: 0x1DE47, offset: 0x1DE47, size: 0x8, addend: 0x0, symName: __ZNSt3__122__make_exception_guardB8ue170006INS_29_AllocatorDestroyRangeReverseINS_9allocatorINS_12basic_stringIcNS_11char_traitsIcEENS2_IcEEEEEENS_16reverse_iteratorIPS7_EEEEEENS_28__exception_guard_exceptionsIT_EESE_, symObjAddr: 0x11048, symBinAddr: 0x1000141BC, symSize: 0x4C }
  - { offsetInCU: 0x1DE7D, offset: 0x1DE7D, size: 0x8, addend: 0x0, symName: __ZNSt3__1neB8ue170006IPNS_12basic_stringIcNS_11char_traitsIcEENS_9allocatorIcEEEES7_EEbRKNS_16reverse_iteratorIT_EERKNS8_IT0_EE, symObjAddr: 0x110D8, symBinAddr: 0x10001424C, symSize: 0x48 }
  - { offsetInCU: 0x1DEC9, offset: 0x1DEC9, size: 0x8, addend: 0x0, symName: __ZNSt3__112__to_addressB8ue170006INS_16reverse_iteratorIPNS_12basic_stringIcNS_11char_traitsIcEENS_9allocatorIcEEEEEEvEEu7__decayIDTclsr19__to_address_helperIT_EE6__callclsr3stdE7declvalIRKSA_EEEEESC_, symObjAddr: 0x11120, symBinAddr: 0x100014294, symSize: 0x24 }
  - { offsetInCU: 0x1DF28, offset: 0x1DF28, size: 0x8, addend: 0x0, symName: __ZNSt3__119__allocator_destroyB8ue170006INS_9allocatorINS_12basic_stringIcNS_11char_traitsIcEENS1_IcEEEEEENS_16reverse_iteratorINS8_IPS6_EEEESB_EEvRT_T0_T1_, symObjAddr: 0x113D0, symBinAddr: 0x100014544, symSize: 0x70 }
  - { offsetInCU: 0x1DF8D, offset: 0x1DF8D, size: 0x8, addend: 0x0, symName: __ZNSt3__1neB8ue170006INS_16reverse_iteratorIPNS_12basic_stringIcNS_11char_traitsIcEENS_9allocatorIcEEEEEES9_EEbRKNS1_IT_EERKNS1_IT0_EE, symObjAddr: 0x1147C, symBinAddr: 0x1000145F0, symSize: 0x60 }
  - { offsetInCU: 0x1DFD9, offset: 0x1DFD9, size: 0x8, addend: 0x0, symName: __ZNSt3__112__to_addressB8ue170006INS_16reverse_iteratorINS1_IPNS_12basic_stringIcNS_11char_traitsIcEENS_9allocatorIcEEEEEEEEvEEu7__decayIDTclsr19__to_address_helperIT_EE6__callclsr3stdE7declvalIRKSB_EEEEESD_, symObjAddr: 0x11508, symBinAddr: 0x10001467C, symSize: 0x24 }
  - { offsetInCU: 0x1E038, offset: 0x1E038, size: 0x8, addend: 0x0, symName: __ZNSt3__17getlineB8ue170006IcNS_11char_traitsIcEENS_9allocatorIcEEEERNS_13basic_istreamIT_T0_EES9_RNS_12basic_stringIS6_S7_T1_EES6_, symObjAddr: 0x11F88, symBinAddr: 0x1000150FC, symSize: 0x238 }
  - { offsetInCU: 0x1E0F6, offset: 0x1E0F6, size: 0x8, addend: 0x0, symName: __ZNSt3__19use_facetB8ue170006INS_7collateIcEEEERKT_RKNS_6localeE, symObjAddr: 0x12678, symBinAddr: 0x1000157EC, symSize: 0x2C }
  - { offsetInCU: 0x1E12B, offset: 0x1E12B, size: 0x8, addend: 0x0, symName: __ZNSt3__119__throw_regex_errorB8ue170006ILNS_15regex_constants10error_typeE17EEEvv, symObjAddr: 0x12930, symBinAddr: 0x100015AA4, symSize: 0x60 }
  - { offsetInCU: 0x1E5BC, offset: 0x1E5BC, size: 0x8, addend: 0x0, symName: __ZNSt3__119__throw_regex_errorB8ue170006ILNS_15regex_constants10error_typeE14EEEvv, symObjAddr: 0x131AC, symBinAddr: 0x100016320, symSize: 0x60 }
  - { offsetInCU: 0x1F187, offset: 0x1F187, size: 0x8, addend: 0x0, symName: __ZNSt3__14swapB8ue170006IPNS_13__empty_stateIcEEEENS_9enable_ifIXaasr21is_move_constructibleIT_EE5valuesr18is_move_assignableIS5_EE5valueEvE4typeERS5_S8_, symObjAddr: 0x14100, symBinAddr: 0x100017274, symSize: 0x3C }
  - { offsetInCU: 0x1F1D8, offset: 0x1F1D8, size: 0x8, addend: 0x0, symName: __ZNSt3__14swapB8ue170006IPNS_19__shared_weak_countEEENS_9enable_ifIXaasr21is_move_constructibleIT_EE5valuesr18is_move_assignableIS4_EE5valueEvE4typeERS4_S7_, symObjAddr: 0x1413C, symBinAddr: 0x1000172B0, symSize: 0x3C }
  - { offsetInCU: 0x1F229, offset: 0x1F229, size: 0x8, addend: 0x0, symName: __ZNSt3__14nextB8ue170006IPKcEENS_9enable_ifIXsr29__has_input_iterator_categoryIT_EE5valueES4_E4typeES4_NS_15iterator_traitsIS4_E15difference_typeE, symObjAddr: 0x158CC, symBinAddr: 0x100018A40, symSize: 0x34 }
  - { offsetInCU: 0x1F26C, offset: 0x1F26C, size: 0x8, addend: 0x0, symName: __ZNSt3__119__throw_regex_errorB8ue170006ILNS_15regex_constants10error_typeE6EEEvv, symObjAddr: 0x15AC0, symBinAddr: 0x100018C34, symSize: 0x60 }
  - { offsetInCU: 0x1F317, offset: 0x1F317, size: 0x8, addend: 0x0, symName: __ZNSt3__18__is_eolB8ue170006IcEEbT_, symObjAddr: 0x15E14, symBinAddr: 0x100018F88, symSize: 0x48 }
  - { offsetInCU: 0x1F34E, offset: 0x1F34E, size: 0x8, addend: 0x0, symName: __ZNSt3__14prevB8ue170006IPKcEENS_9enable_ifIXsr29__has_input_iterator_categoryIT_EE5valueES4_E4typeES4_NS_15iterator_traitsIS4_E15difference_typeE, symObjAddr: 0x15E5C, symBinAddr: 0x100018FD0, symSize: 0x3C }
  - { offsetInCU: 0x1F391, offset: 0x1F391, size: 0x8, addend: 0x0, symName: __ZNSt3__121__convert_to_integralB8ue170006El, symObjAddr: 0x15ED0, symBinAddr: 0x100019044, symSize: 0x14 }
  - { offsetInCU: 0x1F3BD, offset: 0x1F3BD, size: 0x8, addend: 0x0, symName: __ZNSt3__19__advanceB8ue170006IPKcEEvRT_NS_15iterator_traitsIS3_E15difference_typeENS_26random_access_iterator_tagE, symObjAddr: 0x15EE4, symBinAddr: 0x100019058, symSize: 0x28 }
  - { offsetInCU: 0x1F60E, offset: 0x1F60E, size: 0x8, addend: 0x0, symName: __ZNSt3__134__libcpp_atomic_refcount_incrementB8ue170006IlEET_RS1_, symObjAddr: 0x16CAC, symBinAddr: 0x100019E20, symSize: 0x30 }
  - { offsetInCU: 0x1F92A, offset: 0x1F92A, size: 0x8, addend: 0x0, symName: __ZNSt3__112__to_addressB8ue170006INS_9sub_matchIPKcEEEEPT_S6_, symObjAddr: 0x17B64, symBinAddr: 0x10001ACD8, symSize: 0x14 }
  - { offsetInCU: 0x1F95F, offset: 0x1F95F, size: 0x8, addend: 0x0, symName: __ZNSt3__16fill_nB8ue170006IPNS_9sub_matchIPKcEEmS4_EET_S6_T0_RKT1_, symObjAddr: 0x17DE8, symBinAddr: 0x10001AF5C, symSize: 0x44 }
  - { offsetInCU: 0x1F9C2, offset: 0x1F9C2, size: 0x8, addend: 0x0, symName: __ZNSt3__18__fill_nB8ue170006IPNS_9sub_matchIPKcEEmS4_EET_S6_T0_RKT1_, symObjAddr: 0x18144, symBinAddr: 0x10001B2B8, symSize: 0x6C }
  - { offsetInCU: 0x1FA25, offset: 0x1FA25, size: 0x8, addend: 0x0, symName: __ZNSt3__119__allocate_at_leastB8ue170006INS_9allocatorINS_9sub_matchIPKcEEEEEENS_19__allocation_resultINS_16allocator_traitsIT_E7pointerEEERS9_m, symObjAddr: 0x184D8, symBinAddr: 0x10001B64C, symSize: 0x40 }
  - { offsetInCU: 0x1FA68, offset: 0x1FA68, size: 0x8, addend: 0x0, symName: __ZNSt3__119__throw_regex_errorB8ue170006ILNS_15regex_constants10error_typeE12EEEvv, symObjAddr: 0x18934, symBinAddr: 0x10001BAA8, symSize: 0x60 }
  - { offsetInCU: 0x1FA8D, offset: 0x1FA8D, size: 0x8, addend: 0x0, symName: __ZNSt3__119__throw_regex_errorB8ue170006ILNS_15regex_constants10error_typeE16EEEvv, symObjAddr: 0x189F4, symBinAddr: 0x10001BB68, symSize: 0x60 }
  - { offsetInCU: 0x1FAB2, offset: 0x1FAB2, size: 0x8, addend: 0x0, symName: __ZNSt3__112__to_addressB8ue170006INS_7__stateIcEEEEPT_S4_, symObjAddr: 0x18E58, symBinAddr: 0x10001BFCC, symSize: 0x14 }
  - { offsetInCU: 0x1FAE7, offset: 0x1FAE7, size: 0x8, addend: 0x0, symName: __ZNSt3__119__allocate_at_leastB8ue170006INS_9allocatorINS_7__stateIcEEEEEENS_19__allocation_resultINS_16allocator_traitsIT_E7pointerEEERS7_m, symObjAddr: 0x19944, symBinAddr: 0x10001CAB8, symSize: 0x40 }
  - { offsetInCU: 0x1FB2A, offset: 0x1FB2A, size: 0x8, addend: 0x0, symName: __ZNSt3__142__uninitialized_allocator_move_if_noexceptB8ue170006INS_9allocatorINS_7__stateIcEEEENS_16reverse_iteratorIPS3_EES7_S7_EET2_RT_T0_T1_S8_, symObjAddr: 0x19BD0, symBinAddr: 0x10001CD44, symSize: 0x12C }
  - { offsetInCU: 0x1FBCA, offset: 0x1FBCA, size: 0x8, addend: 0x0, symName: __ZNSt3__14swapB8ue170006IPNS_7__stateIcEEEENS_9enable_ifIXaasr21is_move_constructibleIT_EE5valuesr18is_move_assignableIS5_EE5valueEvE4typeERS5_S8_, symObjAddr: 0x19D48, symBinAddr: 0x10001CEBC, symSize: 0x3C }
  - { offsetInCU: 0x1FC1B, offset: 0x1FC1B, size: 0x8, addend: 0x0, symName: __ZNSt3__122__make_exception_guardB8ue170006INS_29_AllocatorDestroyRangeReverseINS_9allocatorINS_7__stateIcEEEENS_16reverse_iteratorIPS4_EEEEEENS_28__exception_guard_exceptionsIT_EESB_, symObjAddr: 0x19E94, symBinAddr: 0x10001D008, symSize: 0x4C }
  - { offsetInCU: 0x1FC51, offset: 0x1FC51, size: 0x8, addend: 0x0, symName: __ZNSt3__1neB8ue170006IPNS_7__stateIcEES3_EEbRKNS_16reverse_iteratorIT_EERKNS4_IT0_EE, symObjAddr: 0x19F24, symBinAddr: 0x10001D098, symSize: 0x48 }
  - { offsetInCU: 0x1FC9D, offset: 0x1FC9D, size: 0x8, addend: 0x0, symName: __ZNSt3__112__to_addressB8ue170006INS_16reverse_iteratorIPNS_7__stateIcEEEEvEEu7__decayIDTclsr19__to_address_helperIT_EE6__callclsr3stdE7declvalIRKS6_EEEEES8_, symObjAddr: 0x19F6C, symBinAddr: 0x10001D0E0, symSize: 0x24 }
  - { offsetInCU: 0x1FCFC, offset: 0x1FCFC, size: 0x8, addend: 0x0, symName: __ZNSt3__119__allocator_destroyB8ue170006INS_9allocatorINS_7__stateIcEEEENS_16reverse_iteratorINS5_IPS3_EEEES8_EEvRT_T0_T1_, symObjAddr: 0x1A21C, symBinAddr: 0x10001D390, symSize: 0x70 }
  - { offsetInCU: 0x1FD61, offset: 0x1FD61, size: 0x8, addend: 0x0, symName: __ZNSt3__1neB8ue170006INS_16reverse_iteratorIPNS_7__stateIcEEEES5_EEbRKNS1_IT_EERKNS1_IT0_EE, symObjAddr: 0x1A2C8, symBinAddr: 0x10001D43C, symSize: 0x60 }
  - { offsetInCU: 0x1FDAD, offset: 0x1FDAD, size: 0x8, addend: 0x0, symName: __ZNSt3__112__to_addressB8ue170006INS_16reverse_iteratorINS1_IPNS_7__stateIcEEEEEEvEEu7__decayIDTclsr19__to_address_helperIT_EE6__callclsr3stdE7declvalIRKS7_EEEEES9_, symObjAddr: 0x1A354, symBinAddr: 0x10001D4C8, symSize: 0x24 }
  - { offsetInCU: 0x1FE0C, offset: 0x1FE0C, size: 0x8, addend: 0x0, symName: __ZNSt3__112__to_addressB8ue170006INS_4pairImPKcEEEEPT_S6_, symObjAddr: 0x1ADCC, symBinAddr: 0x10001DF40, symSize: 0x14 }
  - { offsetInCU: 0x1FE41, offset: 0x1FE41, size: 0x8, addend: 0x0, symName: __ZNSt3__142__uninitialized_allocator_move_if_noexceptB8ue170006INS_9allocatorINS_9sub_matchIPKcEEEENS_16reverse_iteratorIPS5_EES9_S9_EET2_RT_T0_T1_SA_, symObjAddr: 0x1B560, symBinAddr: 0x10001E6D4, symSize: 0x12C }
  - { offsetInCU: 0x1FEE1, offset: 0x1FEE1, size: 0x8, addend: 0x0, symName: __ZNSt3__14swapB8ue170006IPNS_9sub_matchIPKcEEEENS_9enable_ifIXaasr21is_move_constructibleIT_EE5valuesr18is_move_assignableIS7_EE5valueEvE4typeERS7_SA_, symObjAddr: 0x1B6D8, symBinAddr: 0x10001E84C, symSize: 0x3C }
  - { offsetInCU: 0x1FF32, offset: 0x1FF32, size: 0x8, addend: 0x0, symName: __ZNSt3__122__make_exception_guardB8ue170006INS_29_AllocatorDestroyRangeReverseINS_9allocatorINS_9sub_matchIPKcEEEENS_16reverse_iteratorIPS6_EEEEEENS_28__exception_guard_exceptionsIT_EESD_, symObjAddr: 0x1B714, symBinAddr: 0x10001E888, symSize: 0x4C }
  - { offsetInCU: 0x1FF68, offset: 0x1FF68, size: 0x8, addend: 0x0, symName: __ZNSt3__1neB8ue170006IPNS_9sub_matchIPKcEES5_EEbRKNS_16reverse_iteratorIT_EERKNS6_IT0_EE, symObjAddr: 0x1B7A4, symBinAddr: 0x10001E918, symSize: 0x48 }
  - { offsetInCU: 0x1FFB4, offset: 0x1FFB4, size: 0x8, addend: 0x0, symName: __ZNSt3__112__to_addressB8ue170006INS_16reverse_iteratorIPNS_9sub_matchIPKcEEEEvEEu7__decayIDTclsr19__to_address_helperIT_EE6__callclsr3stdE7declvalIRKS8_EEEEESA_, symObjAddr: 0x1B820, symBinAddr: 0x10001E994, symSize: 0x24 }
  - { offsetInCU: 0x20013, offset: 0x20013, size: 0x8, addend: 0x0, symName: __ZNSt3__119__allocator_destroyB8ue170006INS_9allocatorINS_9sub_matchIPKcEEEENS_16reverse_iteratorINS7_IPS5_EEEESA_EEvRT_T0_T1_, symObjAddr: 0x1BB00, symBinAddr: 0x10001EC74, symSize: 0x70 }
  - { offsetInCU: 0x20078, offset: 0x20078, size: 0x8, addend: 0x0, symName: __ZNSt3__1neB8ue170006INS_16reverse_iteratorIPNS_9sub_matchIPKcEEEES7_EEbRKNS1_IT_EERKNS1_IT0_EE, symObjAddr: 0x1BBAC, symBinAddr: 0x10001ED20, symSize: 0x60 }
  - { offsetInCU: 0x200C4, offset: 0x200C4, size: 0x8, addend: 0x0, symName: __ZNSt3__112__to_addressB8ue170006INS_16reverse_iteratorINS1_IPNS_9sub_matchIPKcEEEEEEvEEu7__decayIDTclsr19__to_address_helperIT_EE6__callclsr3stdE7declvalIRKS9_EEEEESB_, symObjAddr: 0x1BC0C, symBinAddr: 0x10001ED80, symSize: 0x24 }
  - { offsetInCU: 0x20123, offset: 0x20123, size: 0x8, addend: 0x0, symName: __ZNSt3__119__allocate_at_leastB8ue170006INS_9allocatorINS_4pairImPKcEEEEEENS_19__allocation_resultINS_16allocator_traitsIT_E7pointerEEERS9_m, symObjAddr: 0x1C804, symBinAddr: 0x10001F978, symSize: 0x40 }
  - { offsetInCU: 0x20166, offset: 0x20166, size: 0x8, addend: 0x0, symName: __ZNSt3__142__uninitialized_allocator_move_if_noexceptB8ue170006INS_9allocatorINS_4pairImPKcEEEENS_16reverse_iteratorIPS5_EES9_S9_EET2_RT_T0_T1_SA_, symObjAddr: 0x1CA84, symBinAddr: 0x10001FBF8, symSize: 0x12C }
  - { offsetInCU: 0x20206, offset: 0x20206, size: 0x8, addend: 0x0, symName: __ZNSt3__14swapB8ue170006IPNS_4pairImPKcEEEENS_9enable_ifIXaasr21is_move_constructibleIT_EE5valuesr18is_move_assignableIS7_EE5valueEvE4typeERS7_SA_, symObjAddr: 0x1CBFC, symBinAddr: 0x10001FD70, symSize: 0x3C }
  - { offsetInCU: 0x20257, offset: 0x20257, size: 0x8, addend: 0x0, symName: __ZNSt3__122__make_exception_guardB8ue170006INS_29_AllocatorDestroyRangeReverseINS_9allocatorINS_4pairImPKcEEEENS_16reverse_iteratorIPS6_EEEEEENS_28__exception_guard_exceptionsIT_EESD_, symObjAddr: 0x1CCE4, symBinAddr: 0x10001FE58, symSize: 0x4C }
  - { offsetInCU: 0x2028D, offset: 0x2028D, size: 0x8, addend: 0x0, symName: __ZNSt3__1neB8ue170006IPNS_4pairImPKcEES5_EEbRKNS_16reverse_iteratorIT_EERKNS6_IT0_EE, symObjAddr: 0x1CD74, symBinAddr: 0x10001FEE8, symSize: 0x48 }
  - { offsetInCU: 0x202D9, offset: 0x202D9, size: 0x8, addend: 0x0, symName: __ZNSt3__112__to_addressB8ue170006INS_16reverse_iteratorIPNS_4pairImPKcEEEEvEEu7__decayIDTclsr19__to_address_helperIT_EE6__callclsr3stdE7declvalIRKS8_EEEEESA_, symObjAddr: 0x1CDF0, symBinAddr: 0x10001FF64, symSize: 0x24 }
  - { offsetInCU: 0x20338, offset: 0x20338, size: 0x8, addend: 0x0, symName: __ZNSt3__119__allocator_destroyB8ue170006INS_9allocatorINS_4pairImPKcEEEENS_16reverse_iteratorINS7_IPS5_EEEESA_EEvRT_T0_T1_, symObjAddr: 0x1D0C8, symBinAddr: 0x10002023C, symSize: 0x70 }
  - { offsetInCU: 0x2039D, offset: 0x2039D, size: 0x8, addend: 0x0, symName: __ZNSt3__1neB8ue170006INS_16reverse_iteratorIPNS_4pairImPKcEEEES7_EEbRKNS1_IT_EERKNS1_IT0_EE, symObjAddr: 0x1D174, symBinAddr: 0x1000202E8, symSize: 0x60 }
  - { offsetInCU: 0x203E9, offset: 0x203E9, size: 0x8, addend: 0x0, symName: __ZNSt3__112__to_addressB8ue170006INS_16reverse_iteratorINS1_IPNS_4pairImPKcEEEEEEvEEu7__decayIDTclsr19__to_address_helperIT_EE6__callclsr3stdE7declvalIRKS9_EEEEESB_, symObjAddr: 0x1D1D4, symBinAddr: 0x100020348, symSize: 0x24 }
  - { offsetInCU: 0x20448, offset: 0x20448, size: 0x8, addend: 0x0, symName: __ZNSt3__122__make_exception_guardB8ue170006INS_6vectorINS_9sub_matchIPKcEENS_9allocatorIS5_EEE16__destroy_vectorEEENS_28__exception_guard_exceptionsIT_EESB_, symObjAddr: 0x1DA00, symBinAddr: 0x100020B74, symSize: 0x40 }
  - { offsetInCU: 0x2047D, offset: 0x2047D, size: 0x8, addend: 0x0, symName: __ZNSt3__130__uninitialized_allocator_copyB8ue170006INS_9allocatorINS_9sub_matchIPKcEEEEPS5_S7_S7_EET2_RT_T0_T1_S8_, symObjAddr: 0x1DB6C, symBinAddr: 0x100020CE0, symSize: 0x80 }
  - { offsetInCU: 0x2051A, offset: 0x2051A, size: 0x8, addend: 0x0, symName: __ZNSt3__114__unwrap_rangeB8ue170006IPNS_9sub_matchIPKcEES5_EENS_4pairIT0_S7_EET_S9_, symObjAddr: 0x1DBEC, symBinAddr: 0x100020D60, symSize: 0x60 }
  - { offsetInCU: 0x20566, offset: 0x20566, size: 0x8, addend: 0x0, symName: __ZNSt3__135__uninitialized_allocator_copy_implB8ue170006INS_9allocatorINS_9sub_matchIPKcEEEEPS5_S7_S7_EET2_RT_T0_T1_S8_, symObjAddr: 0x1DC4C, symBinAddr: 0x100020DC0, symSize: 0xF4 }
  - { offsetInCU: 0x20604, offset: 0x20604, size: 0x8, addend: 0x0, symName: __ZNSt3__113__unwrap_iterB8ue170006IPNS_9sub_matchIPKcEENS_18__unwrap_iter_implIS5_Lb1EEELi0EEEDTclsrT0_8__unwrapclsr3stdE7declvalIT_EEEES9_, symObjAddr: 0x1DD40, symBinAddr: 0x100020EB4, symSize: 0x24 }
  - { offsetInCU: 0x20648, offset: 0x20648, size: 0x8, addend: 0x0, symName: __ZNSt3__113__rewrap_iterB8ue170006IPNS_9sub_matchIPKcEES5_NS_18__unwrap_iter_implIS5_Lb1EEEEET_S8_T0_, symObjAddr: 0x1DD64, symBinAddr: 0x100020ED8, symSize: 0x3C }
  - { offsetInCU: 0x2069D, offset: 0x2069D, size: 0x8, addend: 0x0, symName: __ZNSt3__19make_pairB8ue170006IPNS_9sub_matchIPKcEES5_EENS_4pairINS_18__unwrap_ref_decayIT_E4typeENS7_IT0_E4typeEEEOS8_OSB_, symObjAddr: 0x1DDA0, symBinAddr: 0x100020F14, symSize: 0x38 }
  - { offsetInCU: 0x207C0, offset: 0x207C0, size: 0x8, addend: 0x0, symName: __ZNSt3__122__make_exception_guardB8ue170006INS_29_AllocatorDestroyRangeReverseINS_9allocatorINS_9sub_matchIPKcEEEEPS6_EEEENS_28__exception_guard_exceptionsIT_EESB_, symObjAddr: 0x1DE48, symBinAddr: 0x100020FBC, symSize: 0x4C }
  - { offsetInCU: 0x207F6, offset: 0x207F6, size: 0x8, addend: 0x0, symName: __ZNSt3__119__allocator_destroyB8ue170006INS_9allocatorINS_9sub_matchIPKcEEEENS_16reverse_iteratorIPS5_EES9_EEvRT_T0_T1_, symObjAddr: 0x1E0D8, symBinAddr: 0x10002124C, symSize: 0x70 }
  - { offsetInCU: 0x208AC, offset: 0x208AC, size: 0x8, addend: 0x0, symName: __ZNSt3__122__make_exception_guardB8ue170006INS_6vectorINS_4pairImPKcEENS_9allocatorIS5_EEE16__destroy_vectorEEENS_28__exception_guard_exceptionsIT_EESB_, symObjAddr: 0x1E368, symBinAddr: 0x1000214DC, symSize: 0x40 }
  - { offsetInCU: 0x208E1, offset: 0x208E1, size: 0x8, addend: 0x0, symName: __ZNSt3__130__uninitialized_allocator_copyB8ue170006INS_9allocatorINS_4pairImPKcEEEEPS5_S7_S7_EET2_RT_T0_T1_S8_, symObjAddr: 0x1E580, symBinAddr: 0x1000216F4, symSize: 0x80 }
  - { offsetInCU: 0x2097E, offset: 0x2097E, size: 0x8, addend: 0x0, symName: __ZNSt3__114__unwrap_rangeB8ue170006IPNS_4pairImPKcEES5_EENS1_IT0_S6_EET_S8_, symObjAddr: 0x1E600, symBinAddr: 0x100021774, symSize: 0x60 }
  - { offsetInCU: 0x209CA, offset: 0x209CA, size: 0x8, addend: 0x0, symName: __ZNSt3__135__uninitialized_allocator_copy_implB8ue170006INS_9allocatorINS_4pairImPKcEEEEPS5_S7_S7_EET2_RT_T0_T1_S8_, symObjAddr: 0x1E660, symBinAddr: 0x1000217D4, symSize: 0xF4 }
  - { offsetInCU: 0x20A68, offset: 0x20A68, size: 0x8, addend: 0x0, symName: __ZNSt3__113__unwrap_iterB8ue170006IPNS_4pairImPKcEENS_18__unwrap_iter_implIS5_Lb1EEELi0EEEDTclsrT0_8__unwrapclsr3stdE7declvalIT_EEEES9_, symObjAddr: 0x1E754, symBinAddr: 0x1000218C8, symSize: 0x24 }
  - { offsetInCU: 0x20AAC, offset: 0x20AAC, size: 0x8, addend: 0x0, symName: __ZNSt3__113__rewrap_iterB8ue170006IPNS_4pairImPKcEES5_NS_18__unwrap_iter_implIS5_Lb1EEEEET_S8_T0_, symObjAddr: 0x1E778, symBinAddr: 0x1000218EC, symSize: 0x3C }
  - { offsetInCU: 0x20B01, offset: 0x20B01, size: 0x8, addend: 0x0, symName: __ZNSt3__19make_pairB8ue170006IPNS_4pairImPKcEES5_EENS1_INS_18__unwrap_ref_decayIT_E4typeENS6_IT0_E4typeEEEOS7_OSA_, symObjAddr: 0x1E7B4, symBinAddr: 0x100021928, symSize: 0x38 }
  - { offsetInCU: 0x20C24, offset: 0x20C24, size: 0x8, addend: 0x0, symName: __ZNSt3__122__make_exception_guardB8ue170006INS_29_AllocatorDestroyRangeReverseINS_9allocatorINS_4pairImPKcEEEEPS6_EEEENS_28__exception_guard_exceptionsIT_EESB_, symObjAddr: 0x1E85C, symBinAddr: 0x1000219D0, symSize: 0x4C }
  - { offsetInCU: 0x20C5A, offset: 0x20C5A, size: 0x8, addend: 0x0, symName: __ZNSt3__119__allocator_destroyB8ue170006INS_9allocatorINS_4pairImPKcEEEENS_16reverse_iteratorIPS5_EES9_EEvRT_T0_T1_, symObjAddr: 0x1EAE4, symBinAddr: 0x100021C58, symSize: 0x70 }
  - { offsetInCU: 0x20D10, offset: 0x20D10, size: 0x8, addend: 0x0, symName: __ZNSt3__119__throw_regex_errorB8ue170006ILNS_15regex_constants10error_typeE11EEEvv, symObjAddr: 0x1F32C, symBinAddr: 0x1000224A0, symSize: 0x60 }
  - { offsetInCU: 0x20DA9, offset: 0x20DA9, size: 0x8, addend: 0x0, symName: __ZNSt3__119__throw_regex_errorB8ue170006ILNS_15regex_constants10error_typeE3EEEvv, symObjAddr: 0x1F6A4, symBinAddr: 0x100022818, symSize: 0x60 }
  - { offsetInCU: 0x20FCF, offset: 0x20FCF, size: 0x8, addend: 0x0, symName: __ZNSt3__119__throw_regex_errorB8ue170006ILNS_15regex_constants10error_typeE4EEEvv, symObjAddr: 0x2045C, symBinAddr: 0x1000235D0, symSize: 0x60 }
  - { offsetInCU: 0x2140E, offset: 0x2140E, size: 0x8, addend: 0x0, symName: __ZNSt3__15equalB8ue170006IPKcS2_EEbT_S3_T0_, symObjAddr: 0x215E0, symBinAddr: 0x100024754, symSize: 0x38 }
  - { offsetInCU: 0x21468, offset: 0x21468, size: 0x8, addend: 0x0, symName: __ZNSt3__15equalB8ue170006IPKcS2_NS_10__equal_toEEEbT_S4_T0_T1_, symObjAddr: 0x21618, symBinAddr: 0x10002478C, symSize: 0x5C }
  - { offsetInCU: 0x214D9, offset: 0x214D9, size: 0x8, addend: 0x0, symName: __ZNSt3__117__equal_iter_implB8ue170006IKcS1_NS_10__equal_toELi0EEEbPT_S4_PT0_RT1_, symObjAddr: 0x21674, symBinAddr: 0x1000247E8, symSize: 0x44 }
  - { offsetInCU: 0x2154C, offset: 0x2154C, size: 0x8, addend: 0x0, symName: __ZNSt3__124__constexpr_memcmp_equalB8ue170006IccEEbPKT_PKT0_NS_15__element_countE, symObjAddr: 0x216B8, symBinAddr: 0x10002482C, symSize: 0x4C }
  - { offsetInCU: 0x215B4, offset: 0x215B4, size: 0x8, addend: 0x0, symName: __ZNSt3__112__to_addressB8ue170006INS_4pairIccEEEEPT_S4_, symObjAddr: 0x22C88, symBinAddr: 0x100025DFC, symSize: 0x14 }
  - { offsetInCU: 0x215E9, offset: 0x215E9, size: 0x8, addend: 0x0, symName: __ZNSt3__112__to_addressB8ue170006INS_4pairINS_12basic_stringIcNS_11char_traitsIcEENS_9allocatorIcEEEES7_EEEEPT_SA_, symObjAddr: 0x23170, symBinAddr: 0x1000262E4, symSize: 0x14 }
  - { offsetInCU: 0x2161E, offset: 0x2161E, size: 0x8, addend: 0x0, symName: __ZNSt3__1eqB8ue170006IccccEEbRKNS_4pairIT_T0_EERKNS1_IT1_T2_EE, symObjAddr: 0x238AC, symBinAddr: 0x100026A20, symSize: 0x64 }
  - { offsetInCU: 0x2167F, offset: 0x2167F, size: 0x8, addend: 0x0, symName: __ZNSt3__1leB8ue170006IcNS_11char_traitsIcEENS_9allocatorIcEEEEbRKNS_12basic_stringIT_T0_T1_EESB_, symObjAddr: 0x23A4C, symBinAddr: 0x100026BC0, symSize: 0x34 }
  - { offsetInCU: 0x216D7, offset: 0x216D7, size: 0x8, addend: 0x0, symName: __ZNSt3__1neB8ue170006IPKcEEbRKNS_11__wrap_iterIT_EES7_, symObjAddr: 0x23B8C, symBinAddr: 0x100026D00, symSize: 0x34 }
  - { offsetInCU: 0x2171A, offset: 0x2171A, size: 0x8, addend: 0x0, symName: __ZNSt3__14findB8ue170006INS_11__wrap_iterIPKcEEcEET_S5_S5_RKT0_, symObjAddr: 0x23BC0, symBinAddr: 0x100026D34, symSize: 0x78 }
  - { offsetInCU: 0x21782, offset: 0x21782, size: 0x8, addend: 0x0, symName: __ZNSt3__18distanceB8ue170006IPcEENS_15iterator_traitsIT_E15difference_typeES3_S3_, symObjAddr: 0x23FC8, symBinAddr: 0x10002713C, symSize: 0x2C }
  - { offsetInCU: 0x217C5, offset: 0x217C5, size: 0x8, addend: 0x0, symName: __ZNSt3__110__distanceB8ue170006IPcEENS_15iterator_traitsIT_E15difference_typeES3_S3_NS_26random_access_iterator_tagE, symObjAddr: 0x24138, symBinAddr: 0x1000272AC, symSize: 0x20 }
  - { offsetInCU: 0x21812, offset: 0x21812, size: 0x8, addend: 0x0, symName: __ZNSt3__119__allocate_at_leastB8ue170006INS_9allocatorIcEEEENS_19__allocation_resultINS_16allocator_traitsIT_E7pointerEEERS5_m, symObjAddr: 0x24158, symBinAddr: 0x1000272CC, symSize: 0x40 }
  - { offsetInCU: 0x21855, offset: 0x21855, size: 0x8, addend: 0x0, symName: __ZNSt3__1eqB8ue170006IPKcEEbRKNS_11__wrap_iterIT_EES7_, symObjAddr: 0x24334, symBinAddr: 0x1000274A8, symSize: 0x48 }
  - { offsetInCU: 0x21898, offset: 0x21898, size: 0x8, addend: 0x0, symName: __ZNSt3__113__rewrap_iterB8ue170006INS_11__wrap_iterIPKcEES3_NS_18__unwrap_iter_implIS4_Lb1EEEEET_S7_T0_, symObjAddr: 0x24394, symBinAddr: 0x100027508, symSize: 0x4C }
  - { offsetInCU: 0x218ED, offset: 0x218ED, size: 0x8, addend: 0x0, symName: __ZNSt3__111__find_implB8ue170006IKccNS_10__identityELi0EEEPT_S4_S4_RKT0_RT1_, symObjAddr: 0x243E0, symBinAddr: 0x100027554, symSize: 0x78 }
  - { offsetInCU: 0x21974, offset: 0x21974, size: 0x8, addend: 0x0, symName: __ZNSt3__113__unwrap_iterB8ue170006INS_11__wrap_iterIPKcEENS_18__unwrap_iter_implIS4_Lb1EEELi0EEEDTclsrT0_8__unwrapclsr3stdE7declvalIT_EEEES8_, symObjAddr: 0x24458, symBinAddr: 0x1000275CC, symSize: 0x2C }
  - { offsetInCU: 0x21A0B, offset: 0x21A0B, size: 0x8, addend: 0x0, symName: __ZNSt3__112__to_addressB8ue170006INS_11__wrap_iterIPKcEEvEEu7__decayIDTclsr19__to_address_helperIT_EE6__callclsr3stdE7declvalIRKS5_EEEEES7_, symObjAddr: 0x24514, symBinAddr: 0x100027688, symSize: 0x24 }
  - { offsetInCU: 0x21AA8, offset: 0x21AA8, size: 0x8, addend: 0x0, symName: __ZNSt3__118__constexpr_memchrB8ue170006IKccEEPT_S3_T0_m, symObjAddr: 0x245BC, symBinAddr: 0x100027730, symSize: 0x40 }
  - { offsetInCU: 0x21B1E, offset: 0x21B1E, size: 0x8, addend: 0x0, symName: __ZNSt3__142__uninitialized_allocator_move_if_noexceptB8ue170006INS_9allocatorIcEENS_16reverse_iteratorIPcEES5_cvEET1_RT_T0_S9_S6_, symObjAddr: 0x24F98, symBinAddr: 0x10002810C, symSize: 0x78 }
  - { offsetInCU: 0x21B9B, offset: 0x21B9B, size: 0x8, addend: 0x0, symName: __ZNSt3__14swapB8ue170006IPcEENS_9enable_ifIXaasr21is_move_constructibleIT_EE5valuesr18is_move_assignableIS3_EE5valueEvE4typeERS3_S6_, symObjAddr: 0x2505C, symBinAddr: 0x1000281D0, symSize: 0x3C }
  - { offsetInCU: 0x21BEC, offset: 0x21BEC, size: 0x8, addend: 0x0, symName: __ZNSt3__14moveB8ue170006INS_16reverse_iteratorIPcEES3_EET0_T_S5_S4_, symObjAddr: 0x25144, symBinAddr: 0x1000282B8, symSize: 0x78 }
  - { offsetInCU: 0x21C46, offset: 0x21C46, size: 0x8, addend: 0x0, symName: __ZNSt3__16__moveB8ue170006INS_17_ClassicAlgPolicyENS_16reverse_iteratorIPcEES4_S4_EENS_4pairIT0_T2_EES6_T1_S7_, symObjAddr: 0x251BC, symBinAddr: 0x100028330, symSize: 0x64 }
  - { offsetInCU: 0x21CB2, offset: 0x21CB2, size: 0x8, addend: 0x0, symName: __ZNSt3__123__dispatch_copy_or_moveB8ue170006INS_17_ClassicAlgPolicyENS_11__move_loopIS1_EENS_14__move_trivialENS_16reverse_iteratorIPcEES7_S7_EENS_4pairIT2_T4_EES9_T3_SA_, symObjAddr: 0x25220, symBinAddr: 0x100028394, symSize: 0x64 }
  - { offsetInCU: 0x21D30, offset: 0x21D30, size: 0x8, addend: 0x0, symName: __ZNSt3__121__unwrap_and_dispatchB8ue170006INS_10__overloadINS_11__move_loopINS_17_ClassicAlgPolicyEEENS_14__move_trivialEEENS_16reverse_iteratorIPcEES9_S9_Li0EEENS_4pairIT0_T2_EESB_T1_SC_, symObjAddr: 0x25284, symBinAddr: 0x1000283F8, symSize: 0x12C }
  - { offsetInCU: 0x21DC0, offset: 0x21DC0, size: 0x8, addend: 0x0, symName: __ZNSt3__114__unwrap_rangeB8ue170006INS_16reverse_iteratorIPcEES3_EENS_4pairIT0_S5_EET_S7_, symObjAddr: 0x253B0, symBinAddr: 0x100028524, symSize: 0x84 }
  - { offsetInCU: 0x21EE0, offset: 0x21EE0, size: 0x8, addend: 0x0, symName: __ZNSt3__113__unwrap_iterB8ue170006INS_16reverse_iteratorIPcEENS_18__unwrap_iter_implIS3_Lb0EEELi0EEEDTclsrT0_8__unwrapclsr3stdE7declvalIT_EEEES7_, symObjAddr: 0x254D4, symBinAddr: 0x100028648, symSize: 0x44 }
  - { offsetInCU: 0x21F24, offset: 0x21F24, size: 0x8, addend: 0x0, symName: __ZNSt3__19make_pairB8ue170006INS_16reverse_iteratorIPcEES3_EENS_4pairINS_18__unwrap_ref_decayIT_E4typeENS5_IT0_E4typeEEEOS6_OS9_, symObjAddr: 0x25518, symBinAddr: 0x10002868C, symSize: 0x38 }
  - { offsetInCU: 0x21F73, offset: 0x21F73, size: 0x8, addend: 0x0, symName: __ZNSt3__114__rewrap_rangeB8ue170006INS_16reverse_iteratorIPcEES3_EET_S4_T0_, symObjAddr: 0x25550, symBinAddr: 0x1000286C4, symSize: 0x5C }
  - { offsetInCU: 0x21FBF, offset: 0x21FBF, size: 0x8, addend: 0x0, symName: __ZNSt3__113__rewrap_iterB8ue170006INS_16reverse_iteratorIPcEES3_NS_18__unwrap_iter_implIS3_Lb0EEEEET_S6_T0_, symObjAddr: 0x255AC, symBinAddr: 0x100028720, symSize: 0x74 }
  - { offsetInCU: 0x22014, offset: 0x22014, size: 0x8, addend: 0x0, symName: __ZNSt3__1neB8ue170006IPcS1_EEbRKNS_16reverse_iteratorIT_EERKNS2_IT0_EE, symObjAddr: 0x25620, symBinAddr: 0x100028794, symSize: 0x48 }
  - { offsetInCU: 0x220CC, offset: 0x220CC, size: 0x8, addend: 0x0, symName: __ZNSt3__17__is_07B8ue170006Eh, symObjAddr: 0x25CB8, symBinAddr: 0x100028E2C, symSize: 0x24 }
  - { offsetInCU: 0x220FA, offset: 0x220FA, size: 0x8, addend: 0x0, symName: __ZNSt3__17__is_89B8ue170006Eh, symObjAddr: 0x25CDC, symBinAddr: 0x100028E50, symSize: 0x24 }
  - { offsetInCU: 0x22128, offset: 0x22128, size: 0x8, addend: 0x0, symName: __ZNSt3__110__to_lowerB8ue170006Eh, symObjAddr: 0x25D00, symBinAddr: 0x100028E74, symSize: 0x1C }
  - { offsetInCU: 0x22156, offset: 0x22156, size: 0x8, addend: 0x0, symName: __ZNSt3__119__throw_regex_errorB8ue170006ILNS_15regex_constants10error_typeE5EEEvv, symObjAddr: 0x25D1C, symBinAddr: 0x100028E90, symSize: 0x60 }
  - { offsetInCU: 0x2217B, offset: 0x2217B, size: 0x8, addend: 0x0, symName: __ZNSt3__16searchB8ue170006IPKcPcEET_S4_S4_T0_S5_, symObjAddr: 0x27778, symBinAddr: 0x10002A8EC, symSize: 0x3C }
  - { offsetInCU: 0x221E3, offset: 0x221E3, size: 0x8, addend: 0x0, symName: __ZNSt3__119__throw_regex_errorB8ue170006ILNS_15regex_constants10error_typeE1EEEvv, symObjAddr: 0x277F4, symBinAddr: 0x10002A968, symSize: 0x60 }
  - { offsetInCU: 0x22208, offset: 0x22208, size: 0x8, addend: 0x0, symName: __ZNSt3__16searchB8ue170006IPKcPcNS_10__equal_toEEET_S5_S5_T0_S6_T1_, symObjAddr: 0x278D4, symBinAddr: 0x10002AA48, symSize: 0x64 }
  - { offsetInCU: 0x22295, offset: 0x22295, size: 0x8, addend: 0x0, symName: __ZNSt3__113__search_implB8ue170006IPKcS2_PcS3_NS_10__equal_toENS_10__identityES5_EENS_4pairIT_S7_EES7_T0_T1_T2_RT3_RT4_RT5_PNS_9enable_ifIXaasr37__has_random_access_iterator_categoryIS7_EE5valuesr37__has_random_access_iterator_categoryISA_EE5valueEvE4typeE, symObjAddr: 0x27938, symBinAddr: 0x10002AAAC, symSize: 0xF8 }
  - { offsetInCU: 0x2237A, offset: 0x2237A, size: 0x8, addend: 0x0, symName: __ZNSt3__19make_pairB8ue170006IRPKcS3_EENS_4pairINS_18__unwrap_ref_decayIT_E4typeENS5_IT0_E4typeEEEOS6_OS9_, symObjAddr: 0x27A30, symBinAddr: 0x10002ABA4, symSize: 0x38 }
  - { offsetInCU: 0x223C9, offset: 0x223C9, size: 0x8, addend: 0x0, symName: __ZNSt3__127__search_random_access_implB8ue170006INS_17_ClassicAlgPolicyEPKcS3_PcS4_NS_10__equal_toENS_10__identityES6_llEENS_4pairIT0_S8_EES8_T1_T2_T3_RT4_RT5_RT6_T7_T8_, symObjAddr: 0x27A68, symBinAddr: 0x10002ABDC, symSize: 0x1BC }
  - { offsetInCU: 0x224FB, offset: 0x224FB, size: 0x8, addend: 0x0, symName: __ZNSt3__18__invokeB8ue170006IRNS_10__equal_toEJRKcRcEEEDTclclsr3stdE7declvalIT_EEspclsr3stdE7declvalIT0_EEEEOS6_DpOS7_, symObjAddr: 0x27CB4, symBinAddr: 0x10002AE28, symSize: 0x38 }
  - { offsetInCU: 0x22560, offset: 0x22560, size: 0x8, addend: 0x0, symName: __ZNSt3__18__invokeB8ue170006IRNS_10__identityEJRKcEEEDTclclsr3stdE7declvalIT_EEspclsr3stdE7declvalIT0_EEEEOS5_DpOS6_, symObjAddr: 0x27CEC, symBinAddr: 0x10002AE60, symSize: 0x2C }
  - { offsetInCU: 0x225B1, offset: 0x225B1, size: 0x8, addend: 0x0, symName: __ZNSt3__18__invokeB8ue170006IRNS_10__identityEJRcEEEDTclclsr3stdE7declvalIT_EEspclsr3stdE7declvalIT0_EEEEOS4_DpOS5_, symObjAddr: 0x27D18, symBinAddr: 0x10002AE8C, symSize: 0x2C }
  - { offsetInCU: 0x22602, offset: 0x22602, size: 0x8, addend: 0x0, symName: __ZNSt3__19make_pairB8ue170006IRPKcS2_EENS_4pairINS_18__unwrap_ref_decayIT_E4typeENS5_IT0_E4typeEEEOS6_OS9_, symObjAddr: 0x27D44, symBinAddr: 0x10002AEB8, symSize: 0x38 }
  - { offsetInCU: 0x2270D, offset: 0x2270D, size: 0x8, addend: 0x0, symName: __ZNSt3__18distanceB8ue170006IPKcEENS_15iterator_traitsIT_E15difference_typeES4_S4_, symObjAddr: 0x2814C, symBinAddr: 0x10002B2C0, symSize: 0x2C }
  - { offsetInCU: 0x22750, offset: 0x22750, size: 0x8, addend: 0x0, symName: __ZNSt3__110__distanceB8ue170006IPKcEENS_15iterator_traitsIT_E15difference_typeES4_S4_NS_26random_access_iterator_tagE, symObjAddr: 0x282BC, symBinAddr: 0x10002B430, symSize: 0x20 }
  - { offsetInCU: 0x2279D, offset: 0x2279D, size: 0x8, addend: 0x0, symName: __ZNSt3__18distanceB8ue170006INS_11__wrap_iterIPcEEEENS_15iterator_traitsIT_E15difference_typeES5_S5_, symObjAddr: 0x28594, symBinAddr: 0x10002B708, symSize: 0x3C }
  - { offsetInCU: 0x227E0, offset: 0x227E0, size: 0x8, addend: 0x0, symName: __ZNSt3__110__distanceB8ue170006INS_11__wrap_iterIPcEEEENS_15iterator_traitsIT_E15difference_typeES5_S5_NS_26random_access_iterator_tagE, symObjAddr: 0x2871C, symBinAddr: 0x10002B890, symSize: 0x30 }
  - { offsetInCU: 0x2282D, offset: 0x2282D, size: 0x8, addend: 0x0, symName: __ZNSt3__1miB8ue170006IPcS1_EEDTmicldtfp_4baseEcldtfp0_4baseEERKNS_11__wrap_iterIT_EERKNS3_IT0_EE, symObjAddr: 0x2874C, symBinAddr: 0x10002B8C0, symSize: 0x40 }
  - { offsetInCU: 0x22879, offset: 0x22879, size: 0x8, addend: 0x0, symName: __ZNSt3__1neB8ue170006IPcEEbRKNS_11__wrap_iterIT_EES6_, symObjAddr: 0x2878C, symBinAddr: 0x10002B900, symSize: 0x34 }
  - { offsetInCU: 0x228BC, offset: 0x228BC, size: 0x8, addend: 0x0, symName: __ZNSt3__1eqB8ue170006IPcEEbRKNS_11__wrap_iterIT_EES6_, symObjAddr: 0x287F8, symBinAddr: 0x10002B96C, symSize: 0x48 }
  - { offsetInCU: 0x228FF, offset: 0x228FF, size: 0x8, addend: 0x0, symName: __ZNSt3__119__throw_regex_errorB8ue170006ILNS_15regex_constants10error_typeE2EEEvv, symObjAddr: 0x2888C, symBinAddr: 0x10002BA00, symSize: 0x60 }
  - { offsetInCU: 0x22924, offset: 0x22924, size: 0x8, addend: 0x0, symName: __ZNSt3__19make_pairB8ue170006INS_12basic_stringIcNS_11char_traitsIcEENS_9allocatorIcEEEES6_EENS_4pairINS_18__unwrap_ref_decayIT_E4typeENS8_IT0_E4typeEEEOS9_OSC_, symObjAddr: 0x28B68, symBinAddr: 0x10002BCDC, symSize: 0x40 }
  - { offsetInCU: 0x22973, offset: 0x22973, size: 0x8, addend: 0x0, symName: __ZNSt3__119__throw_regex_errorB8ue170006ILNS_15regex_constants10error_typeE9EEEvv, symObjAddr: 0x28CA8, symBinAddr: 0x10002BE1C, symSize: 0x60 }
  - { offsetInCU: 0x22998, offset: 0x22998, size: 0x8, addend: 0x0, symName: __ZNSt3__119__allocate_at_leastB8ue170006INS_9allocatorINS_4pairINS_12basic_stringIcNS_11char_traitsIcEENS1_IcEEEES7_EEEEEENS_19__allocation_resultINS_16allocator_traitsIT_E7pointerEEERSC_m, symObjAddr: 0x294EC, symBinAddr: 0x10002C660, symSize: 0x40 }
  - { offsetInCU: 0x229DB, offset: 0x229DB, size: 0x8, addend: 0x0, symName: __ZNSt3__142__uninitialized_allocator_move_if_noexceptB8ue170006INS_9allocatorINS_4pairINS_12basic_stringIcNS_11char_traitsIcEENS1_IcEEEES7_EEEENS_16reverse_iteratorIPS8_EESC_SC_EET2_RT_T0_T1_SD_, symObjAddr: 0x296A4, symBinAddr: 0x10002C818, symSize: 0x12C }
  - { offsetInCU: 0x22A7B, offset: 0x22A7B, size: 0x8, addend: 0x0, symName: __ZNSt3__14swapB8ue170006IPNS_4pairINS_12basic_stringIcNS_11char_traitsIcEENS_9allocatorIcEEEES7_EEEENS_9enable_ifIXaasr21is_move_constructibleIT_EE5valuesr18is_move_assignableISB_EE5valueEvE4typeERSB_SE_, symObjAddr: 0x2981C, symBinAddr: 0x10002C990, symSize: 0x3C }
  - { offsetInCU: 0x22ACC, offset: 0x22ACC, size: 0x8, addend: 0x0, symName: __ZNSt3__122__make_exception_guardB8ue170006INS_29_AllocatorDestroyRangeReverseINS_9allocatorINS_4pairINS_12basic_stringIcNS_11char_traitsIcEENS2_IcEEEES8_EEEENS_16reverse_iteratorIPS9_EEEEEENS_28__exception_guard_exceptionsIT_EESG_, symObjAddr: 0x29920, symBinAddr: 0x10002CA94, symSize: 0x4C }
  - { offsetInCU: 0x22B02, offset: 0x22B02, size: 0x8, addend: 0x0, symName: __ZNSt3__1neB8ue170006IPNS_4pairINS_12basic_stringIcNS_11char_traitsIcEENS_9allocatorIcEEEES7_EES9_EEbRKNS_16reverse_iteratorIT_EERKNSA_IT0_EE, symObjAddr: 0x299B0, symBinAddr: 0x10002CB24, symSize: 0x48 }
  - { offsetInCU: 0x22B4E, offset: 0x22B4E, size: 0x8, addend: 0x0, symName: __ZNSt3__112__to_addressB8ue170006INS_16reverse_iteratorIPNS_4pairINS_12basic_stringIcNS_11char_traitsIcEENS_9allocatorIcEEEES8_EEEEvEEu7__decayIDTclsr19__to_address_helperIT_EE6__callclsr3stdE7declvalIRKSC_EEEEESE_, symObjAddr: 0x299F8, symBinAddr: 0x10002CB6C, symSize: 0x24 }
  - { offsetInCU: 0x22BAD, offset: 0x22BAD, size: 0x8, addend: 0x0, symName: __ZNSt3__119__allocator_destroyB8ue170006INS_9allocatorINS_4pairINS_12basic_stringIcNS_11char_traitsIcEENS1_IcEEEES7_EEEENS_16reverse_iteratorINSA_IPS8_EEEESD_EEvRT_T0_T1_, symObjAddr: 0x29CA8, symBinAddr: 0x10002CE1C, symSize: 0x70 }
  - { offsetInCU: 0x22C12, offset: 0x22C12, size: 0x8, addend: 0x0, symName: __ZNSt3__1neB8ue170006INS_16reverse_iteratorIPNS_4pairINS_12basic_stringIcNS_11char_traitsIcEENS_9allocatorIcEEEES8_EEEESB_EEbRKNS1_IT_EERKNS1_IT0_EE, symObjAddr: 0x29D54, symBinAddr: 0x10002CEC8, symSize: 0x60 }
  - { offsetInCU: 0x22C5E, offset: 0x22C5E, size: 0x8, addend: 0x0, symName: __ZNSt3__112__to_addressB8ue170006INS_16reverse_iteratorINS1_IPNS_4pairINS_12basic_stringIcNS_11char_traitsIcEENS_9allocatorIcEEEES8_EEEEEEvEEu7__decayIDTclsr19__to_address_helperIT_EE6__callclsr3stdE7declvalIRKSD_EEEEESF_, symObjAddr: 0x29DB4, symBinAddr: 0x10002CF28, symSize: 0x24 }
  - { offsetInCU: 0x22CBD, offset: 0x22CBD, size: 0x8, addend: 0x0, symName: __ZNSt3__19make_pairB8ue170006IccEENS_4pairINS_18__unwrap_ref_decayIT_E4typeENS2_IT0_E4typeEEEOS3_OS6_, symObjAddr: 0x2A20C, symBinAddr: 0x10002D380, symSize: 0x34 }
  - { offsetInCU: 0x22D0C, offset: 0x22D0C, size: 0x8, addend: 0x0, symName: __ZNSt3__19make_pairB8ue170006IRcS1_EENS_4pairINS_18__unwrap_ref_decayIT_E4typeENS3_IT0_E4typeEEEOS4_OS7_, symObjAddr: 0x2A240, symBinAddr: 0x10002D3B4, symSize: 0x34 }
  - { offsetInCU: 0x22D5B, offset: 0x22D5B, size: 0x8, addend: 0x0, symName: __ZNSt3__119__allocate_at_leastB8ue170006INS_9allocatorINS_4pairIccEEEEEENS_19__allocation_resultINS_16allocator_traitsIT_E7pointerEEERS7_m, symObjAddr: 0x2A9BC, symBinAddr: 0x10002DB30, symSize: 0x40 }
  - { offsetInCU: 0x22D9E, offset: 0x22D9E, size: 0x8, addend: 0x0, symName: __ZNSt3__142__uninitialized_allocator_move_if_noexceptB8ue170006INS_9allocatorINS_4pairIccEEEENS_16reverse_iteratorIPS3_EES7_S7_EET2_RT_T0_T1_S8_, symObjAddr: 0x2AB70, symBinAddr: 0x10002DCE4, symSize: 0x12C }
  - { offsetInCU: 0x22E3E, offset: 0x22E3E, size: 0x8, addend: 0x0, symName: __ZNSt3__14swapB8ue170006IPNS_4pairIccEEEENS_9enable_ifIXaasr21is_move_constructibleIT_EE5valuesr18is_move_assignableIS5_EE5valueEvE4typeERS5_S8_, symObjAddr: 0x2ACE8, symBinAddr: 0x10002DE5C, symSize: 0x3C }
  - { offsetInCU: 0x22E8F, offset: 0x22E8F, size: 0x8, addend: 0x0, symName: __ZNSt3__122__make_exception_guardB8ue170006INS_29_AllocatorDestroyRangeReverseINS_9allocatorINS_4pairIccEEEENS_16reverse_iteratorIPS4_EEEEEENS_28__exception_guard_exceptionsIT_EESB_, symObjAddr: 0x2ADD0, symBinAddr: 0x10002DF44, symSize: 0x4C }
  - { offsetInCU: 0x22EC5, offset: 0x22EC5, size: 0x8, addend: 0x0, symName: __ZNSt3__1neB8ue170006IPNS_4pairIccEES3_EEbRKNS_16reverse_iteratorIT_EERKNS4_IT0_EE, symObjAddr: 0x2AE60, symBinAddr: 0x10002DFD4, symSize: 0x48 }
  - { offsetInCU: 0x22F11, offset: 0x22F11, size: 0x8, addend: 0x0, symName: __ZNSt3__112__to_addressB8ue170006INS_16reverse_iteratorIPNS_4pairIccEEEEvEEu7__decayIDTclsr19__to_address_helperIT_EE6__callclsr3stdE7declvalIRKS6_EEEEES8_, symObjAddr: 0x2AEA8, symBinAddr: 0x10002E01C, symSize: 0x24 }
  - { offsetInCU: 0x22F70, offset: 0x22F70, size: 0x8, addend: 0x0, symName: __ZNSt3__119__allocator_destroyB8ue170006INS_9allocatorINS_4pairIccEEEENS_16reverse_iteratorINS5_IPS3_EEEES8_EEvRT_T0_T1_, symObjAddr: 0x2B158, symBinAddr: 0x10002E2CC, symSize: 0x70 }
  - { offsetInCU: 0x22FD5, offset: 0x22FD5, size: 0x8, addend: 0x0, symName: __ZNSt3__1neB8ue170006INS_16reverse_iteratorIPNS_4pairIccEEEES5_EEbRKNS1_IT_EERKNS1_IT0_EE, symObjAddr: 0x2B204, symBinAddr: 0x10002E378, symSize: 0x60 }
  - { offsetInCU: 0x23021, offset: 0x23021, size: 0x8, addend: 0x0, symName: __ZNSt3__112__to_addressB8ue170006INS_16reverse_iteratorINS1_IPNS_4pairIccEEEEEEvEEu7__decayIDTclsr19__to_address_helperIT_EE6__callclsr3stdE7declvalIRKS7_EEEEES9_, symObjAddr: 0x2B264, symBinAddr: 0x10002E3D8, symSize: 0x24 }
  - { offsetInCU: 0x2318C, offset: 0x2318C, size: 0x8, addend: 0x0, symName: __ZNSt3__119__throw_regex_errorB8ue170006ILNS_15regex_constants10error_typeE8EEEvv, symObjAddr: 0x2BE7C, symBinAddr: 0x10002EFF0, symSize: 0x60 }
  - { offsetInCU: 0x231B1, offset: 0x231B1, size: 0x8, addend: 0x0, symName: __ZNSt3__119__throw_regex_errorB8ue170006ILNS_15regex_constants10error_typeE7EEEvv, symObjAddr: 0x2BEDC, symBinAddr: 0x10002F050, symSize: 0x60 }
  - { offsetInCU: 0x23B11, offset: 0x23B11, size: 0x8, addend: 0x0, symName: __ZNSt3__119__throw_regex_errorB8ue170006ILNS_15regex_constants10error_typeE15EEEvv, symObjAddr: 0x2CF18, symBinAddr: 0x10003008C, symSize: 0x60 }
  - { offsetInCU: 0x23BAA, offset: 0x23BAA, size: 0x8, addend: 0x0, symName: __ZNSt3__14findB8ue170006IPKccEET_S3_S3_RKT0_, symObjAddr: 0x2E650, symBinAddr: 0x1000317C4, symSize: 0x60 }
  - { offsetInCU: 0x23C12, offset: 0x23C12, size: 0x8, addend: 0x0, symName: __ZNSt3__112regex_searchB8ue170006IPKcNS_9allocatorINS_9sub_matchINS_11__wrap_iterIS2_EEEEEEcNS_12regex_traitsIcEEEEbNS5_IT_EESC_RNS_13match_resultsISC_T0_EERKNS_11basic_regexIT1_T2_EENS_15regex_constants15match_flag_typeE, symObjAddr: 0x2E82C, symBinAddr: 0x1000319A0, symSize: 0x124 }
  - { offsetInCU: 0x24065, offset: 0x24065, size: 0x8, addend: 0x0, symName: __ZNSt3__14swapB8ue170006IPPNS_7__stateIcEEEENS_9enable_ifIXaasr21is_move_constructibleIT_EE5valuesr18is_move_assignableIS6_EE5valueEvE4typeERS6_S9_, symObjAddr: 0x32508, symBinAddr: 0x10003567C, symSize: 0x3C }
  - { offsetInCU: 0x240B6, offset: 0x240B6, size: 0x8, addend: 0x0, symName: __ZNSt3__14moveB8ue170006IPPNS_7__stateIcEES4_EET0_T_S6_S5_, symObjAddr: 0x32638, symBinAddr: 0x1000357AC, symSize: 0x40 }
  - { offsetInCU: 0x24110, offset: 0x24110, size: 0x8, addend: 0x0, symName: __ZNSt3__112__to_addressB8ue170006IPNS_7__stateIcEEEEPT_S5_, symObjAddr: 0x32740, symBinAddr: 0x1000358B4, symSize: 0x14 }
  - { offsetInCU: 0x24145, offset: 0x24145, size: 0x8, addend: 0x0, symName: __ZNSt3__16__moveB8ue170006INS_17_ClassicAlgPolicyEPPNS_7__stateIcEES5_S5_EENS_4pairIT0_T2_EES7_T1_S8_, symObjAddr: 0x32754, symBinAddr: 0x1000358C8, symSize: 0x44 }
  - { offsetInCU: 0x241B1, offset: 0x241B1, size: 0x8, addend: 0x0, symName: __ZNSt3__123__dispatch_copy_or_moveB8ue170006INS_17_ClassicAlgPolicyENS_11__move_loopIS1_EENS_14__move_trivialEPPNS_7__stateIcEES8_S8_EENS_4pairIT2_T4_EESA_T3_SB_, symObjAddr: 0x32798, symBinAddr: 0x10003590C, symSize: 0x44 }
  - { offsetInCU: 0x2422F, offset: 0x2422F, size: 0x8, addend: 0x0, symName: __ZNSt3__121__unwrap_and_dispatchB8ue170006INS_10__overloadINS_11__move_loopINS_17_ClassicAlgPolicyEEENS_14__move_trivialEEEPPNS_7__stateIcEESA_SA_Li0EEENS_4pairIT0_T2_EESC_T1_SD_, symObjAddr: 0x327DC, symBinAddr: 0x100035950, symSize: 0xB4 }
  - { offsetInCU: 0x242BD, offset: 0x242BD, size: 0x8, addend: 0x0, symName: __ZNSt3__114__unwrap_rangeB8ue170006IPPNS_7__stateIcEES4_EENS_4pairIT0_S6_EET_S8_, symObjAddr: 0x32890, symBinAddr: 0x100035A04, symSize: 0x60 }
  - { offsetInCU: 0x24481, offset: 0x24481, size: 0x8, addend: 0x0, symName: __ZNSt3__113__unwrap_iterB8ue170006IPPNS_7__stateIcEENS_18__unwrap_iter_implIS4_Lb1EEELi0EEEDTclsrT0_8__unwrapclsr3stdE7declvalIT_EEEES8_, symObjAddr: 0x32938, symBinAddr: 0x100035AAC, symSize: 0x24 }
  - { offsetInCU: 0x244C5, offset: 0x244C5, size: 0x8, addend: 0x0, symName: __ZNSt3__19make_pairB8ue170006IPPNS_7__stateIcEES4_EENS_4pairINS_18__unwrap_ref_decayIT_E4typeENS6_IT0_E4typeEEEOS7_OSA_, symObjAddr: 0x3295C, symBinAddr: 0x100035AD0, symSize: 0x38 }
  - { offsetInCU: 0x24514, offset: 0x24514, size: 0x8, addend: 0x0, symName: __ZNSt3__114__rewrap_rangeB8ue170006IPPNS_7__stateIcEES4_EET_S5_T0_, symObjAddr: 0x32994, symBinAddr: 0x100035B08, symSize: 0x2C }
  - { offsetInCU: 0x24560, offset: 0x24560, size: 0x8, addend: 0x0, symName: __ZNSt3__113__rewrap_iterB8ue170006IPPNS_7__stateIcEES4_NS_18__unwrap_iter_implIS4_Lb1EEEEET_S7_T0_, symObjAddr: 0x329C0, symBinAddr: 0x100035B34, symSize: 0x3C }
  - { offsetInCU: 0x245B5, offset: 0x245B5, size: 0x8, addend: 0x0, symName: __ZNSt3__119__copy_trivial_implB8ue170006IPNS_7__stateIcEES3_EENS_4pairIPT_PT0_EES6_S6_S8_, symObjAddr: 0x329FC, symBinAddr: 0x100035B70, symSize: 0x80 }
  - { offsetInCU: 0x2461D, offset: 0x2461D, size: 0x8, addend: 0x0, symName: __ZNSt3__119__constexpr_memmoveB8ue170006IPNS_7__stateIcEES3_Li0EEEPT_S5_PT0_NS_15__element_countE, symObjAddr: 0x32A7C, symBinAddr: 0x100035BF0, symSize: 0x64 }
  - { offsetInCU: 0x2468B, offset: 0x2468B, size: 0x8, addend: 0x0, symName: __ZNSt3__19make_pairB8ue170006IRPPNS_7__stateIcEES4_EENS_4pairINS_18__unwrap_ref_decayIT_E4typeENS7_IT0_E4typeEEEOS8_OSB_, symObjAddr: 0x32AE0, symBinAddr: 0x100035C54, symSize: 0x38 }
  - { offsetInCU: 0x2472D, offset: 0x2472D, size: 0x8, addend: 0x0, symName: __ZNSt3__18distanceB8ue170006INS_13move_iteratorIPPNS_7__stateIcEEEEEENS_15iterator_traitsIT_E15difference_typeES8_S8_, symObjAddr: 0x32D48, symBinAddr: 0x100035EBC, symSize: 0x3C }
  - { offsetInCU: 0x24770, offset: 0x24770, size: 0x8, addend: 0x0, symName: __ZNSt3__110__distanceB8ue170006INS_13move_iteratorIPPNS_7__stateIcEEEEEENS_15iterator_traitsIT_E15difference_typeES8_S8_NS_26random_access_iterator_tagE, symObjAddr: 0x32F4C, symBinAddr: 0x1000360C0, symSize: 0x30 }
  - { offsetInCU: 0x247BD, offset: 0x247BD, size: 0x8, addend: 0x0, symName: __ZNSt3__1miB8ue170006IPPNS_7__stateIcEES4_EEDTmicldtfp_4baseEcldtfp0_4baseEERKNS_13move_iteratorIT_EERKNS6_IT0_EE, symObjAddr: 0x32F7C, symBinAddr: 0x1000360F0, symSize: 0x48 }
  - { offsetInCU: 0x2480C, offset: 0x2480C, size: 0x8, addend: 0x0, symName: __ZNSt3__113move_backwardB8ue170006IPPNS_7__stateIcEES4_EET0_T_S6_S5_, symObjAddr: 0x33084, symBinAddr: 0x1000361F8, symSize: 0x40 }
  - { offsetInCU: 0x24866, offset: 0x24866, size: 0x8, addend: 0x0, symName: __ZNSt3__115__move_backwardB8ue170006INS_17_ClassicAlgPolicyEPPNS_7__stateIcEES5_S5_EENS_4pairIT0_T2_EES7_T1_S8_, symObjAddr: 0x330C4, symBinAddr: 0x100036238, symSize: 0x44 }
  - { offsetInCU: 0x248D2, offset: 0x248D2, size: 0x8, addend: 0x0, symName: __ZNSt3__123__dispatch_copy_or_moveB8ue170006INS_17_ClassicAlgPolicyENS_20__move_backward_loopIS1_EENS_23__move_backward_trivialEPPNS_7__stateIcEES8_S8_EENS_4pairIT2_T4_EESA_T3_SB_, symObjAddr: 0x33108, symBinAddr: 0x10003627C, symSize: 0x44 }
  - { offsetInCU: 0x24950, offset: 0x24950, size: 0x8, addend: 0x0, symName: __ZNSt3__121__unwrap_and_dispatchB8ue170006INS_10__overloadINS_20__move_backward_loopINS_17_ClassicAlgPolicyEEENS_23__move_backward_trivialEEEPPNS_7__stateIcEESA_SA_Li0EEENS_4pairIT0_T2_EESC_T1_SD_, symObjAddr: 0x3314C, symBinAddr: 0x1000362C0, symSize: 0xB4 }
  - { offsetInCU: 0x24A24, offset: 0x24A24, size: 0x8, addend: 0x0, symName: __ZNSt3__128__copy_backward_trivial_implB8ue170006IPNS_7__stateIcEES3_EENS_4pairIPT_PT0_EES6_S6_S8_, symObjAddr: 0x33248, symBinAddr: 0x1000363BC, symSize: 0x90 }
  - { offsetInCU: 0x24A8C, offset: 0x24A8C, size: 0x8, addend: 0x0, symName: __ZNSt3__19make_pairB8ue170006IRPPNS_7__stateIcEES5_EENS_4pairINS_18__unwrap_ref_decayIT_E4typeENS7_IT0_E4typeEEEOS8_OSB_, symObjAddr: 0x332D8, symBinAddr: 0x10003644C, symSize: 0x38 }
  - { offsetInCU: 0x24ADB, offset: 0x24ADB, size: 0x8, addend: 0x0, symName: __ZNSt3__119__allocate_at_leastB8ue170006INS_9allocatorIPNS_7__stateIcEEEEEENS_19__allocation_resultINS_16allocator_traitsIT_E7pointerEEERS8_m, symObjAddr: 0x3350C, symBinAddr: 0x100036680, symSize: 0x40 }
  - { offsetInCU: 0x24B1E, offset: 0x24B1E, size: 0x8, addend: 0x0, symName: __ZNSt3__1neB8ue170006ERKNS_16__deque_iteratorINS_7__stateIcEEPS2_RS2_PS3_lLl42EEES8_, symObjAddr: 0x340AC, symBinAddr: 0x100037220, symSize: 0x34 }
  - { offsetInCU: 0x24B5B, offset: 0x24B5B, size: 0x8, addend: 0x0, symName: __ZNSt3__1eqB8ue170006ERKNS_16__deque_iteratorINS_7__stateIcEEPS2_RS2_PS3_lLl42EEES8_, symObjAddr: 0x34150, symBinAddr: 0x1000372C4, symSize: 0x30 }
  - { offsetInCU: 0x24B98, offset: 0x24B98, size: 0x8, addend: 0x0, symName: __ZNSt3__18distanceB8ue170006IPNS_9sub_matchIPKcEEEENS_15iterator_traitsIT_E15difference_typeES7_S7_, symObjAddr: 0x34FB4, symBinAddr: 0x100038128, symSize: 0x2C }
  - { offsetInCU: 0x24BDB, offset: 0x24BDB, size: 0x8, addend: 0x0, symName: __ZNSt3__14nextB8ue170006IPNS_9sub_matchIPKcEEEENS_9enable_ifIXsr29__has_input_iterator_categoryIT_EE5valueES7_E4typeES7_NS_15iterator_traitsIS7_E15difference_typeE, symObjAddr: 0x34FE0, symBinAddr: 0x100038154, symSize: 0x34 }
  - { offsetInCU: 0x24C1E, offset: 0x24C1E, size: 0x8, addend: 0x0, symName: __ZNSt3__14copyB8ue170006IPNS_9sub_matchIPKcEES5_EET0_T_S7_S6_, symObjAddr: 0x35014, symBinAddr: 0x100038188, symSize: 0x40 }
  - { offsetInCU: 0x24C78, offset: 0x24C78, size: 0x8, addend: 0x0, symName: __ZNSt3__16__copyB8ue170006INS_17_ClassicAlgPolicyEPNS_9sub_matchIPKcEES6_S6_EENS_4pairIT0_T2_EES8_T1_S9_, symObjAddr: 0x35054, symBinAddr: 0x1000381C8, symSize: 0x44 }
  - { offsetInCU: 0x24CE4, offset: 0x24CE4, size: 0x8, addend: 0x0, symName: __ZNSt3__19__advanceB8ue170006IPNS_9sub_matchIPKcEEEEvRT_NS_15iterator_traitsIS6_E15difference_typeENS_26random_access_iterator_tagE, symObjAddr: 0x350D0, symBinAddr: 0x100038244, symSize: 0x30 }
  - { offsetInCU: 0x24D2D, offset: 0x24D2D, size: 0x8, addend: 0x0, symName: __ZNSt3__123__dispatch_copy_or_moveB8ue170006INS_17_ClassicAlgPolicyENS_11__copy_loopIS1_EENS_14__copy_trivialEPNS_9sub_matchIPKcEES9_S9_EENS_4pairIT2_T4_EESB_T3_SC_, symObjAddr: 0x35100, symBinAddr: 0x100038274, symSize: 0x44 }
  - { offsetInCU: 0x24DAB, offset: 0x24DAB, size: 0x8, addend: 0x0, symName: __ZNSt3__121__unwrap_and_dispatchB8ue170006INS_10__overloadINS_11__copy_loopINS_17_ClassicAlgPolicyEEENS_14__copy_trivialEEEPNS_9sub_matchIPKcEESB_SB_Li0EEENS_4pairIT0_T2_EESD_T1_SE_, symObjAddr: 0x35144, symBinAddr: 0x1000382B8, symSize: 0xB4 }
  - { offsetInCU: 0x24ECA, offset: 0x24ECA, size: 0x8, addend: 0x0, symName: __ZNSt3__114__rewrap_rangeB8ue170006IPNS_9sub_matchIPKcEES5_EET_S6_T0_, symObjAddr: 0x35280, symBinAddr: 0x1000383F4, symSize: 0x2C }
  - { offsetInCU: 0x24F16, offset: 0x24F16, size: 0x8, addend: 0x0, symName: __ZNSt3__110__distanceB8ue170006IPNS_9sub_matchIPKcEEEENS_15iterator_traitsIT_E15difference_typeES7_S7_NS_26random_access_iterator_tagE, symObjAddr: 0x352AC, symBinAddr: 0x100038420, symSize: 0x28 }
  - { offsetInCU: 0x24F63, offset: 0x24F63, size: 0x8, addend: 0x0, symName: __ZNSt3__18distanceB8ue170006IPNS_4pairImPKcEEEENS_15iterator_traitsIT_E15difference_typeES7_S7_, symObjAddr: 0x354D4, symBinAddr: 0x100038648, symSize: 0x2C }
  - { offsetInCU: 0x24FA6, offset: 0x24FA6, size: 0x8, addend: 0x0, symName: __ZNSt3__14nextB8ue170006IPNS_4pairImPKcEEEENS_9enable_ifIXsr29__has_input_iterator_categoryIT_EE5valueES7_E4typeES7_NS_15iterator_traitsIS7_E15difference_typeE, symObjAddr: 0x35500, symBinAddr: 0x100038674, symSize: 0x34 }
  - { offsetInCU: 0x24FE9, offset: 0x24FE9, size: 0x8, addend: 0x0, symName: __ZNSt3__14copyB8ue170006IPNS_4pairImPKcEES5_EET0_T_S7_S6_, symObjAddr: 0x35534, symBinAddr: 0x1000386A8, symSize: 0x40 }
  - { offsetInCU: 0x25043, offset: 0x25043, size: 0x8, addend: 0x0, symName: __ZNSt3__16__copyB8ue170006INS_17_ClassicAlgPolicyEPNS_4pairImPKcEES6_S6_EENS2_IT0_T2_EES7_T1_S8_, symObjAddr: 0x35574, symBinAddr: 0x1000386E8, symSize: 0x44 }
  - { offsetInCU: 0x250AF, offset: 0x250AF, size: 0x8, addend: 0x0, symName: __ZNSt3__19__advanceB8ue170006IPNS_4pairImPKcEEEEvRT_NS_15iterator_traitsIS6_E15difference_typeENS_26random_access_iterator_tagE, symObjAddr: 0x35684, symBinAddr: 0x1000387F8, symSize: 0x28 }
  - { offsetInCU: 0x250F8, offset: 0x250F8, size: 0x8, addend: 0x0, symName: __ZNSt3__123__dispatch_copy_or_moveB8ue170006INS_17_ClassicAlgPolicyENS_11__copy_loopIS1_EENS_14__copy_trivialEPNS_4pairImPKcEES9_S9_EENS5_IT2_T4_EESA_T3_SB_, symObjAddr: 0x356AC, symBinAddr: 0x100038820, symSize: 0x44 }
  - { offsetInCU: 0x25176, offset: 0x25176, size: 0x8, addend: 0x0, symName: __ZNSt3__121__unwrap_and_dispatchB8ue170006INS_10__overloadINS_11__copy_loopINS_17_ClassicAlgPolicyEEENS_14__copy_trivialEEEPNS_4pairImPKcEESB_SB_Li0EEENS7_IT0_T2_EESC_T1_SD_, symObjAddr: 0x356F0, symBinAddr: 0x100038864, symSize: 0xB4 }
  - { offsetInCU: 0x25204, offset: 0x25204, size: 0x8, addend: 0x0, symName: __ZNSt3__114__rewrap_rangeB8ue170006IPNS_4pairImPKcEES5_EET_S6_T0_, symObjAddr: 0x3582C, symBinAddr: 0x1000389A0, symSize: 0x2C }
  - { offsetInCU: 0x25250, offset: 0x25250, size: 0x8, addend: 0x0, symName: __ZNSt3__110__distanceB8ue170006IPNS_4pairImPKcEEEENS_15iterator_traitsIT_E15difference_typeES7_S7_NS_26random_access_iterator_tagE, symObjAddr: 0x358CC, symBinAddr: 0x100038A40, symSize: 0x28 }
  - { offsetInCU: 0x2529D, offset: 0x2529D, size: 0x8, addend: 0x0, symName: __ZNSt3__14nextB8ue170006INS_11__wrap_iterIPKcEEEENS_9enable_ifIXsr29__has_input_iterator_categoryIT_EE5valueES6_E4typeES6_NS_15iterator_traitsIS6_E15difference_typeE, symObjAddr: 0x359D4, symBinAddr: 0x100038B48, symSize: 0x3C }
  - { offsetInCU: 0x252E0, offset: 0x252E0, size: 0x8, addend: 0x0, symName: __ZNSt3__142__uninitialized_allocator_move_if_noexceptB8ue170006INS_9allocatorINS_9sub_matchINS_11__wrap_iterIPKcEEEEEENS_16reverse_iteratorIPS7_EESB_SB_EET2_RT_T0_T1_SC_, symObjAddr: 0x362D4, symBinAddr: 0x100039448, symSize: 0x11C }
  - { offsetInCU: 0x25380, offset: 0x25380, size: 0x8, addend: 0x0, symName: __ZNSt3__14swapB8ue170006IPNS_9sub_matchINS_11__wrap_iterIPKcEEEEEENS_9enable_ifIXaasr21is_move_constructibleIT_EE5valuesr18is_move_assignableIS9_EE5valueEvE4typeERS9_SC_, symObjAddr: 0x363F0, symBinAddr: 0x100039564, symSize: 0x3C }
  - { offsetInCU: 0x253D1, offset: 0x253D1, size: 0x8, addend: 0x0, symName: __ZNSt3__122__make_exception_guardB8ue170006INS_29_AllocatorDestroyRangeReverseINS_9allocatorINS_9sub_matchINS_11__wrap_iterIPKcEEEEEENS_16reverse_iteratorIPS8_EEEEEENS_28__exception_guard_exceptionsIT_EESF_, symObjAddr: 0x3642C, symBinAddr: 0x1000395A0, symSize: 0x4C }
  - { offsetInCU: 0x25407, offset: 0x25407, size: 0x8, addend: 0x0, symName: __ZNSt3__119__allocator_destroyB8ue170006INS_9allocatorINS_9sub_matchINS_11__wrap_iterIPKcEEEEEENS_16reverse_iteratorINS9_IPS7_EEEESC_EEvRT_T0_T1_, symObjAddr: 0x36708, symBinAddr: 0x10003987C, symSize: 0x70 }
  - { offsetInCU: 0x2546C, offset: 0x2546C, size: 0x8, addend: 0x0, symName: __ZNSt3__1neB8ue170006INS_16reverse_iteratorIPNS_9sub_matchINS_11__wrap_iterIPKcEEEEEES9_EEbRKNS1_IT_EERKNS1_IT0_EE, symObjAddr: 0x367B4, symBinAddr: 0x100039928, symSize: 0x60 }
  - { offsetInCU: 0x254B8, offset: 0x254B8, size: 0x8, addend: 0x0, symName: __ZNSt3__112__to_addressB8ue170006INS_16reverse_iteratorINS1_IPNS_9sub_matchINS_11__wrap_iterIPKcEEEEEEEEvEEu7__decayIDTclsr19__to_address_helperIT_EE6__callclsr3stdE7declvalIRKSB_EEEEESD_, symObjAddr: 0x36814, symBinAddr: 0x100039988, symSize: 0x24 }
  - { offsetInCU: 0x25517, offset: 0x25517, size: 0x8, addend: 0x0, symName: __ZNSt3__19__advanceB8ue170006INS_11__wrap_iterIPKcEEEEvRT_NS_15iterator_traitsIS5_E15difference_typeENS_26random_access_iterator_tagE, symObjAddr: 0x36C5C, symBinAddr: 0x100039DD0, symSize: 0x2C }
  - { offsetInCU: 0x25560, offset: 0x25560, size: 0x8, addend: 0x0, symName: __ZNSt3__1eqB8ue170006INS_11__wrap_iterIPKcEEEEbRKNS_9sub_matchIT_EES9_, symObjAddr: 0x36E88, symBinAddr: 0x100039FFC, symSize: 0x38 }
  - { offsetInCU: 0x255A6, offset: 0x255A6, size: 0x8, addend: 0x0, symName: __ZNSt3__18distanceB8ue170006INS_11__wrap_iterIPKcEEEENS_15iterator_traitsIT_E15difference_typeES6_S6_, symObjAddr: 0x37158, symBinAddr: 0x10003A2CC, symSize: 0x3C }
  - { offsetInCU: 0x255E9, offset: 0x255E9, size: 0x8, addend: 0x0, symName: __ZNSt3__110__distanceB8ue170006INS_11__wrap_iterIPKcEEEENS_15iterator_traitsIT_E15difference_typeES6_S6_NS_26random_access_iterator_tagE, symObjAddr: 0x372E0, symBinAddr: 0x10003A454, symSize: 0x30 }
  - { offsetInCU: 0x25636, offset: 0x25636, size: 0x8, addend: 0x0, symName: __ZNSt3__1miB8ue170006IPKcS2_EEDTmicldtfp_4baseEcldtfp0_4baseEERKNS_11__wrap_iterIT_EERKNS4_IT0_EE, symObjAddr: 0x37310, symBinAddr: 0x10003A484, symSize: 0x40 }
  - { offsetInCU: 0x25682, offset: 0x25682, size: 0x8, addend: 0x0, symName: __ZNSt3__122__make_exception_guardB8ue170006INS_6vectorINS_12basic_stringIcNS_11char_traitsIcEENS_9allocatorIcEEEENS5_IS7_EEE16__destroy_vectorEEENS_28__exception_guard_exceptionsIT_EESC_, symObjAddr: 0x3789C, symBinAddr: 0x10003AA10, symSize: 0x40 }
  - { offsetInCU: 0x256B7, offset: 0x256B7, size: 0x8, addend: 0x0, symName: __ZNSt3__130__uninitialized_allocator_copyB8ue170006INS_9allocatorINS_12basic_stringIcNS_11char_traitsIcEENS1_IcEEEEEEPS6_S8_S8_EET2_RT_T0_T1_S9_, symObjAddr: 0x37ABC, symBinAddr: 0x10003AC30, symSize: 0x80 }
  - { offsetInCU: 0x25754, offset: 0x25754, size: 0x8, addend: 0x0, symName: __ZNSt3__114__unwrap_rangeB8ue170006IPNS_12basic_stringIcNS_11char_traitsIcEENS_9allocatorIcEEEES7_EENS_4pairIT0_S9_EET_SB_, symObjAddr: 0x37B3C, symBinAddr: 0x10003ACB0, symSize: 0x60 }
  - { offsetInCU: 0x257A0, offset: 0x257A0, size: 0x8, addend: 0x0, symName: __ZNSt3__135__uninitialized_allocator_copy_implB8ue170006INS_9allocatorINS_12basic_stringIcNS_11char_traitsIcEENS1_IcEEEEEEPS6_S8_S8_EET2_RT_T0_T1_S9_, symObjAddr: 0x37B9C, symBinAddr: 0x10003AD10, symSize: 0xF4 }
  - { offsetInCU: 0x2583E, offset: 0x2583E, size: 0x8, addend: 0x0, symName: __ZNSt3__113__unwrap_iterB8ue170006IPNS_12basic_stringIcNS_11char_traitsIcEENS_9allocatorIcEEEENS_18__unwrap_iter_implIS7_Lb1EEELi0EEEDTclsrT0_8__unwrapclsr3stdE7declvalIT_EEEESB_, symObjAddr: 0x37C90, symBinAddr: 0x10003AE04, symSize: 0x24 }
  - { offsetInCU: 0x25882, offset: 0x25882, size: 0x8, addend: 0x0, symName: __ZNSt3__113__rewrap_iterB8ue170006IPNS_12basic_stringIcNS_11char_traitsIcEENS_9allocatorIcEEEES7_NS_18__unwrap_iter_implIS7_Lb1EEEEET_SA_T0_, symObjAddr: 0x37CB4, symBinAddr: 0x10003AE28, symSize: 0x3C }
  - { offsetInCU: 0x258D7, offset: 0x258D7, size: 0x8, addend: 0x0, symName: __ZNSt3__19make_pairB8ue170006IPNS_12basic_stringIcNS_11char_traitsIcEENS_9allocatorIcEEEES7_EENS_4pairINS_18__unwrap_ref_decayIT_E4typeENS9_IT0_E4typeEEEOSA_OSD_, symObjAddr: 0x37CF0, symBinAddr: 0x10003AE64, symSize: 0x38 }
  - { offsetInCU: 0x259FA, offset: 0x259FA, size: 0x8, addend: 0x0, symName: __ZNSt3__122__make_exception_guardB8ue170006INS_29_AllocatorDestroyRangeReverseINS_9allocatorINS_12basic_stringIcNS_11char_traitsIcEENS2_IcEEEEEEPS7_EEEENS_28__exception_guard_exceptionsIT_EESC_, symObjAddr: 0x37D98, symBinAddr: 0x10003AF0C, symSize: 0x4C }
  - { offsetInCU: 0x25A30, offset: 0x25A30, size: 0x8, addend: 0x0, symName: __ZNSt3__119__allocator_destroyB8ue170006INS_9allocatorINS_12basic_stringIcNS_11char_traitsIcEENS1_IcEEEEEENS_16reverse_iteratorIPS6_EESA_EEvRT_T0_T1_, symObjAddr: 0x38028, symBinAddr: 0x10003B19C, symSize: 0x70 }
  - { offsetInCU: 0x25AE6, offset: 0x25AE6, size: 0x8, addend: 0x0, symName: __ZNSt3__1eqB8ue170006INS_12basic_stringIcNS_11char_traitsIcEENS_9allocatorIcEEEENS4_IS6_EEEEbRKNS_6vectorIT_T0_EESD_, symObjAddr: 0x3815C, symBinAddr: 0x10003B2D0, symSize: 0x9C }
  - { offsetInCU: 0x25B44, offset: 0x25B44, size: 0x8, addend: 0x0, symName: __ZNSt3__15equalB8ue170006INS_11__wrap_iterIPKNS_12basic_stringIcNS_11char_traitsIcEENS_9allocatorIcEEEEEESA_EEbT_SB_T0_, symObjAddr: 0x381F8, symBinAddr: 0x10003B36C, symSize: 0x50 }
  - { offsetInCU: 0x25B9E, offset: 0x25B9E, size: 0x8, addend: 0x0, symName: __ZNSt3__15equalB8ue170006INS_11__wrap_iterIPKNS_12basic_stringIcNS_11char_traitsIcEENS_9allocatorIcEEEEEESA_NS_10__equal_toEEEbT_SC_T0_T1_, symObjAddr: 0x382A8, symBinAddr: 0x10003B41C, symSize: 0x74 }
  - { offsetInCU: 0x25C0F, offset: 0x25C0F, size: 0x8, addend: 0x0, symName: __ZNSt3__117__equal_iter_implB8ue170006IPKNS_12basic_stringIcNS_11char_traitsIcEENS_9allocatorIcEEEES8_NS_10__equal_toEEEbT_SA_T0_RT1_, symObjAddr: 0x3831C, symBinAddr: 0x10003B490, symSize: 0xAC }
  - { offsetInCU: 0x25C80, offset: 0x25C80, size: 0x8, addend: 0x0, symName: __ZNSt3__113__unwrap_iterB8ue170006INS_11__wrap_iterIPKNS_12basic_stringIcNS_11char_traitsIcEENS_9allocatorIcEEEEEENS_18__unwrap_iter_implISA_Lb1EEELi0EEEDTclsrT0_8__unwrapclsr3stdE7declvalIT_EEEESE_, symObjAddr: 0x383C8, symBinAddr: 0x10003B53C, symSize: 0x2C }
  - { offsetInCU: 0x25D17, offset: 0x25D17, size: 0x8, addend: 0x0, symName: __ZNSt3__112__to_addressB8ue170006INS_11__wrap_iterIPKNS_12basic_stringIcNS_11char_traitsIcEENS_9allocatorIcEEEEEEvEEu7__decayIDTclsr19__to_address_helperIT_EE6__callclsr3stdE7declvalIRKSB_EEEEESD_, symObjAddr: 0x38450, symBinAddr: 0x10003B5C4, symSize: 0x24 }
  - { offsetInCU: 0x25DF2, offset: 0x25DF2, size: 0x8, addend: 0x0, symName: __ZNSt3__112__to_addressB8ue170006IKNS_12basic_stringIcNS_11char_traitsIcEENS_9allocatorIcEEEEEEPT_S9_, symObjAddr: 0x384D0, symBinAddr: 0x10003B644, symSize: 0x14 }
  - { offsetInCU: 0x2681F, offset: 0x2681F, size: 0x8, addend: 0x0, symName: __ZSt28__throw_bad_array_new_lengthB8ue170006v, symObjAddr: 0xB4E0, symBinAddr: 0x10000E654, symSize: 0x34 }
  - { offsetInCU: 0x27A59, offset: 0x27A59, size: 0x8, addend: 0x0, symName: __ZNSt3__16vectorIP12ExprTreeNodeNS_9allocatorIS2_EEE26__swap_out_circular_bufferERNS_14__split_bufferIS2_RS4_EE, symObjAddr: 0xE988, symBinAddr: 0x100011AFC, symSize: 0x110 }
  - { offsetInCU: 0x27BB5, offset: 0x27BB5, size: 0x8, addend: 0x0, symName: __ZNSt3__16vectorINS_12basic_stringIcNS_11char_traitsIcEENS_9allocatorIcEEEENS4_IS6_EEE26__swap_out_circular_bufferERNS_14__split_bufferIS6_RS7_EE, symObjAddr: 0x106CC, symBinAddr: 0x100013840, symSize: 0x110 }
  - { offsetInCU: 0x27E21, offset: 0x27E21, size: 0x8, addend: 0x0, symName: __ZNSt3__16vectorINS_7__stateIcEENS_9allocatorIS2_EEE26__swap_out_circular_bufferERNS_14__split_bufferIS2_RS4_EE, symObjAddr: 0x19534, symBinAddr: 0x10001C6A8, symSize: 0x110 }
  - { offsetInCU: 0x27EBE, offset: 0x27EBE, size: 0x8, addend: 0x0, symName: __ZNSt3__16vectorINS_9sub_matchIPKcEENS_9allocatorIS4_EEE26__swap_out_circular_bufferERNS_14__split_bufferIS4_RS6_EE, symObjAddr: 0x1B118, symBinAddr: 0x10001E28C, symSize: 0x110 }
  - { offsetInCU: 0x27F56, offset: 0x27F56, size: 0x8, addend: 0x0, symName: __ZNSt3__16vectorINS_4pairImPKcEENS_9allocatorIS4_EEE26__swap_out_circular_bufferERNS_14__split_bufferIS4_RS6_EE, symObjAddr: 0x1C33C, symBinAddr: 0x10001F4B0, symSize: 0x110 }
  - { offsetInCU: 0x284F2, offset: 0x284F2, size: 0x8, addend: 0x0, symName: __ZNSt3__16vectorIcNS_9allocatorIcEEE26__swap_out_circular_bufferERNS_14__split_bufferIcRS2_EE, symObjAddr: 0x24B68, symBinAddr: 0x100027CDC, symSize: 0x110 }
  - { offsetInCU: 0x2854A, offset: 0x2854A, size: 0x8, addend: 0x0, symName: __ZNSt3__16vectorINS_4pairINS_12basic_stringIcNS_11char_traitsIcEENS_9allocatorIcEEEES7_EENS5_IS8_EEE26__swap_out_circular_bufferERNS_14__split_bufferIS8_RS9_EE, symObjAddr: 0x2917C, symBinAddr: 0x10002C2F0, symSize: 0x110 }
  - { offsetInCU: 0x285E2, offset: 0x285E2, size: 0x8, addend: 0x0, symName: __ZNSt3__16vectorINS_4pairIccEENS_9allocatorIS2_EEE26__swap_out_circular_bufferERNS_14__split_bufferIS2_RS4_EE, symObjAddr: 0x2A65C, symBinAddr: 0x10002D7D0, symSize: 0x110 }
  - { offsetInCU: 0x2871D, offset: 0x2871D, size: 0x8, addend: 0x0, symName: __ZNSt3__16vectorINS_9sub_matchINS_11__wrap_iterIPKcEEEENS_9allocatorIS6_EEE26__swap_out_circular_bufferERNS_14__split_bufferIS6_RS8_EE, symObjAddr: 0x35E38, symBinAddr: 0x100038FAC, symSize: 0x110 }
  - { offsetInCU: 0x2AC43, offset: 0x2AC43, size: 0x8, addend: 0x0, symName: __Z3by2P12UnlimitedInt, symObjAddr: 0x0, symBinAddr: 0x100003174, symSize: 0x4B0 }
  - { offsetInCU: 0x2AD6A, offset: 0x2AD6A, size: 0x8, addend: 0x0, symName: __ZN12UnlimitedInt9to_stringEv, symObjAddr: 0x4B0, symBinAddr: 0x100003624, symSize: 0x158 }
  - { offsetInCU: 0x2ADC0, offset: 0x2ADC0, size: 0x8, addend: 0x0, symName: __ZN12UnlimitedIntC1ENSt3__112basic_stringIcNS0_11char_traitsIcEENS0_9allocatorIcEEEE, symObjAddr: 0x608, symBinAddr: 0x10000377C, symSize: 0x34 }
  - { offsetInCU: 0x2ADFB, offset: 0x2ADFB, size: 0x8, addend: 0x0, symName: __ZN12UnlimitedInt9get_arrayEv, symObjAddr: 0x63C, symBinAddr: 0x1000037B0, symSize: 0x18 }
  - { offsetInCU: 0x2AE23, offset: 0x2AE23, size: 0x8, addend: 0x0, symName: __ZN12UnlimitedInt8get_sizeEv, symObjAddr: 0x654, symBinAddr: 0x1000037C8, symSize: 0x18 }
  - { offsetInCU: 0x2AE4B, offset: 0x2AE4B, size: 0x8, addend: 0x0, symName: __ZN12UnlimitedIntC1EPiiii, symObjAddr: 0x66C, symBinAddr: 0x1000037E0, symSize: 0x4C }
  - { offsetInCU: 0x2AEAF, offset: 0x2AEAF, size: 0x8, addend: 0x0, symName: __ZN12UnlimitedIntD1Ev, symObjAddr: 0x6B8, symBinAddr: 0x10000382C, symSize: 0x2C }
  - { offsetInCU: 0x2AEDB, offset: 0x2AEDB, size: 0x8, addend: 0x0, symName: __ZN12UnlimitedIntC2Ev, symObjAddr: 0x6E4, symBinAddr: 0x100003858, symSize: 0x4C }
  - { offsetInCU: 0x2AF07, offset: 0x2AF07, size: 0x8, addend: 0x0, symName: __ZN12UnlimitedIntC1Ev, symObjAddr: 0x730, symBinAddr: 0x1000038A4, symSize: 0x2C }
  - { offsetInCU: 0x2AF32, offset: 0x2AF32, size: 0x8, addend: 0x0, symName: __Z8isBiggerR12UnlimitedIntS0_, symObjAddr: 0x75C, symBinAddr: 0x1000038D0, symSize: 0x164 }
  - { offsetInCU: 0x2AFC1, offset: 0x2AFC1, size: 0x8, addend: 0x0, symName: __ZN12UnlimitedIntC2ENSt3__112basic_stringIcNS0_11char_traitsIcEENS0_9allocatorIcEEEE, symObjAddr: 0x8C0, symBinAddr: 0x100003A34, symSize: 0x230 }
  - { offsetInCU: 0x2B034, offset: 0x2B034, size: 0x8, addend: 0x0, symName: __ZNKSt3__112basic_stringIcNS_11char_traitsIcEENS_9allocatorIcEEE4sizeB8ue170006Ev, symObjAddr: 0xAF0, symBinAddr: 0x100003C64, symSize: 0x54 }
  - { offsetInCU: 0x2B05A, offset: 0x2B05A, size: 0x8, addend: 0x0, symName: __ZNSt3__112basic_stringIcNS_11char_traitsIcEENS_9allocatorIcEEEixB8ue170006Em, symObjAddr: 0xB44, symBinAddr: 0x100003CB8, symSize: 0x30 }
  - { offsetInCU: 0x2B08F, offset: 0x2B08F, size: 0x8, addend: 0x0, symName: __ZN12UnlimitedIntC2Ei, symObjAddr: 0xB74, symBinAddr: 0x100003CE8, symSize: 0x288 }
  - { offsetInCU: 0x2B139, offset: 0x2B139, size: 0x8, addend: 0x0, symName: __ZN12UnlimitedIntC1Ei, symObjAddr: 0xDFC, symBinAddr: 0x100003F70, symSize: 0x34 }
  - { offsetInCU: 0x2B173, offset: 0x2B173, size: 0x8, addend: 0x0, symName: __ZN12UnlimitedIntC2EPiiii, symObjAddr: 0xE30, symBinAddr: 0x100003FA4, symSize: 0xD8 }
  - { offsetInCU: 0x2B1F3, offset: 0x2B1F3, size: 0x8, addend: 0x0, symName: __ZN12UnlimitedIntD2Ev, symObjAddr: 0xF08, symBinAddr: 0x10000407C, symSize: 0x50 }
  - { offsetInCU: 0x2B21F, offset: 0x2B21F, size: 0x8, addend: 0x0, symName: __ZN12UnlimitedInt8get_signEv, symObjAddr: 0xF58, symBinAddr: 0x1000040CC, symSize: 0x18 }
  - { offsetInCU: 0x2B247, offset: 0x2B247, size: 0x8, addend: 0x0, symName: __ZN12UnlimitedInt12get_capacityEv, symObjAddr: 0xF70, symBinAddr: 0x1000040E4, symSize: 0x18 }
  - { offsetInCU: 0x2B26F, offset: 0x2B26F, size: 0x8, addend: 0x0, symName: __ZN12UnlimitedInt3addEPS_S0_, symObjAddr: 0xF88, symBinAddr: 0x1000040FC, symSize: 0x115C }
  - { offsetInCU: 0x2B5CB, offset: 0x2B5CB, size: 0x8, addend: 0x0, symName: __ZNSt3__112basic_stringIcNS_11char_traitsIcEENS_9allocatorIcEEEC1B8ue170006Ev, symObjAddr: 0x20E4, symBinAddr: 0x100005258, symSize: 0x2C }
  - { offsetInCU: 0x2B5F5, offset: 0x2B5F5, size: 0x8, addend: 0x0, symName: __ZNSt3__112basic_stringIcNS_11char_traitsIcEENS_9allocatorIcEEEpLB8ue170006Ec, symObjAddr: 0x2110, symBinAddr: 0x100005284, symSize: 0x34 }
  - { offsetInCU: 0x2B62A, offset: 0x2B62A, size: 0x8, addend: 0x0, symName: __ZNSt3__112basic_stringIcNS_11char_traitsIcEENS_9allocatorIcEEEpLB8ue170006ERKS5_, symObjAddr: 0x2144, symBinAddr: 0x1000052B8, symSize: 0x2C }
  - { offsetInCU: 0x2B65F, offset: 0x2B65F, size: 0x8, addend: 0x0, symName: __ZN12UnlimitedInt3subEPS_S0_, symObjAddr: 0x2170, symBinAddr: 0x1000052E4, symSize: 0xF88 }
  - { offsetInCU: 0x2B9A6, offset: 0x2B9A6, size: 0x8, addend: 0x0, symName: __ZN12UnlimitedInt3mulEPS_S0_, symObjAddr: 0x30F8, symBinAddr: 0x10000626C, symSize: 0x990 }
  - { offsetInCU: 0x2BC4A, offset: 0x2BC4A, size: 0x8, addend: 0x0, symName: __ZN12UnlimitedInt3divEPS_S0_, symObjAddr: 0x3A88, symBinAddr: 0x100006BFC, symSize: 0xCF0 }
  - { offsetInCU: 0x2BF36, offset: 0x2BF36, size: 0x8, addend: 0x0, symName: __ZN12UnlimitedInt3modEPS_S0_, symObjAddr: 0x4824, symBinAddr: 0x100007998, symSize: 0xAC }
  - { offsetInCU: 0x2BF9E, offset: 0x2BF9E, size: 0x8, addend: 0x0, symName: __ZNSt3__112basic_stringIcNS_11char_traitsIcEENS_9allocatorIcEEEC1B8ue170006ILi0EEEPKc, symObjAddr: 0x48D0, symBinAddr: 0x100007A44, symSize: 0x34 }
  - { offsetInCU: 0x2BFDD, offset: 0x2BFDD, size: 0x8, addend: 0x0, symName: __ZNSt3__112basic_stringIcNS_11char_traitsIcEENS_9allocatorIcEEEpLB8ue170006EPKc, symObjAddr: 0x4904, symBinAddr: 0x100007A78, symSize: 0x2C }
  - { offsetInCU: 0x2C011, offset: 0x2C011, size: 0x8, addend: 0x0, symName: __Z3GCDP12UnlimitedIntS0_, symObjAddr: 0x4930, symBinAddr: 0x100007AA4, symSize: 0x5CC }
  - { offsetInCU: 0x2C0A5, offset: 0x2C0A5, size: 0x8, addend: 0x0, symName: __ZN17UnlimitedRationalC2Ev, symObjAddr: 0x4F30, symBinAddr: 0x1000080A4, symSize: 0xAC }
  - { offsetInCU: 0x2C0D1, offset: 0x2C0D1, size: 0x8, addend: 0x0, symName: __ZN17UnlimitedRationalC1Ev, symObjAddr: 0x4FDC, symBinAddr: 0x100008150, symSize: 0x2C }
  - { offsetInCU: 0x2C0FD, offset: 0x2C0FD, size: 0x8, addend: 0x0, symName: __ZN17UnlimitedRationalC2EP12UnlimitedIntS1_, symObjAddr: 0x5008, symBinAddr: 0x10000817C, symSize: 0x3B0 }
  - { offsetInCU: 0x2C1BF, offset: 0x2C1BF, size: 0x8, addend: 0x0, symName: __ZN17UnlimitedRationalC1EP12UnlimitedIntS1_, symObjAddr: 0x53B8, symBinAddr: 0x10000852C, symSize: 0x3C }
  - { offsetInCU: 0x2C207, offset: 0x2C207, size: 0x8, addend: 0x0, symName: __ZN17UnlimitedRationalD2Ev, symObjAddr: 0x53F4, symBinAddr: 0x100008568, symSize: 0x8C }
  - { offsetInCU: 0x2C233, offset: 0x2C233, size: 0x8, addend: 0x0, symName: __ZN17UnlimitedRationalD1Ev, symObjAddr: 0x5480, symBinAddr: 0x1000085F4, symSize: 0x2C }
  - { offsetInCU: 0x2C25F, offset: 0x2C25F, size: 0x8, addend: 0x0, symName: __ZN17UnlimitedRational5get_pEv, symObjAddr: 0x54AC, symBinAddr: 0x100008620, symSize: 0x18 }
  - { offsetInCU: 0x2C287, offset: 0x2C287, size: 0x8, addend: 0x0, symName: __ZN17UnlimitedRational5get_qEv, symObjAddr: 0x54C4, symBinAddr: 0x100008638, symSize: 0x18 }
  - { offsetInCU: 0x2C2AF, offset: 0x2C2AF, size: 0x8, addend: 0x0, symName: __ZN17UnlimitedRational9get_p_strEv, symObjAddr: 0x54DC, symBinAddr: 0x100008650, symSize: 0x30 }
  - { offsetInCU: 0x2C2D7, offset: 0x2C2D7, size: 0x8, addend: 0x0, symName: __ZN17UnlimitedRational9get_q_strEv, symObjAddr: 0x550C, symBinAddr: 0x100008680, symSize: 0x30 }
  - { offsetInCU: 0x2C2FF, offset: 0x2C2FF, size: 0x8, addend: 0x0, symName: __ZN17UnlimitedRational12get_frac_strEv, symObjAddr: 0x553C, symBinAddr: 0x1000086B0, symSize: 0x174 }
  - { offsetInCU: 0x2C353, offset: 0x2C353, size: 0x8, addend: 0x0, symName: __ZNSt3__112basic_stringIcNS_11char_traitsIcEENS_9allocatorIcEEEaSB8ue170006EOS5_, symObjAddr: 0x580C, symBinAddr: 0x100008980, symSize: 0x34 }
  - { offsetInCU: 0x2C388, offset: 0x2C388, size: 0x8, addend: 0x0, symName: __ZN17UnlimitedRational3addEPS_S0_, symObjAddr: 0x5840, symBinAddr: 0x1000089B4, symSize: 0x2F8 }
  - { offsetInCU: 0x2C436, offset: 0x2C436, size: 0x8, addend: 0x0, symName: __ZN17UnlimitedRational3subEPS_S0_, symObjAddr: 0x5B38, symBinAddr: 0x100008CAC, symSize: 0x2F8 }
  - { offsetInCU: 0x2C4E4, offset: 0x2C4E4, size: 0x8, addend: 0x0, symName: __ZN17UnlimitedRational3mulEPS_S0_, symObjAddr: 0x5E30, symBinAddr: 0x100008FA4, symSize: 0x26C }
  - { offsetInCU: 0x2C574, offset: 0x2C574, size: 0x8, addend: 0x0, symName: __ZN17UnlimitedRational3divEPS_S0_, symObjAddr: 0x609C, symBinAddr: 0x100009210, symSize: 0x288 }
  - { offsetInCU: 0x2C680, offset: 0x2C680, size: 0x8, addend: 0x0, symName: __ZN8SymEntryC2Ev, symObjAddr: 0x6324, symBinAddr: 0x100009498, symSize: 0x70 }
  - { offsetInCU: 0x2C6AC, offset: 0x2C6AC, size: 0x8, addend: 0x0, symName: __ZNSt3__112basic_stringIcNS_11char_traitsIcEENS_9allocatorIcEEEaSB8ue170006EPKc, symObjAddr: 0x6394, symBinAddr: 0x100009508, symSize: 0x2C }
  - { offsetInCU: 0x2C6E1, offset: 0x2C6E1, size: 0x8, addend: 0x0, symName: __ZN8SymEntryC1Ev, symObjAddr: 0x63C0, symBinAddr: 0x100009534, symSize: 0x2C }
  - { offsetInCU: 0x2C70D, offset: 0x2C70D, size: 0x8, addend: 0x0, symName: __ZN8SymEntryC2ENSt3__112basic_stringIcNS0_11char_traitsIcEENS0_9allocatorIcEEEEP17UnlimitedRational, symObjAddr: 0x63EC, symBinAddr: 0x100009560, symSize: 0x1F8 }
  - { offsetInCU: 0x2C7A5, offset: 0x2C7A5, size: 0x8, addend: 0x0, symName: __ZN8SymEntryC1ENSt3__112basic_stringIcNS0_11char_traitsIcEENS0_9allocatorIcEEEEP17UnlimitedRational, symObjAddr: 0x65E4, symBinAddr: 0x100009758, symSize: 0x3C }
  - { offsetInCU: 0x2C7EE, offset: 0x2C7EE, size: 0x8, addend: 0x0, symName: __ZN8SymEntryD2Ev, symObjAddr: 0x6620, symBinAddr: 0x100009794, symSize: 0x64 }
  - { offsetInCU: 0x2C81A, offset: 0x2C81A, size: 0x8, addend: 0x0, symName: __ZN8SymEntryD1Ev, symObjAddr: 0x6684, symBinAddr: 0x1000097F8, symSize: 0x2C }
  - { offsetInCU: 0x2C845, offset: 0x2C845, size: 0x8, addend: 0x0, symName: __Z12removeHelperP8SymEntryNSt3__112basic_stringIcNS1_11char_traitsIcEENS1_9allocatorIcEEEE, symObjAddr: 0x66B0, symBinAddr: 0x100009824, symSize: 0x51C }
  - { offsetInCU: 0x2C929, offset: 0x2C929, size: 0x8, addend: 0x0, symName: __Z10destructorP8SymEntry, symObjAddr: 0x6C30, symBinAddr: 0x100009DA4, symSize: 0x78 }
  - { offsetInCU: 0x2CA0F, offset: 0x2CA0F, size: 0x8, addend: 0x0, symName: __ZN11SymbolTableC2Ev, symObjAddr: 0x6CA8, symBinAddr: 0x100009E1C, symSize: 0x1C }
  - { offsetInCU: 0x2CA3B, offset: 0x2CA3B, size: 0x8, addend: 0x0, symName: __ZN11SymbolTableC1Ev, symObjAddr: 0x6CC4, symBinAddr: 0x100009E38, symSize: 0x2C }
  - { offsetInCU: 0x2CA67, offset: 0x2CA67, size: 0x8, addend: 0x0, symName: __ZN11SymbolTableD2Ev, symObjAddr: 0x6CF0, symBinAddr: 0x100009E64, symSize: 0x38 }
  - { offsetInCU: 0x2CA93, offset: 0x2CA93, size: 0x8, addend: 0x0, symName: __ZN11SymbolTableD1Ev, symObjAddr: 0x6D34, symBinAddr: 0x100009EA8, symSize: 0x2C }
  - { offsetInCU: 0x2CABF, offset: 0x2CABF, size: 0x8, addend: 0x0, symName: __ZN11SymbolTable6insertENSt3__112basic_stringIcNS0_11char_traitsIcEENS0_9allocatorIcEEEEP17UnlimitedRational, symObjAddr: 0x6D60, symBinAddr: 0x100009ED4, symSize: 0x220 }
  - { offsetInCU: 0x2CB20, offset: 0x2CB20, size: 0x8, addend: 0x0, symName: __ZN11SymbolTable6removeENSt3__112basic_stringIcNS0_11char_traitsIcEENS0_9allocatorIcEEEE, symObjAddr: 0x6FB8, symBinAddr: 0x10000A12C, symSize: 0x88 }
  - { offsetInCU: 0x2CB57, offset: 0x2CB57, size: 0x8, addend: 0x0, symName: __ZN11SymbolTable6searchENSt3__112basic_stringIcNS0_11char_traitsIcEENS0_9allocatorIcEEEE, symObjAddr: 0x7040, symBinAddr: 0x10000A1B4, symSize: 0x134 }
  - { offsetInCU: 0x2CBCC, offset: 0x2CBCC, size: 0x8, addend: 0x0, symName: __ZN11SymbolTable8get_sizeEv, symObjAddr: 0x72BC, symBinAddr: 0x10000A430, symSize: 0x18 }
  - { offsetInCU: 0x2CBF4, offset: 0x2CBF4, size: 0x8, addend: 0x0, symName: __ZN11SymbolTable8get_rootEv, symObjAddr: 0x72D4, symBinAddr: 0x10000A448, symSize: 0x18 }
  - { offsetInCU: 0x2CC1C, offset: 0x2CC1C, size: 0x8, addend: 0x0, symName: __ZN12ExprTreeNodeC2Ev, symObjAddr: 0x72EC, symBinAddr: 0x10000A460, symSize: 0x188 }
  - { offsetInCU: 0x2CC6A, offset: 0x2CC6A, size: 0x8, addend: 0x0, symName: __ZN12ExprTreeNodeC1Ev, symObjAddr: 0x7474, symBinAddr: 0x10000A5E8, symSize: 0x2C }
  - { offsetInCU: 0x2CC96, offset: 0x2CC96, size: 0x8, addend: 0x0, symName: __ZN12ExprTreeNodeC2ENSt3__112basic_stringIcNS0_11char_traitsIcEENS0_9allocatorIcEEEEP12UnlimitedInt, symObjAddr: 0x74A0, symBinAddr: 0x10000A614, symSize: 0x1C4 }
  - { offsetInCU: 0x2CD1E, offset: 0x2CD1E, size: 0x8, addend: 0x0, symName: __ZN12ExprTreeNodeC1ENSt3__112basic_stringIcNS0_11char_traitsIcEENS0_9allocatorIcEEEEP12UnlimitedInt, symObjAddr: 0x7664, symBinAddr: 0x10000A7D8, symSize: 0x3C }
  - { offsetInCU: 0x2CD67, offset: 0x2CD67, size: 0x8, addend: 0x0, symName: __ZN12ExprTreeNodeC2ENSt3__112basic_stringIcNS0_11char_traitsIcEENS0_9allocatorIcEEEEP17UnlimitedRational, symObjAddr: 0x76A0, symBinAddr: 0x10000A814, symSize: 0x2C8 }
  - { offsetInCU: 0x2CE1D, offset: 0x2CE1D, size: 0x8, addend: 0x0, symName: __ZN12ExprTreeNodeC1ENSt3__112basic_stringIcNS0_11char_traitsIcEENS0_9allocatorIcEEEEP17UnlimitedRational, symObjAddr: 0x7968, symBinAddr: 0x10000AADC, symSize: 0x3C }
  - { offsetInCU: 0x2CE66, offset: 0x2CE66, size: 0x8, addend: 0x0, symName: __ZN12ExprTreeNodeD2Ev, symObjAddr: 0x79A4, symBinAddr: 0x10000AB18, symSize: 0xA0 }
  - { offsetInCU: 0x2CE92, offset: 0x2CE92, size: 0x8, addend: 0x0, symName: __ZN12ExprTreeNodeD1Ev, symObjAddr: 0x7A44, symBinAddr: 0x10000ABB8, symSize: 0x2C }
  - { offsetInCU: 0x2CEBD, offset: 0x2CEBD, size: 0x8, addend: 0x0, symName: __Z13delelteHelperP12ExprTreeNode, symObjAddr: 0x7A70, symBinAddr: 0x10000ABE4, symSize: 0x78 }
  - { offsetInCU: 0x2CEE5, offset: 0x2CEE5, size: 0x8, addend: 0x0, symName: __Z10EvalHelperP12ExprTreeNodeP11SymbolTable, symObjAddr: 0x7AE8, symBinAddr: 0x10000AC5C, symSize: 0x630 }
  - { offsetInCU: 0x2D0E9, offset: 0x2D0E9, size: 0x8, addend: 0x0, symName: __ZN9EvaluatorC2Ev, symObjAddr: 0x8118, symBinAddr: 0x10000B28C, symSize: 0x70 }
  - { offsetInCU: 0x2D115, offset: 0x2D115, size: 0x8, addend: 0x0, symName: __ZNSt3__16vectorIP12ExprTreeNodeNS_9allocatorIS2_EEEC1B8ue170006Ev, symObjAddr: 0x8188, symBinAddr: 0x10000B2FC, symSize: 0x2C }
  - { offsetInCU: 0x2D13F, offset: 0x2D13F, size: 0x8, addend: 0x0, symName: __ZNSt3__16vectorIP12ExprTreeNodeNS_9allocatorIS2_EEED1B8ue170006Ev, symObjAddr: 0x81B4, symBinAddr: 0x10000B328, symSize: 0x2C }
  - { offsetInCU: 0x2D169, offset: 0x2D169, size: 0x8, addend: 0x0, symName: __ZN9EvaluatorC1Ev, symObjAddr: 0x81E0, symBinAddr: 0x10000B354, symSize: 0x2C }
  - { offsetInCU: 0x2D195, offset: 0x2D195, size: 0x8, addend: 0x0, symName: __ZN9EvaluatorD2Ev, symObjAddr: 0x820C, symBinAddr: 0x10000B380, symSize: 0xC0 }
  - { offsetInCU: 0x2D1D5, offset: 0x2D1D5, size: 0x8, addend: 0x0, symName: __ZNKSt3__16vectorIP12ExprTreeNodeNS_9allocatorIS2_EEE4sizeB8ue170006Ev, symObjAddr: 0x82CC, symBinAddr: 0x10000B440, symSize: 0x28 }
  - { offsetInCU: 0x2D1FB, offset: 0x2D1FB, size: 0x8, addend: 0x0, symName: __ZNSt3__16vectorIP12ExprTreeNodeNS_9allocatorIS2_EEEixB8ue170006Em, symObjAddr: 0x82F4, symBinAddr: 0x10000B468, symSize: 0x24 }
  - { offsetInCU: 0x2D232, offset: 0x2D232, size: 0x8, addend: 0x0, symName: __ZN9EvaluatorD1Ev, symObjAddr: 0x8318, symBinAddr: 0x10000B48C, symSize: 0x2C }
  - { offsetInCU: 0x2D25E, offset: 0x2D25E, size: 0x8, addend: 0x0, symName: __ZN9Evaluator5parseENSt3__16vectorINS0_12basic_stringIcNS0_11char_traitsIcEENS0_9allocatorIcEEEENS5_IS7_EEEE, symObjAddr: 0x8344, symBinAddr: 0x10000B4B8, symSize: 0x72C }
  - { offsetInCU: 0x2D3D4, offset: 0x2D3D4, size: 0x8, addend: 0x0, symName: __ZNSt3__16vectorINS_12basic_stringIcNS_11char_traitsIcEENS_9allocatorIcEEEENS4_IS6_EEEixB8ue170006Em, symObjAddr: 0x8A70, symBinAddr: 0x10000BBE4, symSize: 0x2C }
  - { offsetInCU: 0x2D40B, offset: 0x2D40B, size: 0x8, addend: 0x0, symName: __ZNKSt3__16vectorINS_12basic_stringIcNS_11char_traitsIcEENS_9allocatorIcEEEENS4_IS6_EEE4sizeB8ue170006Ev, symObjAddr: 0x8A9C, symBinAddr: 0x10000BC10, symSize: 0x28 }
  - { offsetInCU: 0x2D431, offset: 0x2D431, size: 0x8, addend: 0x0, symName: __ZNSt3__16vectorIP12ExprTreeNodeNS_9allocatorIS2_EEE9push_backB8ue170006ERKS2_, symObjAddr: 0x8AC4, symBinAddr: 0x10000BC38, symSize: 0x6C }
  - { offsetInCU: 0x2D468, offset: 0x2D468, size: 0x8, addend: 0x0, symName: __ZNSt3__16vectorIP12ExprTreeNodeNS_9allocatorIS2_EEE8pop_backEv, symObjAddr: 0x8B30, symBinAddr: 0x10000BCA4, symSize: 0x2C }
  - { offsetInCU: 0x2D490, offset: 0x2D490, size: 0x8, addend: 0x0, symName: __ZN9Evaluator4evalEv, symObjAddr: 0x8B5C, symBinAddr: 0x10000BCD0, symSize: 0xD4 }
  - { offsetInCU: 0x2D4D4, offset: 0x2D4D4, size: 0x8, addend: 0x0, symName: __ZNSt3__16vectorIP12ExprTreeNodeNS_9allocatorIS2_EEE4backB8ue170006Ev, symObjAddr: 0x8C30, symBinAddr: 0x10000BDA4, symSize: 0x1C }
  - { offsetInCU: 0x2D4F9, offset: 0x2D4F9, size: 0x8, addend: 0x0, symName: __Z18checkEvalTreeBasicP12ExprTreeNodeRNSt3__16vectorINS1_12basic_stringIcNS1_11char_traitsIcEENS1_9allocatorIcEEEENS6_IS8_EEEERiRb, symObjAddr: 0x8C4C, symBinAddr: 0x10000BDC0, symSize: 0x160 }
  - { offsetInCU: 0x2D54C, offset: 0x2D54C, size: 0x8, addend: 0x0, symName: __ZNSt3__113basic_ostreamIcNS_11char_traitsIcEEElsB8ue170006EPFRS3_S4_E, symObjAddr: 0x8DF4, symBinAddr: 0x10000BF68, symSize: 0x2C }
  - { offsetInCU: 0x2D57F, offset: 0x2D57F, size: 0x8, addend: 0x0, symName: __Z19checkParseTreeBasicP12ExprTreeNodeRNSt3__16vectorINS1_12basic_stringIcNS1_11char_traitsIcEENS1_9allocatorIcEEEENS6_IS8_EEEERbb, symObjAddr: 0x8E78, symBinAddr: 0x10000BFEC, symSize: 0x79C }
  - { offsetInCU: 0x2D605, offset: 0x2D605, size: 0x8, addend: 0x0, symName: __ZNSt3__16vectorINS_12basic_stringIcNS_11char_traitsIcEENS_9allocatorIcEEEENS4_IS6_EEE9push_backB8ue170006EOS6_, symObjAddr: 0x9614, symBinAddr: 0x10000C788, symSize: 0x6C }
  - { offsetInCU: 0x2D63C, offset: 0x2D63C, size: 0x8, addend: 0x0, symName: __ZNSt3__16vectorINS_12basic_stringIcNS_11char_traitsIcEENS_9allocatorIcEEEENS4_IS6_EEE9push_backB8ue170006ERKS6_, symObjAddr: 0x9680, symBinAddr: 0x10000C7F4, symSize: 0x6C }
  - { offsetInCU: 0x2D673, offset: 0x2D673, size: 0x8, addend: 0x0, symName: _main, symObjAddr: 0x9738, symBinAddr: 0x10000C8AC, symSize: 0xAB4 }
  - { offsetInCU: 0x2D8FC, offset: 0x2D8FC, size: 0x8, addend: 0x0, symName: __ZNSt3__114basic_ifstreamIcNS_11char_traitsIcEEEC1ERKNS_12basic_stringIcS2_NS_9allocatorIcEEEEj, symObjAddr: 0xA270, symBinAddr: 0x10000D3E4, symSize: 0x16C }
  - { offsetInCU: 0x2D946, offset: 0x2D946, size: 0x8, addend: 0x0, symName: __ZNKSt3__114basic_ifstreamIcNS_11char_traitsIcEEE7is_openEv, symObjAddr: 0xA3DC, symBinAddr: 0x10000D550, symSize: 0x2C }
  - { offsetInCU: 0x2D96E, offset: 0x2D96E, size: 0x8, addend: 0x0, symName: __ZNSt3__16vectorINS_12basic_stringIcNS_11char_traitsIcEENS_9allocatorIcEEEENS4_IS6_EEEC1B8ue170006Ev, symObjAddr: 0xA408, symBinAddr: 0x10000D57C, symSize: 0x2C }
  - { offsetInCU: 0x2D998, offset: 0x2D998, size: 0x8, addend: 0x0, symName: __ZNKSt3__19basic_iosIcNS_11char_traitsIcEEEcvbB8ue170006Ev, symObjAddr: 0xA490, symBinAddr: 0x10000D604, symSize: 0x2C }
  - { offsetInCU: 0x2D9BE, offset: 0x2D9BE, size: 0x8, addend: 0x0, symName: __ZNSt3__111basic_regexIcNS_12regex_traitsIcEEEC1B8ue170006EPKcNS_15regex_constants18syntax_option_typeE, symObjAddr: 0xA4BC, symBinAddr: 0x10000D630, symSize: 0x3C }
  - { offsetInCU: 0x2DA06, offset: 0x2DA06, size: 0x8, addend: 0x0, symName: __ZNSt3__112basic_stringIcNS_11char_traitsIcEENS_9allocatorIcEEE5beginB8ue170006Ev, symObjAddr: 0xA4F8, symBinAddr: 0x10000D66C, symSize: 0x4C }
  - { offsetInCU: 0x2DA37, offset: 0x2DA37, size: 0x8, addend: 0x0, symName: __ZNSt3__111__wrap_iterIPKcEC1B8ue170006IPcEERKNS0_IT_EEPNS_9enable_ifIXsr14is_convertibleIS6_S2_EE5valueEvE4typeE, symObjAddr: 0xA544, symBinAddr: 0x10000D6B8, symSize: 0x3C }
  - { offsetInCU: 0x2DA82, offset: 0x2DA82, size: 0x8, addend: 0x0, symName: __ZNSt3__112basic_stringIcNS_11char_traitsIcEENS_9allocatorIcEEE3endB8ue170006Ev, symObjAddr: 0xA580, symBinAddr: 0x10000D6F4, symSize: 0x54 }
  - { offsetInCU: 0x2DB1E, offset: 0x2DB1E, size: 0x8, addend: 0x0, symName: __ZNSt3__114regex_iteratorINS_11__wrap_iterIPKcEEcNS_12regex_traitsIcEEEC1ES4_S4_RKNS_11basic_regexIcS6_EENS_15regex_constants15match_flag_typeE, symObjAddr: 0xA5D4, symBinAddr: 0x10000D748, symSize: 0x4C }
  - { offsetInCU: 0x2DB86, offset: 0x2DB86, size: 0x8, addend: 0x0, symName: __ZNSt3__114regex_iteratorINS_11__wrap_iterIPKcEEcNS_12regex_traitsIcEEEC1Ev, symObjAddr: 0xA620, symBinAddr: 0x10000D794, symSize: 0x2C }
  - { offsetInCU: 0x2DBB7, offset: 0x2DBB7, size: 0x8, addend: 0x0, symName: __ZNSt3__114regex_iteratorINS_11__wrap_iterIPKcEEcNS_12regex_traitsIcEEEC1ERKS7_, symObjAddr: 0xA64C, symBinAddr: 0x10000D7C0, symSize: 0x34 }
  - { offsetInCU: 0x2DBED, offset: 0x2DBED, size: 0x8, addend: 0x0, symName: __ZNKSt3__114regex_iteratorINS_11__wrap_iterIPKcEEcNS_12regex_traitsIcEEEneB8ue170006ERKS7_, symObjAddr: 0xA680, symBinAddr: 0x10000D7F4, symSize: 0x34 }
  - { offsetInCU: 0x2DC22, offset: 0x2DC22, size: 0x8, addend: 0x0, symName: __ZNKSt3__114regex_iteratorINS_11__wrap_iterIPKcEEcNS_12regex_traitsIcEEEptB8ue170006Ev, symObjAddr: 0xA6B4, symBinAddr: 0x10000D828, symSize: 0x18 }
  - { offsetInCU: 0x2DC48, offset: 0x2DC48, size: 0x8, addend: 0x0, symName: __ZNKSt3__113match_resultsINS_11__wrap_iterIPKcEENS_9allocatorINS_9sub_matchIS4_EEEEE3strB8ue170006Em, symObjAddr: 0xA6CC, symBinAddr: 0x10000D840, symSize: 0x3C }
  - { offsetInCU: 0x2DC7D, offset: 0x2DC7D, size: 0x8, addend: 0x0, symName: __ZNSt3__114regex_iteratorINS_11__wrap_iterIPKcEEcNS_12regex_traitsIcEEEppEv, symObjAddr: 0xA708, symBinAddr: 0x10000D87C, symSize: 0x1CC }
  - { offsetInCU: 0x2DCB4, offset: 0x2DCB4, size: 0x8, addend: 0x0, symName: __ZNSt3__114regex_iteratorINS_11__wrap_iterIPKcEEcNS_12regex_traitsIcEEED1Ev, symObjAddr: 0xA8D4, symBinAddr: 0x10000DA48, symSize: 0x2C }
  - { offsetInCU: 0x2DCE1, offset: 0x2DCE1, size: 0x8, addend: 0x0, symName: __ZNSt3__16vectorINS_12basic_stringIcNS_11char_traitsIcEENS_9allocatorIcEEEENS4_IS6_EEEC1ERKS8_, symObjAddr: 0xA900, symBinAddr: 0x10000DA74, symSize: 0x34 }
  - { offsetInCU: 0x2DD1C, offset: 0x2DD1C, size: 0x8, addend: 0x0, symName: __ZNSt3__16vectorINS_12basic_stringIcNS_11char_traitsIcEENS_9allocatorIcEEEENS4_IS6_EEED1B8ue170006Ev, symObjAddr: 0xA934, symBinAddr: 0x10000DAA8, symSize: 0x2C }
  - { offsetInCU: 0x2DD46, offset: 0x2DD46, size: 0x8, addend: 0x0, symName: __ZNSt3__114basic_ifstreamIcNS_11char_traitsIcEEE5closeEv, symObjAddr: 0xA994, symBinAddr: 0x10000DB08, symSize: 0x58 }
  - { offsetInCU: 0x2DD73, offset: 0x2DD73, size: 0x8, addend: 0x0, symName: __ZNSt3__111basic_regexIcNS_12regex_traitsIcEEED1Ev, symObjAddr: 0xA9EC, symBinAddr: 0x10000DB60, symSize: 0x2C }
  - { offsetInCU: 0x2DDA5, offset: 0x2DDA5, size: 0x8, addend: 0x0, symName: __ZNSt3__114basic_ifstreamIcNS_11char_traitsIcEEED1Ev, symObjAddr: 0xAA18, symBinAddr: 0x10000DB8C, symSize: 0x40 }
  - { offsetInCU: 0x2DDD2, offset: 0x2DDD2, size: 0x8, addend: 0x0, symName: __ZNSt3__111__wrap_iterIPKcEC2B8ue170006IPcEERKNS0_IT_EEPNS_9enable_ifIXsr14is_convertibleIS6_S2_EE5valueEvE4typeE, symObjAddr: 0xAA58, symBinAddr: 0x10000DBCC, symSize: 0x40 }
  - { offsetInCU: 0x2DE1D, offset: 0x2DE1D, size: 0x8, addend: 0x0, symName: __ZNKSt3__111__wrap_iterIPcE4baseB8ue170006Ev, symObjAddr: 0xAA98, symBinAddr: 0x10000DC0C, symSize: 0x18 }
  - { offsetInCU: 0x2DE43, offset: 0x2DE43, size: 0x8, addend: 0x0, symName: __ZNSt3__114regex_iteratorINS_11__wrap_iterIPKcEEcNS_12regex_traitsIcEEEC2ERKS7_, symObjAddr: 0xAAB0, symBinAddr: 0x10000DC24, symSize: 0x50 }
  - { offsetInCU: 0x2DE84, offset: 0x2DE84, size: 0x8, addend: 0x0, symName: __ZNSt3__113match_resultsINS_11__wrap_iterIPKcEENS_9allocatorINS_9sub_matchIS4_EEEEEC1ERKS9_, symObjAddr: 0xAB00, symBinAddr: 0x10000DC74, symSize: 0x34 }
  - { offsetInCU: 0x2DEBA, offset: 0x2DEBA, size: 0x8, addend: 0x0, symName: __ZNSt3__113match_resultsINS_11__wrap_iterIPKcEENS_9allocatorINS_9sub_matchIS4_EEEEEC2ERKS9_, symObjAddr: 0xAB34, symBinAddr: 0x10000DCA8, symSize: 0x4C }
  - { offsetInCU: 0x2DEF0, offset: 0x2DEF0, size: 0x8, addend: 0x0, symName: __ZNSt3__16vectorINS_9sub_matchINS_11__wrap_iterIPKcEEEENS_9allocatorIS6_EEEC1ERKS9_, symObjAddr: 0xAB80, symBinAddr: 0x10000DCF4, symSize: 0x34 }
  - { offsetInCU: 0x2DF2B, offset: 0x2DF2B, size: 0x8, addend: 0x0, symName: __ZNSt3__16vectorINS_9sub_matchINS_11__wrap_iterIPKcEEEENS_9allocatorIS6_EEEC2ERKS9_, symObjAddr: 0xABB4, symBinAddr: 0x10000DD28, symSize: 0x94 }
  - { offsetInCU: 0x2DF71, offset: 0x2DF71, size: 0x8, addend: 0x0, symName: __ZNSt3__116allocator_traitsINS_9allocatorINS_9sub_matchINS_11__wrap_iterIPKcEEEEEEE37select_on_container_copy_constructionB8ue170006IS8_vvEES8_RKS8_, symObjAddr: 0xAC48, symBinAddr: 0x10000DDBC, symSize: 0x10 }
  - { offsetInCU: 0x2DFA0, offset: 0x2DFA0, size: 0x8, addend: 0x0, symName: __ZNKSt3__16vectorINS_9sub_matchINS_11__wrap_iterIPKcEEEENS_9allocatorIS6_EEE7__allocB8ue170006Ev, symObjAddr: 0xAC58, symBinAddr: 0x10000DDCC, symSize: 0x28 }
  - { offsetInCU: 0x2DFD2, offset: 0x2DFD2, size: 0x8, addend: 0x0, symName: __ZNSt3__117__compressed_pairIPNS_9sub_matchINS_11__wrap_iterIPKcEEEENS_9allocatorIS6_EEEC1B8ue170006IDnS9_EEOT_OT0_, symObjAddr: 0xAC80, symBinAddr: 0x10000DDF4, symSize: 0x3C }
  - { offsetInCU: 0x2E02A, offset: 0x2E02A, size: 0x8, addend: 0x0, symName: __ZNSt3__16vectorINS_9sub_matchINS_11__wrap_iterIPKcEEEENS_9allocatorIS6_EEE16__init_with_sizeB8ue170006IPS6_SB_EEvT_T0_m, symObjAddr: 0xACBC, symBinAddr: 0x10000DE30, symSize: 0xB8 }
  - { offsetInCU: 0x2E09E, offset: 0x2E09E, size: 0x8, addend: 0x0, symName: __ZNKSt3__16vectorINS_9sub_matchINS_11__wrap_iterIPKcEEEENS_9allocatorIS6_EEE4sizeB8ue170006Ev, symObjAddr: 0xAD74, symBinAddr: 0x10000DEE8, symSize: 0x28 }
  - { offsetInCU: 0x2E0C4, offset: 0x2E0C4, size: 0x8, addend: 0x0, symName: __ZNKSt3__117__compressed_pairIPNS_9sub_matchINS_11__wrap_iterIPKcEEEENS_9allocatorIS6_EEE6secondB8ue170006Ev, symObjAddr: 0xAD9C, symBinAddr: 0x10000DF10, symSize: 0x24 }
  - { offsetInCU: 0x2E0EA, offset: 0x2E0EA, size: 0x8, addend: 0x0, symName: __ZNKSt3__122__compressed_pair_elemINS_9allocatorINS_9sub_matchINS_11__wrap_iterIPKcEEEEEELi1ELb1EE5__getB8ue170006Ev, symObjAddr: 0xADC0, symBinAddr: 0x10000DF34, symSize: 0x14 }
  - { offsetInCU: 0x2E110, offset: 0x2E110, size: 0x8, addend: 0x0, symName: __ZNSt3__117__compressed_pairIPNS_9sub_matchINS_11__wrap_iterIPKcEEEENS_9allocatorIS6_EEEC2B8ue170006IDnS9_EEOT_OT0_, symObjAddr: 0xADD4, symBinAddr: 0x10000DF48, symSize: 0x44 }
  - { offsetInCU: 0x2E168, offset: 0x2E168, size: 0x8, addend: 0x0, symName: __ZNSt3__122__compressed_pair_elemIPNS_9sub_matchINS_11__wrap_iterIPKcEEEELi0ELb0EEC2B8ue170006IDnvEEOT_, symObjAddr: 0xAE18, symBinAddr: 0x10000DF8C, symSize: 0x1C }
  - { offsetInCU: 0x2E1AA, offset: 0x2E1AA, size: 0x8, addend: 0x0, symName: __ZNSt3__122__compressed_pair_elemINS_9allocatorINS_9sub_matchINS_11__wrap_iterIPKcEEEEEELi1ELb1EEC2B8ue170006IS8_vEEOT_, symObjAddr: 0xAE34, symBinAddr: 0x10000DFA8, symSize: 0x18 }
  - { offsetInCU: 0x2E1EC, offset: 0x2E1EC, size: 0x8, addend: 0x0, symName: __ZNSt3__16vectorINS_9sub_matchINS_11__wrap_iterIPKcEEEENS_9allocatorIS6_EEE16__destroy_vectorC1B8ue170006ERS9_, symObjAddr: 0xAE8C, symBinAddr: 0x10000E000, symSize: 0x34 }
  - { offsetInCU: 0x2E225, offset: 0x2E225, size: 0x8, addend: 0x0, symName: __ZNSt3__16vectorINS_9sub_matchINS_11__wrap_iterIPKcEEEENS_9allocatorIS6_EEE11__vallocateB8ue170006Em, symObjAddr: 0xAEC0, symBinAddr: 0x10000E034, symSize: 0xB4 }
  - { offsetInCU: 0x2E269, offset: 0x2E269, size: 0x8, addend: 0x0, symName: __ZNSt3__16vectorINS_9sub_matchINS_11__wrap_iterIPKcEEEENS_9allocatorIS6_EEE18__construct_at_endIPS6_SB_EEvT_T0_m, symObjAddr: 0xAF74, symBinAddr: 0x10000E0E8, symSize: 0x8C }
  - { offsetInCU: 0x2E2DF, offset: 0x2E2DF, size: 0x8, addend: 0x0, symName: __ZNSt3__128__exception_guard_exceptionsINS_6vectorINS_9sub_matchINS_11__wrap_iterIPKcEEEENS_9allocatorIS7_EEE16__destroy_vectorEE10__completeB8ue170006Ev, symObjAddr: 0xB000, symBinAddr: 0x10000E174, symSize: 0x1C }
  - { offsetInCU: 0x2E305, offset: 0x2E305, size: 0x8, addend: 0x0, symName: __ZNSt3__128__exception_guard_exceptionsINS_6vectorINS_9sub_matchINS_11__wrap_iterIPKcEEEENS_9allocatorIS7_EEE16__destroy_vectorEED1B8ue170006Ev, symObjAddr: 0xB01C, symBinAddr: 0x10000E190, symSize: 0x2C }
  - { offsetInCU: 0x2E32F, offset: 0x2E32F, size: 0x8, addend: 0x0, symName: __ZNSt3__128__exception_guard_exceptionsINS_6vectorINS_9sub_matchINS_11__wrap_iterIPKcEEEENS_9allocatorIS7_EEE16__destroy_vectorEEC1B8ue170006ESB_, symObjAddr: 0xB048, symBinAddr: 0x10000E1BC, symSize: 0x34 }
  - { offsetInCU: 0x2E367, offset: 0x2E367, size: 0x8, addend: 0x0, symName: __ZNSt3__128__exception_guard_exceptionsINS_6vectorINS_9sub_matchINS_11__wrap_iterIPKcEEEENS_9allocatorIS7_EEE16__destroy_vectorEEC2B8ue170006ESB_, symObjAddr: 0xB07C, symBinAddr: 0x10000E1F0, symSize: 0x24 }
  - { offsetInCU: 0x2E39F, offset: 0x2E39F, size: 0x8, addend: 0x0, symName: __ZNSt3__16vectorINS_9sub_matchINS_11__wrap_iterIPKcEEEENS_9allocatorIS6_EEE16__destroy_vectorC2B8ue170006ERS9_, symObjAddr: 0xB0A0, symBinAddr: 0x10000E214, symSize: 0x20 }
  - { offsetInCU: 0x2E3D8, offset: 0x2E3D8, size: 0x8, addend: 0x0, symName: __ZNKSt3__16vectorINS_9sub_matchINS_11__wrap_iterIPKcEEEENS_9allocatorIS6_EEE8max_sizeEv, symObjAddr: 0xB0C0, symBinAddr: 0x10000E234, symSize: 0x60 }
  - { offsetInCU: 0x2E400, offset: 0x2E400, size: 0x8, addend: 0x0, symName: __ZNKSt3__16vectorINS_9sub_matchINS_11__wrap_iterIPKcEEEENS_9allocatorIS6_EEE20__throw_length_errorB8ue170006Ev, symObjAddr: 0xB120, symBinAddr: 0x10000E294, symSize: 0x1C }
  - { offsetInCU: 0x2E426, offset: 0x2E426, size: 0x8, addend: 0x0, symName: __ZNSt3__16vectorINS_9sub_matchINS_11__wrap_iterIPKcEEEENS_9allocatorIS6_EEE7__allocB8ue170006Ev, symObjAddr: 0xB17C, symBinAddr: 0x10000E2F0, symSize: 0x28 }
  - { offsetInCU: 0x2E44C, offset: 0x2E44C, size: 0x8, addend: 0x0, symName: __ZNSt3__16vectorINS_9sub_matchINS_11__wrap_iterIPKcEEEENS_9allocatorIS6_EEE9__end_capB8ue170006Ev, symObjAddr: 0xB1A4, symBinAddr: 0x10000E318, symSize: 0x28 }
  - { offsetInCU: 0x2E472, offset: 0x2E472, size: 0x8, addend: 0x0, symName: __ZNKSt3__16vectorINS_9sub_matchINS_11__wrap_iterIPKcEEEENS_9allocatorIS6_EEE14__annotate_newB8ue170006Em, symObjAddr: 0xB1CC, symBinAddr: 0x10000E340, symSize: 0xC8 }
  - { offsetInCU: 0x2E4A7, offset: 0x2E4A7, size: 0x8, addend: 0x0, symName: __ZNSt3__116allocator_traitsINS_9allocatorINS_9sub_matchINS_11__wrap_iterIPKcEEEEEEE8max_sizeB8ue170006IS8_vEEmRKS8_, symObjAddr: 0xB2C0, symBinAddr: 0x10000E434, symSize: 0x24 }
  - { offsetInCU: 0x2E4D5, offset: 0x2E4D5, size: 0x8, addend: 0x0, symName: __ZNSt3__114numeric_limitsIlE3maxB8ue170006Ev, symObjAddr: 0xB2E4, symBinAddr: 0x10000E458, symSize: 0x14 }
  - { offsetInCU: 0x2E4F3, offset: 0x2E4F3, size: 0x8, addend: 0x0, symName: __ZNKSt3__16__lessIvvEclB8ue170006ImmEEbRKT_RKT0_, symObjAddr: 0xB34C, symBinAddr: 0x10000E4C0, symSize: 0x34 }
  - { offsetInCU: 0x2E547, offset: 0x2E547, size: 0x8, addend: 0x0, symName: __ZNKSt3__19allocatorINS_9sub_matchINS_11__wrap_iterIPKcEEEEE8max_sizeB8ue170006Ev, symObjAddr: 0xB380, symBinAddr: 0x10000E4F4, symSize: 0x18 }
  - { offsetInCU: 0x2E56D, offset: 0x2E56D, size: 0x8, addend: 0x0, symName: __ZNSt3__123__libcpp_numeric_limitsIlLb1EE3maxB8ue170006Ev, symObjAddr: 0xB398, symBinAddr: 0x10000E50C, symSize: 0x8 }
  - { offsetInCU: 0x2E581, offset: 0x2E581, size: 0x8, addend: 0x0, symName: __ZNSt12length_errorC1B8ue170006EPKc, symObjAddr: 0xB404, symBinAddr: 0x10000E578, symSize: 0x34 }
  - { offsetInCU: 0x2E5B9, offset: 0x2E5B9, size: 0x8, addend: 0x0, symName: __ZNSt12length_errorC2B8ue170006EPKc, symObjAddr: 0xB438, symBinAddr: 0x10000E5AC, symSize: 0x4C }
  - { offsetInCU: 0x2E5F1, offset: 0x2E5F1, size: 0x8, addend: 0x0, symName: __ZNSt3__19allocatorINS_9sub_matchINS_11__wrap_iterIPKcEEEEE8allocateB8ue170006Em, symObjAddr: 0xB484, symBinAddr: 0x10000E5F8, symSize: 0x5C }
  - { offsetInCU: 0x2E625, offset: 0x2E625, size: 0x8, addend: 0x0, symName: __ZNSt3__117__compressed_pairIPNS_9sub_matchINS_11__wrap_iterIPKcEEEENS_9allocatorIS6_EEE6secondB8ue170006Ev, symObjAddr: 0xB560, symBinAddr: 0x10000E6D4, symSize: 0x24 }
  - { offsetInCU: 0x2E64B, offset: 0x2E64B, size: 0x8, addend: 0x0, symName: __ZNSt3__122__compressed_pair_elemINS_9allocatorINS_9sub_matchINS_11__wrap_iterIPKcEEEEEELi1ELb1EE5__getB8ue170006Ev, symObjAddr: 0xB584, symBinAddr: 0x10000E6F8, symSize: 0x14 }
  - { offsetInCU: 0x2E671, offset: 0x2E671, size: 0x8, addend: 0x0, symName: __ZNSt3__117__compressed_pairIPNS_9sub_matchINS_11__wrap_iterIPKcEEEENS_9allocatorIS6_EEE5firstB8ue170006Ev, symObjAddr: 0xB598, symBinAddr: 0x10000E70C, symSize: 0x24 }
  - { offsetInCU: 0x2E697, offset: 0x2E697, size: 0x8, addend: 0x0, symName: __ZNSt3__122__compressed_pair_elemIPNS_9sub_matchINS_11__wrap_iterIPKcEEEELi0ELb0EE5__getB8ue170006Ev, symObjAddr: 0xB5BC, symBinAddr: 0x10000E730, symSize: 0x14 }
  - { offsetInCU: 0x2E6BD, offset: 0x2E6BD, size: 0x8, addend: 0x0, symName: __ZNKSt3__16vectorINS_9sub_matchINS_11__wrap_iterIPKcEEEENS_9allocatorIS6_EEE31__annotate_contiguous_containerB8ue170006EPKvSB_SB_SB_, symObjAddr: 0xB5D0, symBinAddr: 0x10000E744, symSize: 0x20 }
  - { offsetInCU: 0x2E70F, offset: 0x2E70F, size: 0x8, addend: 0x0, symName: __ZNKSt3__16vectorINS_9sub_matchINS_11__wrap_iterIPKcEEEENS_9allocatorIS6_EEE4dataB8ue170006Ev, symObjAddr: 0xB5F0, symBinAddr: 0x10000E764, symSize: 0x28 }
  - { offsetInCU: 0x2E735, offset: 0x2E735, size: 0x8, addend: 0x0, symName: __ZNKSt3__16vectorINS_9sub_matchINS_11__wrap_iterIPKcEEEENS_9allocatorIS6_EEE8capacityB8ue170006Ev, symObjAddr: 0xB618, symBinAddr: 0x10000E78C, symSize: 0x40 }
  - { offsetInCU: 0x2E75B, offset: 0x2E75B, size: 0x8, addend: 0x0, symName: __ZNKSt3__16vectorINS_9sub_matchINS_11__wrap_iterIPKcEEEENS_9allocatorIS6_EEE9__end_capB8ue170006Ev, symObjAddr: 0xB66C, symBinAddr: 0x10000E7E0, symSize: 0x28 }
  - { offsetInCU: 0x2E781, offset: 0x2E781, size: 0x8, addend: 0x0, symName: __ZNKSt3__117__compressed_pairIPNS_9sub_matchINS_11__wrap_iterIPKcEEEENS_9allocatorIS6_EEE5firstB8ue170006Ev, symObjAddr: 0xB694, symBinAddr: 0x10000E808, symSize: 0x24 }
  - { offsetInCU: 0x2E7A7, offset: 0x2E7A7, size: 0x8, addend: 0x0, symName: __ZNKSt3__122__compressed_pair_elemIPNS_9sub_matchINS_11__wrap_iterIPKcEEEELi0ELb0EE5__getB8ue170006Ev, symObjAddr: 0xB6B8, symBinAddr: 0x10000E82C, symSize: 0x14 }
  - { offsetInCU: 0x2E7E8, offset: 0x2E7E8, size: 0x8, addend: 0x0, symName: __ZNSt3__16vectorINS_9sub_matchINS_11__wrap_iterIPKcEEEENS_9allocatorIS6_EEE21_ConstructTransactionC1B8ue170006ERS9_m, symObjAddr: 0xB6CC, symBinAddr: 0x10000E840, symSize: 0x3C }
  - { offsetInCU: 0x2E830, offset: 0x2E830, size: 0x8, addend: 0x0, symName: __ZNSt3__16vectorINS_9sub_matchINS_11__wrap_iterIPKcEEEENS_9allocatorIS6_EEE21_ConstructTransactionD1B8ue170006Ev, symObjAddr: 0xB788, symBinAddr: 0x10000E8FC, symSize: 0x2C }
  - { offsetInCU: 0x2E85A, offset: 0x2E85A, size: 0x8, addend: 0x0, symName: __ZNSt3__16vectorINS_9sub_matchINS_11__wrap_iterIPKcEEEENS_9allocatorIS6_EEE21_ConstructTransactionC2B8ue170006ERS9_m, symObjAddr: 0xB7B4, symBinAddr: 0x10000E928, symSize: 0x4C }
  - { offsetInCU: 0x2E8C4, offset: 0x2E8C4, size: 0x8, addend: 0x0, symName: __ZNSt3__14pairIPNS_9sub_matchINS_11__wrap_iterIPKcEEEES7_EC1B8ue170006IS7_S7_LPv0EEEOT_OT0_, symObjAddr: 0xB9EC, symBinAddr: 0x10000EB60, symSize: 0x3C }
  - { offsetInCU: 0x2E922, offset: 0x2E922, size: 0x8, addend: 0x0, symName: __ZNSt3__14pairIPNS_9sub_matchINS_11__wrap_iterIPKcEEEES7_EC2B8ue170006IS7_S7_LPv0EEEOT_OT0_, symObjAddr: 0xBA28, symBinAddr: 0x10000EB9C, symSize: 0x34 }
  - { offsetInCU: 0x2E980, offset: 0x2E980, size: 0x8, addend: 0x0, symName: __ZNSt3__129_AllocatorDestroyRangeReverseINS_9allocatorINS_9sub_matchINS_11__wrap_iterIPKcEEEEEEPS7_EC1B8ue170006ERS8_RS9_SC_, symObjAddr: 0xBAA8, symBinAddr: 0x10000EC1C, symSize: 0x44 }
  - { offsetInCU: 0x2E9D7, offset: 0x2E9D7, size: 0x8, addend: 0x0, symName: __ZNSt3__116allocator_traitsINS_9allocatorINS_9sub_matchINS_11__wrap_iterIPKcEEEEEEE9constructB8ue170006IS7_JRS7_EvEEvRS8_PT_DpOT0_, symObjAddr: 0xBAEC, symBinAddr: 0x10000EC60, symSize: 0x34 }
  - { offsetInCU: 0x2EA2E, offset: 0x2EA2E, size: 0x8, addend: 0x0, symName: __ZNSt3__128__exception_guard_exceptionsINS_29_AllocatorDestroyRangeReverseINS_9allocatorINS_9sub_matchINS_11__wrap_iterIPKcEEEEEEPS8_EEE10__completeB8ue170006Ev, symObjAddr: 0xBB20, symBinAddr: 0x10000EC94, symSize: 0x1C }
  - { offsetInCU: 0x2EA54, offset: 0x2EA54, size: 0x8, addend: 0x0, symName: __ZNSt3__128__exception_guard_exceptionsINS_29_AllocatorDestroyRangeReverseINS_9allocatorINS_9sub_matchINS_11__wrap_iterIPKcEEEEEEPS8_EEED1B8ue170006Ev, symObjAddr: 0xBB3C, symBinAddr: 0x10000ECB0, symSize: 0x2C }
  - { offsetInCU: 0x2EA7E, offset: 0x2EA7E, size: 0x8, addend: 0x0, symName: __ZNSt3__128__exception_guard_exceptionsINS_29_AllocatorDestroyRangeReverseINS_9allocatorINS_9sub_matchINS_11__wrap_iterIPKcEEEEEEPS8_EEEC1B8ue170006ESB_, symObjAddr: 0xBB68, symBinAddr: 0x10000ECDC, symSize: 0x34 }
  - { offsetInCU: 0x2EAB7, offset: 0x2EAB7, size: 0x8, addend: 0x0, symName: __ZNSt3__128__exception_guard_exceptionsINS_29_AllocatorDestroyRangeReverseINS_9allocatorINS_9sub_matchINS_11__wrap_iterIPKcEEEEEEPS8_EEEC2B8ue170006ESB_, symObjAddr: 0xBB9C, symBinAddr: 0x10000ED10, symSize: 0x30 }
  - { offsetInCU: 0x2EAF0, offset: 0x2EAF0, size: 0x8, addend: 0x0, symName: __ZNSt3__129_AllocatorDestroyRangeReverseINS_9allocatorINS_9sub_matchINS_11__wrap_iterIPKcEEEEEEPS7_EC2B8ue170006ERS8_RS9_SC_, symObjAddr: 0xBBCC, symBinAddr: 0x10000ED40, symSize: 0x38 }
  - { offsetInCU: 0x2EB47, offset: 0x2EB47, size: 0x8, addend: 0x0, symName: __ZNSt3__19allocatorINS_9sub_matchINS_11__wrap_iterIPKcEEEEE9constructB8ue170006IS6_JRS6_EEEvPT_DpOT0_, symObjAddr: 0xBC04, symBinAddr: 0x10000ED78, symSize: 0x30 }
  - { offsetInCU: 0x2EB9D, offset: 0x2EB9D, size: 0x8, addend: 0x0, symName: __ZNSt3__128__exception_guard_exceptionsINS_29_AllocatorDestroyRangeReverseINS_9allocatorINS_9sub_matchINS_11__wrap_iterIPKcEEEEEEPS8_EEED2B8ue170006Ev, symObjAddr: 0xBC34, symBinAddr: 0x10000EDA8, symSize: 0x50 }
  - { offsetInCU: 0x2EBC7, offset: 0x2EBC7, size: 0x8, addend: 0x0, symName: __ZNKSt3__129_AllocatorDestroyRangeReverseINS_9allocatorINS_9sub_matchINS_11__wrap_iterIPKcEEEEEEPS7_EclB8ue170006Ev, symObjAddr: 0xBC84, symBinAddr: 0x10000EDF8, symSize: 0x68 }
  - { offsetInCU: 0x2EBED, offset: 0x2EBED, size: 0x8, addend: 0x0, symName: __ZNSt3__116reverse_iteratorIPNS_9sub_matchINS_11__wrap_iterIPKcEEEEEC1B8ue170006ES7_, symObjAddr: 0xBD5C, symBinAddr: 0x10000EED0, symSize: 0x34 }
  - { offsetInCU: 0x2EC25, offset: 0x2EC25, size: 0x8, addend: 0x0, symName: __ZNSt3__116allocator_traitsINS_9allocatorINS_9sub_matchINS_11__wrap_iterIPKcEEEEEEE7destroyB8ue170006IS7_vEEvRS8_PT_, symObjAddr: 0xBDD8, symBinAddr: 0x10000EF4C, symSize: 0x2C }
  - { offsetInCU: 0x2EC62, offset: 0x2EC62, size: 0x8, addend: 0x0, symName: __ZNSt3__116reverse_iteratorIPNS_9sub_matchINS_11__wrap_iterIPKcEEEEEppB8ue170006Ev, symObjAddr: 0xBE28, symBinAddr: 0x10000EF9C, symSize: 0x20 }
  - { offsetInCU: 0x2EC88, offset: 0x2EC88, size: 0x8, addend: 0x0, symName: __ZNKSt3__116reverse_iteratorIPNS_9sub_matchINS_11__wrap_iterIPKcEEEEE4baseB8ue170006Ev, symObjAddr: 0xBE48, symBinAddr: 0x10000EFBC, symSize: 0x18 }
  - { offsetInCU: 0x2ECAE, offset: 0x2ECAE, size: 0x8, addend: 0x0, symName: __ZNSt3__19allocatorINS_9sub_matchINS_11__wrap_iterIPKcEEEEE7destroyB8ue170006EPS6_, symObjAddr: 0xBE60, symBinAddr: 0x10000EFD4, symSize: 0x14 }
  - { offsetInCU: 0x2ECE8, offset: 0x2ECE8, size: 0x8, addend: 0x0, symName: __ZNSt3__119__to_address_helperINS_16reverse_iteratorIPNS_9sub_matchINS_11__wrap_iterIPKcEEEEEEvE6__callB8ue170006ERKS9_, symObjAddr: 0xBE74, symBinAddr: 0x10000EFE8, symSize: 0x38 }
  - { offsetInCU: 0x2ED0B, offset: 0x2ED0B, size: 0x8, addend: 0x0, symName: __ZNKSt3__116reverse_iteratorIPNS_9sub_matchINS_11__wrap_iterIPKcEEEEEptB8ue170006Ev, symObjAddr: 0xBEAC, symBinAddr: 0x10000F020, symSize: 0x24 }
  - { offsetInCU: 0x2ED31, offset: 0x2ED31, size: 0x8, addend: 0x0, symName: __ZNKSt3__116reverse_iteratorIPNS_9sub_matchINS_11__wrap_iterIPKcEEEEEdeB8ue170006Ev, symObjAddr: 0xBED0, symBinAddr: 0x10000F044, symSize: 0x28 }
  - { offsetInCU: 0x2ED65, offset: 0x2ED65, size: 0x8, addend: 0x0, symName: __ZNSt3__116reverse_iteratorIPNS_9sub_matchINS_11__wrap_iterIPKcEEEEEC2B8ue170006ES7_, symObjAddr: 0xBEF8, symBinAddr: 0x10000F06C, symSize: 0x28 }
  - { offsetInCU: 0x2ED9D, offset: 0x2ED9D, size: 0x8, addend: 0x0, symName: __ZNSt3__118__unwrap_iter_implIPNS_9sub_matchINS_11__wrap_iterIPKcEEEELb1EE8__unwrapB8ue170006ES7_, symObjAddr: 0xBF20, symBinAddr: 0x10000F094, symSize: 0x24 }
  - { offsetInCU: 0x2EDC0, offset: 0x2EDC0, size: 0x8, addend: 0x0, symName: __ZNSt3__118__unwrap_iter_implIPNS_9sub_matchINS_11__wrap_iterIPKcEEEELb1EE8__rewrapB8ue170006ES7_S7_, symObjAddr: 0xBF44, symBinAddr: 0x10000F0B8, symSize: 0x58 }
  - { offsetInCU: 0x2EDF1, offset: 0x2EDF1, size: 0x8, addend: 0x0, symName: __ZNSt3__16vectorINS_9sub_matchINS_11__wrap_iterIPKcEEEENS_9allocatorIS6_EEE21_ConstructTransactionD2B8ue170006Ev, symObjAddr: 0xBF9C, symBinAddr: 0x10000F110, symSize: 0x20 }
  - { offsetInCU: 0x2EE1B, offset: 0x2EE1B, size: 0x8, addend: 0x0, symName: __ZNSt3__128__exception_guard_exceptionsINS_6vectorINS_9sub_matchINS_11__wrap_iterIPKcEEEENS_9allocatorIS7_EEE16__destroy_vectorEED2B8ue170006Ev, symObjAddr: 0xBFBC, symBinAddr: 0x10000F130, symSize: 0x50 }
  - { offsetInCU: 0x2EE45, offset: 0x2EE45, size: 0x8, addend: 0x0, symName: __ZNSt3__16vectorINS_9sub_matchINS_11__wrap_iterIPKcEEEENS_9allocatorIS6_EEE16__destroy_vectorclB8ue170006Ev, symObjAddr: 0xC00C, symBinAddr: 0x10000F180, symSize: 0x90 }
  - { offsetInCU: 0x2EE6B, offset: 0x2EE6B, size: 0x8, addend: 0x0, symName: __ZNSt3__16vectorINS_9sub_matchINS_11__wrap_iterIPKcEEEENS_9allocatorIS6_EEE7__clearB8ue170006Ev, symObjAddr: 0xC09C, symBinAddr: 0x10000F210, symSize: 0x28 }
  - { offsetInCU: 0x2EE91, offset: 0x2EE91, size: 0x8, addend: 0x0, symName: __ZNKSt3__16vectorINS_9sub_matchINS_11__wrap_iterIPKcEEEENS_9allocatorIS6_EEE17__annotate_deleteB8ue170006Ev, symObjAddr: 0xC0C4, symBinAddr: 0x10000F238, symSize: 0xD4 }
  - { offsetInCU: 0x2EEB7, offset: 0x2EEB7, size: 0x8, addend: 0x0, symName: __ZNSt3__116allocator_traitsINS_9allocatorINS_9sub_matchINS_11__wrap_iterIPKcEEEEEEE10deallocateB8ue170006ERS8_PS7_m, symObjAddr: 0xC198, symBinAddr: 0x10000F30C, symSize: 0x34 }
  - { offsetInCU: 0x2EEF9, offset: 0x2EEF9, size: 0x8, addend: 0x0, symName: __ZNSt3__16vectorINS_9sub_matchINS_11__wrap_iterIPKcEEEENS_9allocatorIS6_EEE22__base_destruct_at_endB8ue170006EPS6_, symObjAddr: 0xC1CC, symBinAddr: 0x10000F340, symSize: 0x8C }
  - { offsetInCU: 0x2EF3D, offset: 0x2EF3D, size: 0x8, addend: 0x0, symName: __ZNSt3__19allocatorINS_9sub_matchINS_11__wrap_iterIPKcEEEEE10deallocateB8ue170006EPS6_m, symObjAddr: 0xC258, symBinAddr: 0x10000F3CC, symSize: 0x44 }
  - { offsetInCU: 0x2EF7F, offset: 0x2EF7F, size: 0x8, addend: 0x0, symName: __ZNSt3__114regex_iteratorINS_11__wrap_iterIPKcEEcNS_12regex_traitsIcEEED2Ev, symObjAddr: 0xC318, symBinAddr: 0x10000F48C, symSize: 0x30 }
  - { offsetInCU: 0x2EFAC, offset: 0x2EFAC, size: 0x8, addend: 0x0, symName: __ZNSt3__113match_resultsINS_11__wrap_iterIPKcEENS_9allocatorINS_9sub_matchIS4_EEEEED1Ev, symObjAddr: 0xC348, symBinAddr: 0x10000F4BC, symSize: 0x2C }
  - { offsetInCU: 0x2EFD9, offset: 0x2EFD9, size: 0x8, addend: 0x0, symName: __ZNSt3__113match_resultsINS_11__wrap_iterIPKcEENS_9allocatorINS_9sub_matchIS4_EEEEED2Ev, symObjAddr: 0xC374, symBinAddr: 0x10000F4E8, symSize: 0x2C }
  - { offsetInCU: 0x2F006, offset: 0x2F006, size: 0x8, addend: 0x0, symName: __ZNSt3__16vectorINS_9sub_matchINS_11__wrap_iterIPKcEEEENS_9allocatorIS6_EEED1B8ue170006Ev, symObjAddr: 0xC3A0, symBinAddr: 0x10000F514, symSize: 0x2C }
  - { offsetInCU: 0x2F030, offset: 0x2F030, size: 0x8, addend: 0x0, symName: __ZNSt3__16vectorINS_9sub_matchINS_11__wrap_iterIPKcEEEENS_9allocatorIS6_EEED2B8ue170006Ev, symObjAddr: 0xC3CC, symBinAddr: 0x10000F540, symSize: 0x40 }
  - { offsetInCU: 0x2F05A, offset: 0x2F05A, size: 0x8, addend: 0x0, symName: __ZNSt3__111basic_regexIcNS_12regex_traitsIcEEED2Ev, symObjAddr: 0xC40C, symBinAddr: 0x10000F580, symSize: 0x38 }
  - { offsetInCU: 0x2F087, offset: 0x2F087, size: 0x8, addend: 0x0, symName: __ZNSt3__110shared_ptrINS_13__empty_stateIcEEED1B8ue170006Ev, symObjAddr: 0xC444, symBinAddr: 0x10000F5B8, symSize: 0x2C }
  - { offsetInCU: 0x2F0B1, offset: 0x2F0B1, size: 0x8, addend: 0x0, symName: __ZNSt3__112regex_traitsIcED1Ev, symObjAddr: 0xC470, symBinAddr: 0x10000F5E4, symSize: 0x2C }
  - { offsetInCU: 0x2F0DE, offset: 0x2F0DE, size: 0x8, addend: 0x0, symName: __ZNSt3__110shared_ptrINS_13__empty_stateIcEEED2B8ue170006Ev, symObjAddr: 0xC49C, symBinAddr: 0x10000F610, symSize: 0x54 }
  - { offsetInCU: 0x2F108, offset: 0x2F108, size: 0x8, addend: 0x0, symName: __ZNSt3__119__shared_weak_count16__release_sharedB8ue170006Ev, symObjAddr: 0xC4F0, symBinAddr: 0x10000F664, symSize: 0x3C }
  - { offsetInCU: 0x2F12E, offset: 0x2F12E, size: 0x8, addend: 0x0, symName: __ZNSt3__114__shared_count16__release_sharedB8ue170006Ev, symObjAddr: 0xC52C, symBinAddr: 0x10000F6A0, symSize: 0x7C }
  - { offsetInCU: 0x2F154, offset: 0x2F154, size: 0x8, addend: 0x0, symName: __ZNSt3__112regex_traitsIcED2Ev, symObjAddr: 0xC5D8, symBinAddr: 0x10000F74C, symSize: 0x2C }
  - { offsetInCU: 0x2F181, offset: 0x2F181, size: 0x8, addend: 0x0, symName: __ZNSt3__114basic_ifstreamIcNS_11char_traitsIcEEED2Ev, symObjAddr: 0xC604, symBinAddr: 0x10000F778, symSize: 0x64 }
  - { offsetInCU: 0x2F1BB, offset: 0x2F1BB, size: 0x8, addend: 0x0, symName: __ZTv0_n24_NSt3__114basic_ifstreamIcNS_11char_traitsIcEEED1Ev, symObjAddr: 0xC668, symBinAddr: 0x10000F7DC, symSize: 0x28 }
  - { offsetInCU: 0x2F1D2, offset: 0x2F1D2, size: 0x8, addend: 0x0, symName: __ZNSt3__112basic_stringIcNS_11char_traitsIcEENS_9allocatorIcEEEC2B8ue170006Ev, symObjAddr: 0xC690, symBinAddr: 0x10000F804, symSize: 0x48 }
  - { offsetInCU: 0x2F202, offset: 0x2F202, size: 0x8, addend: 0x0, symName: __ZNSt3__117__compressed_pairINS_12basic_stringIcNS_11char_traitsIcEENS_9allocatorIcEEE5__repES5_EC1B8ue170006INS_18__default_init_tagESA_EEOT_OT0_, symObjAddr: 0xC6D8, symBinAddr: 0x10000F84C, symSize: 0x3C }
  - { offsetInCU: 0x2F25A, offset: 0x2F25A, size: 0x8, addend: 0x0, symName: __ZNSt3__112basic_stringIcNS_11char_traitsIcEENS_9allocatorIcEEE14__default_initB8ue170006Ev, symObjAddr: 0xC714, symBinAddr: 0x10000F888, symSize: 0x40 }
  - { offsetInCU: 0x2F280, offset: 0x2F280, size: 0x8, addend: 0x0, symName: __ZNSt3__117__compressed_pairINS_12basic_stringIcNS_11char_traitsIcEENS_9allocatorIcEEE5__repES5_EC2B8ue170006INS_18__default_init_tagESA_EEOT_OT0_, symObjAddr: 0xC754, symBinAddr: 0x10000F8C8, symSize: 0x3C }
  - { offsetInCU: 0x2F2D8, offset: 0x2F2D8, size: 0x8, addend: 0x0, symName: __ZNSt3__122__compressed_pair_elemINS_12basic_stringIcNS_11char_traitsIcEENS_9allocatorIcEEE5__repELi0ELb0EEC2B8ue170006ENS_18__default_init_tagE, symObjAddr: 0xC790, symBinAddr: 0x10000F904, symSize: 0x14 }
  - { offsetInCU: 0x2F30C, offset: 0x2F30C, size: 0x8, addend: 0x0, symName: __ZNSt3__122__compressed_pair_elemINS_9allocatorIcEELi1ELb1EEC2B8ue170006ENS_18__default_init_tagE, symObjAddr: 0xC7A4, symBinAddr: 0x10000F918, symSize: 0x2C }
  - { offsetInCU: 0x2F340, offset: 0x2F340, size: 0x8, addend: 0x0, symName: __ZNSt3__19allocatorIcEC2B8ue170006Ev, symObjAddr: 0xC7D0, symBinAddr: 0x10000F944, symSize: 0x2C }
  - { offsetInCU: 0x2F36A, offset: 0x2F36A, size: 0x8, addend: 0x0, symName: __ZNSt3__116__non_trivial_ifILb1ENS_9allocatorIcEEEC2B8ue170006Ev, symObjAddr: 0xC7FC, symBinAddr: 0x10000F970, symSize: 0x14 }
  - { offsetInCU: 0x2F394, offset: 0x2F394, size: 0x8, addend: 0x0, symName: __ZNSt3__117__compressed_pairINS_12basic_stringIcNS_11char_traitsIcEENS_9allocatorIcEEE5__repES5_E5firstB8ue170006Ev, symObjAddr: 0xC810, symBinAddr: 0x10000F984, symSize: 0x24 }
  - { offsetInCU: 0x2F3BA, offset: 0x2F3BA, size: 0x8, addend: 0x0, symName: __ZNSt3__122__compressed_pair_elemINS_12basic_stringIcNS_11char_traitsIcEENS_9allocatorIcEEE5__repELi0ELb0EE5__getB8ue170006Ev, symObjAddr: 0xC834, symBinAddr: 0x10000F9A8, symSize: 0x14 }
  - { offsetInCU: 0x2F3E0, offset: 0x2F3E0, size: 0x8, addend: 0x0, symName: __ZNSt3__112basic_stringIcNS_11char_traitsIcEENS_9allocatorIcEEE13__move_assignB8ue170006ERS5_NS_17integral_constantIbLb1EEE, symObjAddr: 0xC848, symBinAddr: 0x10000F9BC, symSize: 0xC8 }
  - { offsetInCU: 0x2F422, offset: 0x2F422, size: 0x8, addend: 0x0, symName: __ZNKSt3__112basic_stringIcNS_11char_traitsIcEENS_9allocatorIcEEE9__is_longB8ue170006Ev, symObjAddr: 0xC910, symBinAddr: 0x10000FA84, symSize: 0x38 }
  - { offsetInCU: 0x2F448, offset: 0x2F448, size: 0x8, addend: 0x0, symName: __ZNSt3__116allocator_traitsINS_9allocatorIcEEE10deallocateB8ue170006ERS2_Pcm, symObjAddr: 0xC948, symBinAddr: 0x10000FABC, symSize: 0x34 }
  - { offsetInCU: 0x2F48A, offset: 0x2F48A, size: 0x8, addend: 0x0, symName: __ZNSt3__112basic_stringIcNS_11char_traitsIcEENS_9allocatorIcEEE7__allocB8ue170006Ev, symObjAddr: 0xC97C, symBinAddr: 0x10000FAF0, symSize: 0x24 }
  - { offsetInCU: 0x2F4B0, offset: 0x2F4B0, size: 0x8, addend: 0x0, symName: __ZNSt3__112basic_stringIcNS_11char_traitsIcEENS_9allocatorIcEEE18__get_long_pointerB8ue170006Ev, symObjAddr: 0xC9A0, symBinAddr: 0x10000FB14, symSize: 0x28 }
  - { offsetInCU: 0x2F4D6, offset: 0x2F4D6, size: 0x8, addend: 0x0, symName: __ZNKSt3__112basic_stringIcNS_11char_traitsIcEENS_9allocatorIcEEE14__get_long_capB8ue170006Ev, symObjAddr: 0xC9C8, symBinAddr: 0x10000FB3C, symSize: 0x30 }
  - { offsetInCU: 0x2F4FC, offset: 0x2F4FC, size: 0x8, addend: 0x0, symName: __ZNSt3__112basic_stringIcNS_11char_traitsIcEENS_9allocatorIcEEE19__move_assign_allocB8ue170006ERS5_, symObjAddr: 0xC9F8, symBinAddr: 0x10000FB6C, symSize: 0x2C }
  - { offsetInCU: 0x2F531, offset: 0x2F531, size: 0x8, addend: 0x0, symName: __ZNSt3__112basic_stringIcNS_11char_traitsIcEENS_9allocatorIcEEE16__set_short_sizeB8ue170006Em, symObjAddr: 0xCA24, symBinAddr: 0x10000FB98, symSize: 0x78 }
  - { offsetInCU: 0x2F566, offset: 0x2F566, size: 0x8, addend: 0x0, symName: __ZNSt3__111char_traitsIcE6assignB8ue170006ERcRKc, symObjAddr: 0xCA9C, symBinAddr: 0x10000FC10, symSize: 0x24 }
  - { offsetInCU: 0x2F597, offset: 0x2F597, size: 0x8, addend: 0x0, symName: __ZNSt3__112basic_stringIcNS_11char_traitsIcEENS_9allocatorIcEEE19__get_short_pointerB8ue170006Ev, symObjAddr: 0xCAC0, symBinAddr: 0x10000FC34, symSize: 0x28 }
  - { offsetInCU: 0x2F5BD, offset: 0x2F5BD, size: 0x8, addend: 0x0, symName: __ZNKSt3__117__compressed_pairINS_12basic_stringIcNS_11char_traitsIcEENS_9allocatorIcEEE5__repES5_E5firstB8ue170006Ev, symObjAddr: 0xCAE8, symBinAddr: 0x10000FC5C, symSize: 0x24 }
  - { offsetInCU: 0x2F5E3, offset: 0x2F5E3, size: 0x8, addend: 0x0, symName: __ZNKSt3__122__compressed_pair_elemINS_12basic_stringIcNS_11char_traitsIcEENS_9allocatorIcEEE5__repELi0ELb0EE5__getB8ue170006Ev, symObjAddr: 0xCB0C, symBinAddr: 0x10000FC80, symSize: 0x14 }
  - { offsetInCU: 0x2F609, offset: 0x2F609, size: 0x8, addend: 0x0, symName: __ZNSt3__19allocatorIcE10deallocateB8ue170006EPcm, symObjAddr: 0xCB20, symBinAddr: 0x10000FC94, symSize: 0x40 }
  - { offsetInCU: 0x2F64B, offset: 0x2F64B, size: 0x8, addend: 0x0, symName: __ZNSt3__117__compressed_pairINS_12basic_stringIcNS_11char_traitsIcEENS_9allocatorIcEEE5__repES5_E6secondB8ue170006Ev, symObjAddr: 0xCB60, symBinAddr: 0x10000FCD4, symSize: 0x24 }
  - { offsetInCU: 0x2F671, offset: 0x2F671, size: 0x8, addend: 0x0, symName: __ZNSt3__122__compressed_pair_elemINS_9allocatorIcEELi1ELb1EE5__getB8ue170006Ev, symObjAddr: 0xCB84, symBinAddr: 0x10000FCF8, symSize: 0x14 }
  - { offsetInCU: 0x2F697, offset: 0x2F697, size: 0x8, addend: 0x0, symName: __ZNSt3__112basic_stringIcNS_11char_traitsIcEENS_9allocatorIcEEE19__move_assign_allocB8ue170006ERS5_NS_17integral_constantIbLb1EEE, symObjAddr: 0xCB98, symBinAddr: 0x10000FD0C, symSize: 0x38 }
  - { offsetInCU: 0x2F6D7, offset: 0x2F6D7, size: 0x8, addend: 0x0, symName: __ZNSt3__114pointer_traitsIPcE10pointer_toB8ue170006ERc, symObjAddr: 0xCBD0, symBinAddr: 0x10000FD44, symSize: 0x14 }
  - { offsetInCU: 0x2F6FA, offset: 0x2F6FA, size: 0x8, addend: 0x0, symName: __ZNSt3__112basic_stringIcNS_11char_traitsIcEENS_9allocatorIcEEE6appendB8ue170006ERKS5_, symObjAddr: 0xCBE4, symBinAddr: 0x10000FD58, symSize: 0x4C }
  - { offsetInCU: 0x2F72F, offset: 0x2F72F, size: 0x8, addend: 0x0, symName: __ZNKSt3__112basic_stringIcNS_11char_traitsIcEENS_9allocatorIcEEE4dataB8ue170006Ev, symObjAddr: 0xCC30, symBinAddr: 0x10000FDA4, symSize: 0x28 }
  - { offsetInCU: 0x2F755, offset: 0x2F755, size: 0x8, addend: 0x0, symName: __ZNKSt3__112basic_stringIcNS_11char_traitsIcEENS_9allocatorIcEEE13__get_pointerB8ue170006Ev, symObjAddr: 0xCC6C, symBinAddr: 0x10000FDE0, symSize: 0x54 }
  - { offsetInCU: 0x2F77B, offset: 0x2F77B, size: 0x8, addend: 0x0, symName: __ZNKSt3__112basic_stringIcNS_11char_traitsIcEENS_9allocatorIcEEE18__get_long_pointerB8ue170006Ev, symObjAddr: 0xCCC0, symBinAddr: 0x10000FE34, symSize: 0x28 }
  - { offsetInCU: 0x2F7A1, offset: 0x2F7A1, size: 0x8, addend: 0x0, symName: __ZNKSt3__112basic_stringIcNS_11char_traitsIcEENS_9allocatorIcEEE19__get_short_pointerB8ue170006Ev, symObjAddr: 0xCCE8, symBinAddr: 0x10000FE5C, symSize: 0x28 }
  - { offsetInCU: 0x2F7C7, offset: 0x2F7C7, size: 0x8, addend: 0x0, symName: __ZNSt3__114pointer_traitsIPKcE10pointer_toB8ue170006ERS1_, symObjAddr: 0xCD10, symBinAddr: 0x10000FE84, symSize: 0x14 }
  - { offsetInCU: 0x2F7EA, offset: 0x2F7EA, size: 0x8, addend: 0x0, symName: __ZNKSt3__112basic_stringIcNS_11char_traitsIcEENS_9allocatorIcEEE15__get_long_sizeB8ue170006Ev, symObjAddr: 0xCD24, symBinAddr: 0x10000FE98, symSize: 0x28 }
  - { offsetInCU: 0x2F810, offset: 0x2F810, size: 0x8, addend: 0x0, symName: __ZNKSt3__112basic_stringIcNS_11char_traitsIcEENS_9allocatorIcEEE16__get_short_sizeB8ue170006Ev, symObjAddr: 0xCD4C, symBinAddr: 0x10000FEC0, symSize: 0x34 }
  - { offsetInCU: 0x2F836, offset: 0x2F836, size: 0x8, addend: 0x0, symName: __ZNSt3__112basic_stringIcNS_11char_traitsIcEENS_9allocatorIcEEE13__get_pointerB8ue170006Ev, symObjAddr: 0xCD80, symBinAddr: 0x10000FEF4, symSize: 0x54 }
  - { offsetInCU: 0x2F85C, offset: 0x2F85C, size: 0x8, addend: 0x0, symName: __ZNSt3__111char_traitsIcE6lengthB8ue170006EPKc, symObjAddr: 0xCDD4, symBinAddr: 0x10000FF48, symSize: 0x34 }
  - { offsetInCU: 0x2F87F, offset: 0x2F87F, size: 0x8, addend: 0x0, symName: __ZNSt3__112basic_stringIcNS_11char_traitsIcEENS_9allocatorIcEEEC2B8ue170006ILi0EEEPKc, symObjAddr: 0xCE2C, symBinAddr: 0x10000FFA0, symSize: 0x58 }
  - { offsetInCU: 0x2F8C9, offset: 0x2F8C9, size: 0x8, addend: 0x0, symName: __ZNSt3__116allocator_traitsINS_9allocatorIcEEE37select_on_container_copy_constructionB8ue170006IS2_vvEES2_RKS2_, symObjAddr: 0xCE84, symBinAddr: 0x10000FFF8, symSize: 0x10 }
  - { offsetInCU: 0x2F8F8, offset: 0x2F8F8, size: 0x8, addend: 0x0, symName: __ZNKSt3__112basic_stringIcNS_11char_traitsIcEENS_9allocatorIcEEE13get_allocatorB8ue170006Ev, symObjAddr: 0xCE94, symBinAddr: 0x100010008, symSize: 0x24 }
  - { offsetInCU: 0x2F91E, offset: 0x2F91E, size: 0x8, addend: 0x0, symName: __ZNSt3__112basic_stringIcNS_11char_traitsIcEENS_9allocatorIcEEEC1B8ue170006ENS_24__uninitialized_size_tagEmRKS4_, symObjAddr: 0xCEB8, symBinAddr: 0x10001002C, symSize: 0x3C }
  - { offsetInCU: 0x2F971, offset: 0x2F971, size: 0x8, addend: 0x0, symName: __ZNSt3__111char_traitsIcE4copyB8ue170006EPcPKcm, symObjAddr: 0xCF08, symBinAddr: 0x10001007C, symSize: 0x40 }
  - { offsetInCU: 0x2F9B0, offset: 0x2F9B0, size: 0x8, addend: 0x0, symName: __ZNSt3__111char_traitsIcE6assignB8ue170006EPcmc, symObjAddr: 0xCF48, symBinAddr: 0x1000100BC, symSize: 0x44 }
  - { offsetInCU: 0x2F9EF, offset: 0x2F9EF, size: 0x8, addend: 0x0, symName: __ZNKSt3__112basic_stringIcNS_11char_traitsIcEENS_9allocatorIcEEE7__allocB8ue170006Ev, symObjAddr: 0xCF8C, symBinAddr: 0x100010100, symSize: 0x24 }
  - { offsetInCU: 0x2FA15, offset: 0x2FA15, size: 0x8, addend: 0x0, symName: __ZNKSt3__117__compressed_pairINS_12basic_stringIcNS_11char_traitsIcEENS_9allocatorIcEEE5__repES5_E6secondB8ue170006Ev, symObjAddr: 0xCFB0, symBinAddr: 0x100010124, symSize: 0x24 }
  - { offsetInCU: 0x2FA3B, offset: 0x2FA3B, size: 0x8, addend: 0x0, symName: __ZNKSt3__122__compressed_pair_elemINS_9allocatorIcEELi1ELb1EE5__getB8ue170006Ev, symObjAddr: 0xCFD4, symBinAddr: 0x100010148, symSize: 0x14 }
  - { offsetInCU: 0x2FA61, offset: 0x2FA61, size: 0x8, addend: 0x0, symName: __ZNSt3__112basic_stringIcNS_11char_traitsIcEENS_9allocatorIcEEEC2B8ue170006ENS_24__uninitialized_size_tagEmRKS4_, symObjAddr: 0xCFE8, symBinAddr: 0x10001015C, symSize: 0x110 }
  - { offsetInCU: 0x2FAE0, offset: 0x2FAE0, size: 0x8, addend: 0x0, symName: __ZNSt3__117__compressed_pairINS_12basic_stringIcNS_11char_traitsIcEENS_9allocatorIcEEE5__repES5_EC1B8ue170006INS_18__default_init_tagERKS5_EEOT_OT0_, symObjAddr: 0xD0F8, symBinAddr: 0x10001026C, symSize: 0x3C }
  - { offsetInCU: 0x2FB38, offset: 0x2FB38, size: 0x8, addend: 0x0, symName: __ZNKSt3__112basic_stringIcNS_11char_traitsIcEENS_9allocatorIcEEE8max_sizeB8ue170006Ev, symObjAddr: 0xD134, symBinAddr: 0x1000102A8, symSize: 0xAC }
  - { offsetInCU: 0x2FB8A, offset: 0x2FB8A, size: 0x8, addend: 0x0, symName: __ZNKSt3__112basic_stringIcNS_11char_traitsIcEENS_9allocatorIcEEE20__throw_length_errorB8ue170006Ev, symObjAddr: 0xD1E0, symBinAddr: 0x100010354, symSize: 0x1C }
  - { offsetInCU: 0x2FBB0, offset: 0x2FBB0, size: 0x8, addend: 0x0, symName: __ZNSt3__112basic_stringIcNS_11char_traitsIcEENS_9allocatorIcEEE13__fits_in_ssoB8ue170006Em, symObjAddr: 0xD1FC, symBinAddr: 0x100010370, symSize: 0x20 }
  - { offsetInCU: 0x2FBD4, offset: 0x2FBD4, size: 0x8, addend: 0x0, symName: __ZNSt3__112basic_stringIcNS_11char_traitsIcEENS_9allocatorIcEEE11__recommendB8ue170006Em, symObjAddr: 0xD21C, symBinAddr: 0x100010390, symSize: 0x84 }
  - { offsetInCU: 0x2FC07, offset: 0x2FC07, size: 0x8, addend: 0x0, symName: __ZNSt3__116allocator_traitsINS_9allocatorIcEEE8allocateB8ue170006ERS2_m, symObjAddr: 0xD2A0, symBinAddr: 0x100010414, symSize: 0x2C }
  - { offsetInCU: 0x2FC3A, offset: 0x2FC3A, size: 0x8, addend: 0x0, symName: __ZNSt3__112basic_stringIcNS_11char_traitsIcEENS_9allocatorIcEEE16__begin_lifetimeB8ue170006EPcm, symObjAddr: 0xD2CC, symBinAddr: 0x100010440, symSize: 0x14 }
  - { offsetInCU: 0x2FC6D, offset: 0x2FC6D, size: 0x8, addend: 0x0, symName: __ZNSt3__112basic_stringIcNS_11char_traitsIcEENS_9allocatorIcEEE14__set_long_capB8ue170006Em, symObjAddr: 0xD2E0, symBinAddr: 0x100010454, symSize: 0x70 }
  - { offsetInCU: 0x2FCA2, offset: 0x2FCA2, size: 0x8, addend: 0x0, symName: __ZNSt3__112basic_stringIcNS_11char_traitsIcEENS_9allocatorIcEEE18__set_long_pointerB8ue170006EPc, symObjAddr: 0xD350, symBinAddr: 0x1000104C4, symSize: 0x38 }
  - { offsetInCU: 0x2FCD7, offset: 0x2FCD7, size: 0x8, addend: 0x0, symName: __ZNSt3__112basic_stringIcNS_11char_traitsIcEENS_9allocatorIcEEE15__set_long_sizeB8ue170006Em, symObjAddr: 0xD388, symBinAddr: 0x1000104FC, symSize: 0x38 }
  - { offsetInCU: 0x2FD0C, offset: 0x2FD0C, size: 0x8, addend: 0x0, symName: __ZNSt3__117__compressed_pairINS_12basic_stringIcNS_11char_traitsIcEENS_9allocatorIcEEE5__repES5_EC2B8ue170006INS_18__default_init_tagERKS5_EEOT_OT0_, symObjAddr: 0xD3C0, symBinAddr: 0x100010534, symSize: 0x40 }
  - { offsetInCU: 0x2FD64, offset: 0x2FD64, size: 0x8, addend: 0x0, symName: __ZNSt3__122__compressed_pair_elemINS_9allocatorIcEELi1ELb1EEC2B8ue170006IRKS2_vEEOT_, symObjAddr: 0xD400, symBinAddr: 0x100010574, symSize: 0x18 }
  - { offsetInCU: 0x2FDA6, offset: 0x2FDA6, size: 0x8, addend: 0x0, symName: __ZNSt3__116allocator_traitsINS_9allocatorIcEEE8max_sizeB8ue170006IS2_vEEmRKS2_, symObjAddr: 0xD418, symBinAddr: 0x10001058C, symSize: 0x24 }
  - { offsetInCU: 0x2FDD4, offset: 0x2FDD4, size: 0x8, addend: 0x0, symName: __ZNSt3__114numeric_limitsImE3maxB8ue170006Ev, symObjAddr: 0xD43C, symBinAddr: 0x1000105B0, symSize: 0x14 }
  - { offsetInCU: 0x2FDE8, offset: 0x2FDE8, size: 0x8, addend: 0x0, symName: __ZNKSt3__19allocatorIcE8max_sizeB8ue170006Ev, symObjAddr: 0xD450, symBinAddr: 0x1000105C4, symSize: 0x14 }
  - { offsetInCU: 0x2FE0E, offset: 0x2FE0E, size: 0x8, addend: 0x0, symName: __ZNSt3__123__libcpp_numeric_limitsImLb1EE3maxB8ue170006Ev, symObjAddr: 0xD464, symBinAddr: 0x1000105D8, symSize: 0x8 }
  - { offsetInCU: 0x2FE22, offset: 0x2FE22, size: 0x8, addend: 0x0, symName: __ZNSt3__112basic_stringIcNS_11char_traitsIcEENS_9allocatorIcEEE10__align_itB8ue170006ILm16EEEmm, symObjAddr: 0xD46C, symBinAddr: 0x1000105E0, symSize: 0x1C }
  - { offsetInCU: 0x2FE50, offset: 0x2FE50, size: 0x8, addend: 0x0, symName: __ZNSt3__19allocatorIcE8allocateB8ue170006Em, symObjAddr: 0xD488, symBinAddr: 0x1000105FC, symSize: 0x58 }
  - { offsetInCU: 0x2FEAA, offset: 0x2FEAA, size: 0x8, addend: 0x0, symName: __ZNKSt3__114__copy_trivialclB8ue170006IKccLi0EEENS_4pairIPT_PT0_EES5_S5_S7_, symObjAddr: 0xD700, symBinAddr: 0x100010874, symSize: 0x48 }
  - { offsetInCU: 0x2FF18, offset: 0x2FF18, size: 0x8, addend: 0x0, symName: __ZNSt3__14pairIPKcS2_EC1B8ue170006IS2_S2_LPv0EEEOT_OT0_, symObjAddr: 0xD868, symBinAddr: 0x1000109DC, symSize: 0x3C }
  - { offsetInCU: 0x2FF76, offset: 0x2FF76, size: 0x8, addend: 0x0, symName: __ZNSt3__14pairIPKcS2_EC2B8ue170006IS2_S2_LPv0EEEOT_OT0_, symObjAddr: 0xD8A4, symBinAddr: 0x100010A18, symSize: 0x34 }
  - { offsetInCU: 0x2FFD4, offset: 0x2FFD4, size: 0x8, addend: 0x0, symName: __ZNSt3__118__unwrap_iter_implIPKcLb1EE8__unwrapB8ue170006ES2_, symObjAddr: 0xD8D8, symBinAddr: 0x100010A4C, symSize: 0x24 }
  - { offsetInCU: 0x30003, offset: 0x30003, size: 0x8, addend: 0x0, symName: __ZNSt3__14pairIPKcPcEC1B8ue170006IRS2_S3_LPv0EEEOT_OT0_, symObjAddr: 0xDA10, symBinAddr: 0x100010B84, symSize: 0x3C }
  - { offsetInCU: 0x30061, offset: 0x30061, size: 0x8, addend: 0x0, symName: __ZNSt3__14pairIPKcPcEC2B8ue170006IRS2_S3_LPv0EEEOT_OT0_, symObjAddr: 0xDA4C, symBinAddr: 0x100010BC0, symSize: 0x34 }
  - { offsetInCU: 0x300BF, offset: 0x300BF, size: 0x8, addend: 0x0, symName: __ZNSt3__118__unwrap_iter_implIPcLb1EE8__unwrapB8ue170006ES1_, symObjAddr: 0xDA80, symBinAddr: 0x100010BF4, symSize: 0x24 }
  - { offsetInCU: 0x300E2, offset: 0x300E2, size: 0x8, addend: 0x0, symName: __ZNSt3__14pairIPKcPcEC1B8ue170006IS2_S3_LPv0EEEOT_OT0_, symObjAddr: 0xDAA4, symBinAddr: 0x100010C18, symSize: 0x3C }
  - { offsetInCU: 0x30140, offset: 0x30140, size: 0x8, addend: 0x0, symName: __ZNSt3__14pairIPKcPcEC2B8ue170006IS2_S3_LPv0EEEOT_OT0_, symObjAddr: 0xDAE0, symBinAddr: 0x100010C54, symSize: 0x34 }
  - { offsetInCU: 0x3019E, offset: 0x3019E, size: 0x8, addend: 0x0, symName: __ZNSt3__118__unwrap_iter_implIPKcLb1EE8__rewrapB8ue170006ES2_S2_, symObjAddr: 0xDB50, symBinAddr: 0x100010CC4, symSize: 0x48 }
  - { offsetInCU: 0x301CF, offset: 0x301CF, size: 0x8, addend: 0x0, symName: __ZNSt3__118__unwrap_iter_implIPcLb1EE8__rewrapB8ue170006ES1_S1_, symObjAddr: 0xDB98, symBinAddr: 0x100010D0C, symSize: 0x48 }
  - { offsetInCU: 0x30200, offset: 0x30200, size: 0x8, addend: 0x0, symName: __ZNSt3__112basic_stringIcNS_11char_traitsIcEENS_9allocatorIcEEEC1B8ue170006EOS5_, symObjAddr: 0xDC9C, symBinAddr: 0x100010E10, symSize: 0x34 }
  - { offsetInCU: 0x30239, offset: 0x30239, size: 0x8, addend: 0x0, symName: __ZNSt3__112basic_stringIcNS_11char_traitsIcEENS_9allocatorIcEEEC2B8ue170006EOS5_, symObjAddr: 0xDCD0, symBinAddr: 0x100010E44, symSize: 0x48 }
  - { offsetInCU: 0x30272, offset: 0x30272, size: 0x8, addend: 0x0, symName: __ZNKSt3__112basic_stringIcNS_11char_traitsIcEENS_9allocatorIcEEE7compareB8ue170006ERKS5_, symObjAddr: 0xDD18, symBinAddr: 0x100010E8C, symSize: 0x4C }
  - { offsetInCU: 0x302A9, offset: 0x302A9, size: 0x8, addend: 0x0, symName: __ZNKSt3__112basic_stringIcNS_11char_traitsIcEENS_9allocatorIcEEE7compareINS_17basic_string_viewIcS2_EELi0EEEiRKT_, symObjAddr: 0xDD64, symBinAddr: 0x100010ED8, symSize: 0x12C }
  - { offsetInCU: 0x3032C, offset: 0x3032C, size: 0x8, addend: 0x0, symName: __ZNKSt3__112basic_stringIcNS_11char_traitsIcEENS_9allocatorIcEEEcvNS_17basic_string_viewIcS2_EEB8ue170006Ev, symObjAddr: 0xDE90, symBinAddr: 0x100011004, symSize: 0x50 }
  - { offsetInCU: 0x30352, offset: 0x30352, size: 0x8, addend: 0x0, symName: __ZNKSt3__117basic_string_viewIcNS_11char_traitsIcEEE4sizeB8ue170006Ev, symObjAddr: 0xDEE0, symBinAddr: 0x100011054, symSize: 0x18 }
  - { offsetInCU: 0x30378, offset: 0x30378, size: 0x8, addend: 0x0, symName: __ZNSt3__111char_traitsIcE7compareB8ue170006EPKcS3_m, symObjAddr: 0xDEF8, symBinAddr: 0x10001106C, symSize: 0x34 }
  - { offsetInCU: 0x303B7, offset: 0x303B7, size: 0x8, addend: 0x0, symName: __ZNKSt3__117basic_string_viewIcNS_11char_traitsIcEEE4dataB8ue170006Ev, symObjAddr: 0xDF2C, symBinAddr: 0x1000110A0, symSize: 0x18 }
  - { offsetInCU: 0x303DD, offset: 0x303DD, size: 0x8, addend: 0x0, symName: __ZNSt3__117basic_string_viewIcNS_11char_traitsIcEEEC1B8ue170006EPKcm, symObjAddr: 0xDF44, symBinAddr: 0x1000110B8, symSize: 0x3C }
  - { offsetInCU: 0x30425, offset: 0x30425, size: 0x8, addend: 0x0, symName: __ZNSt3__117basic_string_viewIcNS_11char_traitsIcEEEC2B8ue170006EPKcm, symObjAddr: 0xDF80, symBinAddr: 0x1000110F4, symSize: 0x2C }
  - { offsetInCU: 0x3046D, offset: 0x3046D, size: 0x8, addend: 0x0, symName: __ZNSt3__16vectorIP12ExprTreeNodeNS_9allocatorIS2_EEEC2B8ue170006Ev, symObjAddr: 0xDFAC, symBinAddr: 0x100011120, symSize: 0x4C }
  - { offsetInCU: 0x30497, offset: 0x30497, size: 0x8, addend: 0x0, symName: __ZNSt3__117__compressed_pairIPP12ExprTreeNodeNS_9allocatorIS2_EEEC1B8ue170006IDnNS_18__default_init_tagEEEOT_OT0_, symObjAddr: 0xDFF8, symBinAddr: 0x10001116C, symSize: 0x3C }
  - { offsetInCU: 0x304EF, offset: 0x304EF, size: 0x8, addend: 0x0, symName: __ZNSt3__117__compressed_pairIPP12ExprTreeNodeNS_9allocatorIS2_EEEC2B8ue170006IDnNS_18__default_init_tagEEEOT_OT0_, symObjAddr: 0xE034, symBinAddr: 0x1000111A8, symSize: 0x40 }
  - { offsetInCU: 0x30547, offset: 0x30547, size: 0x8, addend: 0x0, symName: __ZNSt3__122__compressed_pair_elemIPP12ExprTreeNodeLi0ELb0EEC2B8ue170006IDnvEEOT_, symObjAddr: 0xE074, symBinAddr: 0x1000111E8, symSize: 0x1C }
  - { offsetInCU: 0x30589, offset: 0x30589, size: 0x8, addend: 0x0, symName: __ZNSt3__122__compressed_pair_elemINS_9allocatorIP12ExprTreeNodeEELi1ELb1EEC2B8ue170006ENS_18__default_init_tagE, symObjAddr: 0xE090, symBinAddr: 0x100011204, symSize: 0x2C }
  - { offsetInCU: 0x305BD, offset: 0x305BD, size: 0x8, addend: 0x0, symName: __ZNSt3__19allocatorIP12ExprTreeNodeEC2B8ue170006Ev, symObjAddr: 0xE0BC, symBinAddr: 0x100011230, symSize: 0x2C }
  - { offsetInCU: 0x305E7, offset: 0x305E7, size: 0x8, addend: 0x0, symName: __ZNSt3__116__non_trivial_ifILb1ENS_9allocatorIP12ExprTreeNodeEEEC2B8ue170006Ev, symObjAddr: 0xE0E8, symBinAddr: 0x10001125C, symSize: 0x14 }
  - { offsetInCU: 0x30611, offset: 0x30611, size: 0x8, addend: 0x0, symName: __ZNSt3__16vectorIP12ExprTreeNodeNS_9allocatorIS2_EEED2B8ue170006Ev, symObjAddr: 0xE0FC, symBinAddr: 0x100011270, symSize: 0x44 }
  - { offsetInCU: 0x3063B, offset: 0x3063B, size: 0x8, addend: 0x0, symName: __ZNSt3__16vectorIP12ExprTreeNodeNS_9allocatorIS2_EEE16__destroy_vectorC1B8ue170006ERS5_, symObjAddr: 0xE140, symBinAddr: 0x1000112B4, symSize: 0x34 }
  - { offsetInCU: 0x30674, offset: 0x30674, size: 0x8, addend: 0x0, symName: __ZNSt3__16vectorIP12ExprTreeNodeNS_9allocatorIS2_EEE16__destroy_vectorclB8ue170006Ev, symObjAddr: 0xE174, symBinAddr: 0x1000112E8, symSize: 0x90 }
  - { offsetInCU: 0x3069A, offset: 0x3069A, size: 0x8, addend: 0x0, symName: __ZNSt3__16vectorIP12ExprTreeNodeNS_9allocatorIS2_EEE16__destroy_vectorC2B8ue170006ERS5_, symObjAddr: 0xE204, symBinAddr: 0x100011378, symSize: 0x20 }
  - { offsetInCU: 0x306D3, offset: 0x306D3, size: 0x8, addend: 0x0, symName: __ZNSt3__16vectorIP12ExprTreeNodeNS_9allocatorIS2_EEE7__clearB8ue170006Ev, symObjAddr: 0xE224, symBinAddr: 0x100011398, symSize: 0x28 }
  - { offsetInCU: 0x306F9, offset: 0x306F9, size: 0x8, addend: 0x0, symName: __ZNKSt3__16vectorIP12ExprTreeNodeNS_9allocatorIS2_EEE17__annotate_deleteB8ue170006Ev, symObjAddr: 0xE24C, symBinAddr: 0x1000113C0, symSize: 0xB8 }
  - { offsetInCU: 0x3071F, offset: 0x3071F, size: 0x8, addend: 0x0, symName: __ZNSt3__116allocator_traitsINS_9allocatorIP12ExprTreeNodeEEE10deallocateB8ue170006ERS4_PS3_m, symObjAddr: 0xE304, symBinAddr: 0x100011478, symSize: 0x34 }
  - { offsetInCU: 0x30761, offset: 0x30761, size: 0x8, addend: 0x0, symName: __ZNSt3__16vectorIP12ExprTreeNodeNS_9allocatorIS2_EEE7__allocB8ue170006Ev, symObjAddr: 0xE338, symBinAddr: 0x1000114AC, symSize: 0x28 }
  - { offsetInCU: 0x30787, offset: 0x30787, size: 0x8, addend: 0x0, symName: __ZNKSt3__16vectorIP12ExprTreeNodeNS_9allocatorIS2_EEE8capacityB8ue170006Ev, symObjAddr: 0xE360, symBinAddr: 0x1000114D4, symSize: 0x40 }
  - { offsetInCU: 0x307AD, offset: 0x307AD, size: 0x8, addend: 0x0, symName: __ZNSt3__16vectorIP12ExprTreeNodeNS_9allocatorIS2_EEE22__base_destruct_at_endB8ue170006EPS2_, symObjAddr: 0xE3A0, symBinAddr: 0x100011514, symSize: 0x8C }
  - { offsetInCU: 0x307F1, offset: 0x307F1, size: 0x8, addend: 0x0, symName: __ZNSt3__116allocator_traitsINS_9allocatorIP12ExprTreeNodeEEE7destroyB8ue170006IS3_vEEvRS4_PT_, symObjAddr: 0xE42C, symBinAddr: 0x1000115A0, symSize: 0x2C }
  - { offsetInCU: 0x3082E, offset: 0x3082E, size: 0x8, addend: 0x0, symName: __ZNSt3__19allocatorIP12ExprTreeNodeE7destroyB8ue170006EPS2_, symObjAddr: 0xE46C, symBinAddr: 0x1000115E0, symSize: 0x14 }
  - { offsetInCU: 0x30862, offset: 0x30862, size: 0x8, addend: 0x0, symName: __ZNKSt3__16vectorIP12ExprTreeNodeNS_9allocatorIS2_EEE31__annotate_contiguous_containerB8ue170006EPKvS7_S7_S7_, symObjAddr: 0xE480, symBinAddr: 0x1000115F4, symSize: 0x20 }
  - { offsetInCU: 0x308B4, offset: 0x308B4, size: 0x8, addend: 0x0, symName: __ZNKSt3__16vectorIP12ExprTreeNodeNS_9allocatorIS2_EEE4dataB8ue170006Ev, symObjAddr: 0xE4A0, symBinAddr: 0x100011614, symSize: 0x28 }
  - { offsetInCU: 0x308DA, offset: 0x308DA, size: 0x8, addend: 0x0, symName: __ZNSt3__19allocatorIP12ExprTreeNodeE10deallocateB8ue170006EPS2_m, symObjAddr: 0xE4C8, symBinAddr: 0x10001163C, symSize: 0x40 }
  - { offsetInCU: 0x3091C, offset: 0x3091C, size: 0x8, addend: 0x0, symName: __ZNSt3__117__compressed_pairIPP12ExprTreeNodeNS_9allocatorIS2_EEE6secondB8ue170006Ev, symObjAddr: 0xE508, symBinAddr: 0x10001167C, symSize: 0x24 }
  - { offsetInCU: 0x30942, offset: 0x30942, size: 0x8, addend: 0x0, symName: __ZNSt3__122__compressed_pair_elemINS_9allocatorIP12ExprTreeNodeEELi1ELb1EE5__getB8ue170006Ev, symObjAddr: 0xE52C, symBinAddr: 0x1000116A0, symSize: 0x14 }
  - { offsetInCU: 0x30968, offset: 0x30968, size: 0x8, addend: 0x0, symName: __ZNKSt3__16vectorIP12ExprTreeNodeNS_9allocatorIS2_EEE9__end_capB8ue170006Ev, symObjAddr: 0xE540, symBinAddr: 0x1000116B4, symSize: 0x28 }
  - { offsetInCU: 0x3098E, offset: 0x3098E, size: 0x8, addend: 0x0, symName: __ZNKSt3__117__compressed_pairIPP12ExprTreeNodeNS_9allocatorIS2_EEE5firstB8ue170006Ev, symObjAddr: 0xE568, symBinAddr: 0x1000116DC, symSize: 0x24 }
  - { offsetInCU: 0x309B4, offset: 0x309B4, size: 0x8, addend: 0x0, symName: __ZNKSt3__122__compressed_pair_elemIPP12ExprTreeNodeLi0ELb0EE5__getB8ue170006Ev, symObjAddr: 0xE58C, symBinAddr: 0x100011700, symSize: 0x14 }
  - { offsetInCU: 0x309DA, offset: 0x309DA, size: 0x8, addend: 0x0, symName: __ZNSt3__16vectorIP12ExprTreeNodeNS_9allocatorIS2_EEE9__end_capB8ue170006Ev, symObjAddr: 0xE5A0, symBinAddr: 0x100011714, symSize: 0x28 }
  - { offsetInCU: 0x30A00, offset: 0x30A00, size: 0x8, addend: 0x0, symName: __ZNSt3__16vectorIP12ExprTreeNodeNS_9allocatorIS2_EEE22__construct_one_at_endB8ue170006IJRKS2_EEEvDpOT_, symObjAddr: 0xE5C8, symBinAddr: 0x10001173C, symSize: 0x90 }
  - { offsetInCU: 0x30A4F, offset: 0x30A4F, size: 0x8, addend: 0x0, symName: __ZNSt3__16vectorIP12ExprTreeNodeNS_9allocatorIS2_EEE21__push_back_slow_pathIRKS2_EEvOT_, symObjAddr: 0xE658, symBinAddr: 0x1000117CC, symSize: 0xD8 }
  - { offsetInCU: 0x30AAD, offset: 0x30AAD, size: 0x8, addend: 0x0, symName: __ZNSt3__117__compressed_pairIPP12ExprTreeNodeNS_9allocatorIS2_EEE5firstB8ue170006Ev, symObjAddr: 0xE730, symBinAddr: 0x1000118A4, symSize: 0x24 }
  - { offsetInCU: 0x30AD3, offset: 0x30AD3, size: 0x8, addend: 0x0, symName: __ZNSt3__122__compressed_pair_elemIPP12ExprTreeNodeLi0ELb0EE5__getB8ue170006Ev, symObjAddr: 0xE754, symBinAddr: 0x1000118C8, symSize: 0x14 }
  - { offsetInCU: 0x30B14, offset: 0x30B14, size: 0x8, addend: 0x0, symName: __ZNSt3__16vectorIP12ExprTreeNodeNS_9allocatorIS2_EEE21_ConstructTransactionC1B8ue170006ERS5_m, symObjAddr: 0xE768, symBinAddr: 0x1000118DC, symSize: 0x3C }
  - { offsetInCU: 0x30B5C, offset: 0x30B5C, size: 0x8, addend: 0x0, symName: __ZNSt3__116allocator_traitsINS_9allocatorIP12ExprTreeNodeEEE9constructB8ue170006IS3_JRKS3_EvEEvRS4_PT_DpOT0_, symObjAddr: 0xE7A4, symBinAddr: 0x100011918, symSize: 0x34 }
  - { offsetInCU: 0x30BB3, offset: 0x30BB3, size: 0x8, addend: 0x0, symName: __ZNSt3__16vectorIP12ExprTreeNodeNS_9allocatorIS2_EEE21_ConstructTransactionD1B8ue170006Ev, symObjAddr: 0xE7D8, symBinAddr: 0x10001194C, symSize: 0x2C }
  - { offsetInCU: 0x30BDD, offset: 0x30BDD, size: 0x8, addend: 0x0, symName: __ZNSt3__16vectorIP12ExprTreeNodeNS_9allocatorIS2_EEE21_ConstructTransactionC2B8ue170006ERS5_m, symObjAddr: 0xE804, symBinAddr: 0x100011978, symSize: 0x44 }
  - { offsetInCU: 0x30C25, offset: 0x30C25, size: 0x8, addend: 0x0, symName: __ZNSt3__19allocatorIP12ExprTreeNodeE9constructB8ue170006IS2_JRKS2_EEEvPT_DpOT0_, symObjAddr: 0xE848, symBinAddr: 0x1000119BC, symSize: 0x28 }
  - { offsetInCU: 0x30C7B, offset: 0x30C7B, size: 0x8, addend: 0x0, symName: __ZNSt3__16vectorIP12ExprTreeNodeNS_9allocatorIS2_EEE21_ConstructTransactionD2B8ue170006Ev, symObjAddr: 0xE870, symBinAddr: 0x1000119E4, symSize: 0x20 }
  - { offsetInCU: 0x30CA5, offset: 0x30CA5, size: 0x8, addend: 0x0, symName: __ZNKSt3__16vectorIP12ExprTreeNodeNS_9allocatorIS2_EEE11__recommendB8ue170006Em, symObjAddr: 0xE890, symBinAddr: 0x100011A04, symSize: 0xB4 }
  - { offsetInCU: 0x30CFA, offset: 0x30CFA, size: 0x8, addend: 0x0, symName: __ZNSt3__114__split_bufferIP12ExprTreeNodeRNS_9allocatorIS2_EEEC1EmmS5_, symObjAddr: 0xE944, symBinAddr: 0x100011AB8, symSize: 0x44 }
  - { offsetInCU: 0x30D50, offset: 0x30D50, size: 0x8, addend: 0x0, symName: __ZNSt3__114__split_bufferIP12ExprTreeNodeRNS_9allocatorIS2_EEED1Ev, symObjAddr: 0xEA98, symBinAddr: 0x100011C0C, symSize: 0x2C }
  - { offsetInCU: 0x30D7C, offset: 0x30D7C, size: 0x8, addend: 0x0, symName: __ZNKSt3__16vectorIP12ExprTreeNodeNS_9allocatorIS2_EEE8max_sizeEv, symObjAddr: 0xEAC4, symBinAddr: 0x100011C38, symSize: 0x60 }
  - { offsetInCU: 0x30DA4, offset: 0x30DA4, size: 0x8, addend: 0x0, symName: __ZNKSt3__16vectorIP12ExprTreeNodeNS_9allocatorIS2_EEE20__throw_length_errorB8ue170006Ev, symObjAddr: 0xEB24, symBinAddr: 0x100011C98, symSize: 0x1C }
  - { offsetInCU: 0x30DD5, offset: 0x30DD5, size: 0x8, addend: 0x0, symName: __ZNSt3__116allocator_traitsINS_9allocatorIP12ExprTreeNodeEEE8max_sizeB8ue170006IS4_vEEmRKS4_, symObjAddr: 0xEB6C, symBinAddr: 0x100011CE0, symSize: 0x24 }
  - { offsetInCU: 0x30E03, offset: 0x30E03, size: 0x8, addend: 0x0, symName: __ZNKSt3__16vectorIP12ExprTreeNodeNS_9allocatorIS2_EEE7__allocB8ue170006Ev, symObjAddr: 0xEB90, symBinAddr: 0x100011D04, symSize: 0x28 }
  - { offsetInCU: 0x30E29, offset: 0x30E29, size: 0x8, addend: 0x0, symName: __ZNKSt3__19allocatorIP12ExprTreeNodeE8max_sizeB8ue170006Ev, symObjAddr: 0xEBB8, symBinAddr: 0x100011D2C, symSize: 0x14 }
  - { offsetInCU: 0x30E4F, offset: 0x30E4F, size: 0x8, addend: 0x0, symName: __ZNKSt3__117__compressed_pairIPP12ExprTreeNodeNS_9allocatorIS2_EEE6secondB8ue170006Ev, symObjAddr: 0xEBCC, symBinAddr: 0x100011D40, symSize: 0x24 }
  - { offsetInCU: 0x30E75, offset: 0x30E75, size: 0x8, addend: 0x0, symName: __ZNKSt3__122__compressed_pair_elemINS_9allocatorIP12ExprTreeNodeEELi1ELb1EE5__getB8ue170006Ev, symObjAddr: 0xEBF0, symBinAddr: 0x100011D64, symSize: 0x14 }
  - { offsetInCU: 0x30E9B, offset: 0x30E9B, size: 0x8, addend: 0x0, symName: __ZNSt3__114__split_bufferIP12ExprTreeNodeRNS_9allocatorIS2_EEEC2EmmS5_, symObjAddr: 0xEC58, symBinAddr: 0x100011DCC, symSize: 0xD4 }
  - { offsetInCU: 0x30F0E, offset: 0x30F0E, size: 0x8, addend: 0x0, symName: __ZNSt3__117__compressed_pairIPP12ExprTreeNodeRNS_9allocatorIS2_EEEC1B8ue170006IDnS6_EEOT_OT0_, symObjAddr: 0xED2C, symBinAddr: 0x100011EA0, symSize: 0x3C }
  - { offsetInCU: 0x30F66, offset: 0x30F66, size: 0x8, addend: 0x0, symName: __ZNSt3__114__split_bufferIP12ExprTreeNodeRNS_9allocatorIS2_EEE7__allocB8ue170006Ev, symObjAddr: 0xEDA8, symBinAddr: 0x100011F1C, symSize: 0x28 }
  - { offsetInCU: 0x30F8C, offset: 0x30F8C, size: 0x8, addend: 0x0, symName: __ZNSt3__114__split_bufferIP12ExprTreeNodeRNS_9allocatorIS2_EEE9__end_capB8ue170006Ev, symObjAddr: 0xEDD0, symBinAddr: 0x100011F44, symSize: 0x28 }
  - { offsetInCU: 0x30FB2, offset: 0x30FB2, size: 0x8, addend: 0x0, symName: __ZNSt3__117__compressed_pairIPP12ExprTreeNodeRNS_9allocatorIS2_EEEC2B8ue170006IDnS6_EEOT_OT0_, symObjAddr: 0xEDF8, symBinAddr: 0x100011F6C, symSize: 0x48 }
  - { offsetInCU: 0x3100A, offset: 0x3100A, size: 0x8, addend: 0x0, symName: __ZNSt3__122__compressed_pair_elemIRNS_9allocatorIP12ExprTreeNodeEELi1ELb0EEC2B8ue170006IS5_vEEOT_, symObjAddr: 0xEE40, symBinAddr: 0x100011FB4, symSize: 0x20 }
  - { offsetInCU: 0x3104C, offset: 0x3104C, size: 0x8, addend: 0x0, symName: __ZNSt3__19allocatorIP12ExprTreeNodeE8allocateB8ue170006Em, symObjAddr: 0xEE60, symBinAddr: 0x100011FD4, symSize: 0x58 }
  - { offsetInCU: 0x31080, offset: 0x31080, size: 0x8, addend: 0x0, symName: __ZNSt3__117__compressed_pairIPP12ExprTreeNodeRNS_9allocatorIS2_EEE6secondB8ue170006Ev, symObjAddr: 0xEEB8, symBinAddr: 0x10001202C, symSize: 0x28 }
  - { offsetInCU: 0x310A6, offset: 0x310A6, size: 0x8, addend: 0x0, symName: __ZNSt3__122__compressed_pair_elemIRNS_9allocatorIP12ExprTreeNodeEELi1ELb0EE5__getB8ue170006Ev, symObjAddr: 0xEEE0, symBinAddr: 0x100012054, symSize: 0x18 }
  - { offsetInCU: 0x310CC, offset: 0x310CC, size: 0x8, addend: 0x0, symName: __ZNSt3__117__compressed_pairIPP12ExprTreeNodeRNS_9allocatorIS2_EEE5firstB8ue170006Ev, symObjAddr: 0xEEF8, symBinAddr: 0x10001206C, symSize: 0x24 }
  - { offsetInCU: 0x310F2, offset: 0x310F2, size: 0x8, addend: 0x0, symName: __ZNSt3__116reverse_iteratorIPP12ExprTreeNodeEC1B8ue170006ES3_, symObjAddr: 0xEF94, symBinAddr: 0x100012108, symSize: 0x34 }
  - { offsetInCU: 0x3112A, offset: 0x3112A, size: 0x8, addend: 0x0, symName: __ZNKSt3__116reverse_iteratorIPP12ExprTreeNodeE4baseB8ue170006Ev, symObjAddr: 0xEFC8, symBinAddr: 0x10001213C, symSize: 0x18 }
  - { offsetInCU: 0x31150, offset: 0x31150, size: 0x8, addend: 0x0, symName: __ZNKSt3__16vectorIP12ExprTreeNodeNS_9allocatorIS2_EEE14__annotate_newB8ue170006Em, symObjAddr: 0xF01C, symBinAddr: 0x100012190, symSize: 0xAC }
  - { offsetInCU: 0x311AB, offset: 0x311AB, size: 0x8, addend: 0x0, symName: __ZNKSt3__111__move_loopINS_17_ClassicAlgPolicyEEclB8ue170006INS_16reverse_iteratorIPP12ExprTreeNodeEES8_S8_EENS_4pairIT_T1_EESA_T0_SB_, symObjAddr: 0xF3B8, symBinAddr: 0x10001252C, symSize: 0xA0 }
  - { offsetInCU: 0x3121C, offset: 0x3121C, size: 0x8, addend: 0x0, symName: __ZNSt3__18_IterOpsINS_17_ClassicAlgPolicyEE11__iter_moveB8ue170006IRNS_16reverse_iteratorIPP12ExprTreeNodeEEEENS_9enable_ifIXsr12is_referenceIDTdeclsr3stdE7declvalIRT_EEEEE5valueEDTclsr3stdE4movedeclsr3stdE7declvalISC_EEEEE4typeEOSB_, symObjAddr: 0xF5EC, symBinAddr: 0x100012760, symSize: 0x28 }
  - { offsetInCU: 0x31248, offset: 0x31248, size: 0x8, addend: 0x0, symName: __ZNKSt3__116reverse_iteratorIPP12ExprTreeNodeEdeB8ue170006Ev, symObjAddr: 0xF614, symBinAddr: 0x100012788, symSize: 0x28 }
  - { offsetInCU: 0x3127C, offset: 0x3127C, size: 0x8, addend: 0x0, symName: __ZNSt3__116reverse_iteratorIPP12ExprTreeNodeEppB8ue170006Ev, symObjAddr: 0xF63C, symBinAddr: 0x1000127B0, symSize: 0x20 }
  - { offsetInCU: 0x312A2, offset: 0x312A2, size: 0x8, addend: 0x0, symName: __ZNSt3__18_IterOpsINS_17_ClassicAlgPolicyEE25__validate_iter_referenceB8ue170006IRNS_16reverse_iteratorIPP12ExprTreeNodeEEEEvv, symObjAddr: 0xF65C, symBinAddr: 0x1000127D0, symSize: 0x4 }
  - { offsetInCU: 0x312C0, offset: 0x312C0, size: 0x8, addend: 0x0, symName: __ZNSt3__118__unwrap_iter_implINS_16reverse_iteratorIPP12ExprTreeNodeEELb0EE8__unwrapB8ue170006ES5_, symObjAddr: 0xF660, symBinAddr: 0x1000127D4, symSize: 0x24 }
  - { offsetInCU: 0x312E9, offset: 0x312E9, size: 0x8, addend: 0x0, symName: __ZNSt3__14pairINS_16reverse_iteratorIPP12ExprTreeNodeEES5_EC1B8ue170006IS5_S5_LPv0EEEOT_OT0_, symObjAddr: 0xF684, symBinAddr: 0x1000127F8, symSize: 0x3C }
  - { offsetInCU: 0x31347, offset: 0x31347, size: 0x8, addend: 0x0, symName: __ZNSt3__14pairINS_16reverse_iteratorIPP12ExprTreeNodeEES5_EC2B8ue170006IS5_S5_LPv0EEEOT_OT0_, symObjAddr: 0xF6C0, symBinAddr: 0x100012834, symSize: 0x34 }
  - { offsetInCU: 0x313A5, offset: 0x313A5, size: 0x8, addend: 0x0, symName: __ZNSt3__118__unwrap_iter_implINS_16reverse_iteratorIPP12ExprTreeNodeEELb0EE8__rewrapB8ue170006ES5_S5_, symObjAddr: 0xF6F4, symBinAddr: 0x100012868, symSize: 0x2C }
  - { offsetInCU: 0x313D2, offset: 0x313D2, size: 0x8, addend: 0x0, symName: __ZNSt3__116reverse_iteratorIPP12ExprTreeNodeEC2B8ue170006ES3_, symObjAddr: 0xF720, symBinAddr: 0x100012894, symSize: 0x28 }
  - { offsetInCU: 0x3140A, offset: 0x3140A, size: 0x8, addend: 0x0, symName: __ZNSt3__114__split_bufferIP12ExprTreeNodeRNS_9allocatorIS2_EEED2Ev, symObjAddr: 0xF748, symBinAddr: 0x1000128BC, symSize: 0x8C }
  - { offsetInCU: 0x31436, offset: 0x31436, size: 0x8, addend: 0x0, symName: __ZNSt3__114__split_bufferIP12ExprTreeNodeRNS_9allocatorIS2_EEE5clearB8ue170006Ev, symObjAddr: 0xF7D4, symBinAddr: 0x100012948, symSize: 0x28 }
  - { offsetInCU: 0x3145C, offset: 0x3145C, size: 0x8, addend: 0x0, symName: __ZNKSt3__114__split_bufferIP12ExprTreeNodeRNS_9allocatorIS2_EEE8capacityB8ue170006Ev, symObjAddr: 0xF7FC, symBinAddr: 0x100012970, symSize: 0x40 }
  - { offsetInCU: 0x31482, offset: 0x31482, size: 0x8, addend: 0x0, symName: __ZNSt3__114__split_bufferIP12ExprTreeNodeRNS_9allocatorIS2_EEE17__destruct_at_endB8ue170006EPS2_, symObjAddr: 0xF83C, symBinAddr: 0x1000129B0, symSize: 0x2C }
  - { offsetInCU: 0x314B6, offset: 0x314B6, size: 0x8, addend: 0x0, symName: __ZNSt3__114__split_bufferIP12ExprTreeNodeRNS_9allocatorIS2_EEE17__destruct_at_endB8ue170006EPS2_NS_17integral_constantIbLb0EEE, symObjAddr: 0xF868, symBinAddr: 0x1000129DC, symSize: 0x80 }
  - { offsetInCU: 0x314F6, offset: 0x314F6, size: 0x8, addend: 0x0, symName: __ZNKSt3__114__split_bufferIP12ExprTreeNodeRNS_9allocatorIS2_EEE9__end_capB8ue170006Ev, symObjAddr: 0xF8E8, symBinAddr: 0x100012A5C, symSize: 0x28 }
  - { offsetInCU: 0x3151C, offset: 0x3151C, size: 0x8, addend: 0x0, symName: __ZNKSt3__117__compressed_pairIPP12ExprTreeNodeRNS_9allocatorIS2_EEE5firstB8ue170006Ev, symObjAddr: 0xF910, symBinAddr: 0x100012A84, symSize: 0x24 }
  - { offsetInCU: 0x31542, offset: 0x31542, size: 0x8, addend: 0x0, symName: __ZNSt3__16vectorIP12ExprTreeNodeNS_9allocatorIS2_EEE17__destruct_at_endB8ue170006EPS2_, symObjAddr: 0xF934, symBinAddr: 0x100012AA8, symSize: 0x4C }
  - { offsetInCU: 0x31586, offset: 0x31586, size: 0x8, addend: 0x0, symName: __ZNKSt3__16vectorIP12ExprTreeNodeNS_9allocatorIS2_EEE17__annotate_shrinkB8ue170006Em, symObjAddr: 0xF980, symBinAddr: 0x100012AF4, symSize: 0xB4 }
  - { offsetInCU: 0x315DC, offset: 0x315DC, size: 0x8, addend: 0x0, symName: __ZNKSt3__113basic_ostreamIcNS_11char_traitsIcEEE6sentrycvbB8ue170006Ev, symObjAddr: 0xFC20, symBinAddr: 0x100012D94, symSize: 0x1C }
  - { offsetInCU: 0x31602, offset: 0x31602, size: 0x8, addend: 0x0, symName: __ZNSt3__119ostreambuf_iteratorIcNS_11char_traitsIcEEEC1B8ue170006ERNS_13basic_ostreamIcS2_EE, symObjAddr: 0xFE7C, symBinAddr: 0x100012FF0, symSize: 0x34 }
  - { offsetInCU: 0x3163A, offset: 0x3163A, size: 0x8, addend: 0x0, symName: __ZNKSt3__18ios_base5flagsB8ue170006Ev, symObjAddr: 0xFEB0, symBinAddr: 0x100013024, symSize: 0x18 }
  - { offsetInCU: 0x31662, offset: 0x31662, size: 0x8, addend: 0x0, symName: __ZNKSt3__19basic_iosIcNS_11char_traitsIcEEE4fillB8ue170006Ev, symObjAddr: 0xFEC8, symBinAddr: 0x10001303C, symSize: 0x64 }
  - { offsetInCU: 0x3168A, offset: 0x3168A, size: 0x8, addend: 0x0, symName: __ZNKSt3__119ostreambuf_iteratorIcNS_11char_traitsIcEEE6failedB8ue170006Ev, symObjAddr: 0xFF2C, symBinAddr: 0x1000130A0, symSize: 0x24 }
  - { offsetInCU: 0x316B0, offset: 0x316B0, size: 0x8, addend: 0x0, symName: __ZNSt3__19basic_iosIcNS_11char_traitsIcEEE8setstateB8ue170006Ej, symObjAddr: 0xFF50, symBinAddr: 0x1000130C4, symSize: 0x2C }
  - { offsetInCU: 0x316E5, offset: 0x316E5, size: 0x8, addend: 0x0, symName: __ZNKSt3__18ios_base5widthB8ue170006Ev, symObjAddr: 0xFF7C, symBinAddr: 0x1000130F0, symSize: 0x18 }
  - { offsetInCU: 0x3170D, offset: 0x3170D, size: 0x8, addend: 0x0, symName: __ZNSt3__115basic_streambufIcNS_11char_traitsIcEEE5sputnB8ue170006EPKcl, symObjAddr: 0xFF94, symBinAddr: 0x100013108, symSize: 0x3C }
  - { offsetInCU: 0x3174F, offset: 0x3174F, size: 0x8, addend: 0x0, symName: __ZNSt3__112basic_stringIcNS_11char_traitsIcEENS_9allocatorIcEEEC1B8ue170006Emc, symObjAddr: 0xFFD0, symBinAddr: 0x100013144, symSize: 0x3C }
  - { offsetInCU: 0x31797, offset: 0x31797, size: 0x8, addend: 0x0, symName: __ZNSt3__18ios_base5widthB8ue170006El, symObjAddr: 0x1000C, symBinAddr: 0x100013180, symSize: 0x2C }
  - { offsetInCU: 0x317DD, offset: 0x317DD, size: 0x8, addend: 0x0, symName: __ZNSt3__112basic_stringIcNS_11char_traitsIcEENS_9allocatorIcEEEC2B8ue170006Emc, symObjAddr: 0x10038, symBinAddr: 0x1000131AC, symSize: 0x4C }
  - { offsetInCU: 0x31825, offset: 0x31825, size: 0x8, addend: 0x0, symName: __ZNSt3__119ostreambuf_iteratorIcNS_11char_traitsIcEEEC2B8ue170006ERNS_13basic_ostreamIcS2_EE, symObjAddr: 0x10084, symBinAddr: 0x1000131F8, symSize: 0x54 }
  - { offsetInCU: 0x3185D, offset: 0x3185D, size: 0x8, addend: 0x0, symName: __ZNKSt3__19basic_iosIcNS_11char_traitsIcEEE5rdbufB8ue170006Ev, symObjAddr: 0x100D8, symBinAddr: 0x10001324C, symSize: 0x24 }
  - { offsetInCU: 0x31885, offset: 0x31885, size: 0x8, addend: 0x0, symName: __ZNKSt3__18ios_base5rdbufB8ue170006Ev, symObjAddr: 0x100FC, symBinAddr: 0x100013270, symSize: 0x18 }
  - { offsetInCU: 0x318AB, offset: 0x318AB, size: 0x8, addend: 0x0, symName: __ZNSt3__111char_traitsIcE11eq_int_typeB8ue170006Eii, symObjAddr: 0x10114, symBinAddr: 0x100013288, symSize: 0x28 }
  - { offsetInCU: 0x318DE, offset: 0x318DE, size: 0x8, addend: 0x0, symName: __ZNSt3__111char_traitsIcE3eofB8ue170006Ev, symObjAddr: 0x1013C, symBinAddr: 0x1000132B0, symSize: 0x8 }
  - { offsetInCU: 0x318F2, offset: 0x318F2, size: 0x8, addend: 0x0, symName: __ZNKSt3__19basic_iosIcNS_11char_traitsIcEEE5widenB8ue170006Ec, symObjAddr: 0x10144, symBinAddr: 0x1000132B8, symSize: 0x84 }
  - { offsetInCU: 0x31929, offset: 0x31929, size: 0x8, addend: 0x0, symName: __ZNKSt3__15ctypeIcE5widenB8ue170006Ec, symObjAddr: 0x101F4, symBinAddr: 0x100013368, symSize: 0x38 }
  - { offsetInCU: 0x3195E, offset: 0x3195E, size: 0x8, addend: 0x0, symName: __ZNSt3__18ios_base8setstateB8ue170006Ej, symObjAddr: 0x1022C, symBinAddr: 0x1000133A0, symSize: 0x34 }
  - { offsetInCU: 0x31995, offset: 0x31995, size: 0x8, addend: 0x0, symName: __ZNSt3__16vectorINS_12basic_stringIcNS_11char_traitsIcEENS_9allocatorIcEEEENS4_IS6_EEE9__end_capB8ue170006Ev, symObjAddr: 0x10260, symBinAddr: 0x1000133D4, symSize: 0x28 }
  - { offsetInCU: 0x319C1, offset: 0x319C1, size: 0x8, addend: 0x0, symName: __ZNSt3__16vectorINS_12basic_stringIcNS_11char_traitsIcEENS_9allocatorIcEEEENS4_IS6_EEE22__construct_one_at_endB8ue170006IJS6_EEEvDpOT_, symObjAddr: 0x10288, symBinAddr: 0x1000133FC, symSize: 0x90 }
  - { offsetInCU: 0x31A10, offset: 0x31A10, size: 0x8, addend: 0x0, symName: __ZNSt3__16vectorINS_12basic_stringIcNS_11char_traitsIcEENS_9allocatorIcEEEENS4_IS6_EEE21__push_back_slow_pathIS6_EEvOT_, symObjAddr: 0x10318, symBinAddr: 0x10001348C, symSize: 0xD8 }
  - { offsetInCU: 0x31A6E, offset: 0x31A6E, size: 0x8, addend: 0x0, symName: __ZNSt3__117__compressed_pairIPNS_12basic_stringIcNS_11char_traitsIcEENS_9allocatorIcEEEENS4_IS6_EEE5firstB8ue170006Ev, symObjAddr: 0x103F0, symBinAddr: 0x100013564, symSize: 0x24 }
  - { offsetInCU: 0x31A94, offset: 0x31A94, size: 0x8, addend: 0x0, symName: __ZNSt3__122__compressed_pair_elemIPNS_12basic_stringIcNS_11char_traitsIcEENS_9allocatorIcEEEELi0ELb0EE5__getB8ue170006Ev, symObjAddr: 0x10414, symBinAddr: 0x100013588, symSize: 0x14 }
  - { offsetInCU: 0x31AD5, offset: 0x31AD5, size: 0x8, addend: 0x0, symName: __ZNSt3__16vectorINS_12basic_stringIcNS_11char_traitsIcEENS_9allocatorIcEEEENS4_IS6_EEE21_ConstructTransactionC1B8ue170006ERS8_m, symObjAddr: 0x10428, symBinAddr: 0x10001359C, symSize: 0x3C }
  - { offsetInCU: 0x31B1D, offset: 0x31B1D, size: 0x8, addend: 0x0, symName: __ZNSt3__116allocator_traitsINS_9allocatorINS_12basic_stringIcNS_11char_traitsIcEENS1_IcEEEEEEE9constructB8ue170006IS6_JS6_EvEEvRS7_PT_DpOT0_, symObjAddr: 0x10464, symBinAddr: 0x1000135D8, symSize: 0x34 }
  - { offsetInCU: 0x31B74, offset: 0x31B74, size: 0x8, addend: 0x0, symName: __ZNSt3__16vectorINS_12basic_stringIcNS_11char_traitsIcEENS_9allocatorIcEEEENS4_IS6_EEE7__allocB8ue170006Ev, symObjAddr: 0x10498, symBinAddr: 0x10001360C, symSize: 0x28 }
  - { offsetInCU: 0x31B9A, offset: 0x31B9A, size: 0x8, addend: 0x0, symName: __ZNSt3__16vectorINS_12basic_stringIcNS_11char_traitsIcEENS_9allocatorIcEEEENS4_IS6_EEE21_ConstructTransactionD1B8ue170006Ev, symObjAddr: 0x104D4, symBinAddr: 0x100013648, symSize: 0x2C }
  - { offsetInCU: 0x31BC4, offset: 0x31BC4, size: 0x8, addend: 0x0, symName: __ZNSt3__16vectorINS_12basic_stringIcNS_11char_traitsIcEENS_9allocatorIcEEEENS4_IS6_EEE21_ConstructTransactionC2B8ue170006ERS8_m, symObjAddr: 0x10500, symBinAddr: 0x100013674, symSize: 0x4C }
  - { offsetInCU: 0x31C0C, offset: 0x31C0C, size: 0x8, addend: 0x0, symName: __ZNSt3__19allocatorINS_12basic_stringIcNS_11char_traitsIcEENS0_IcEEEEE9constructB8ue170006IS5_JS5_EEEvPT_DpOT0_, symObjAddr: 0x1054C, symBinAddr: 0x1000136C0, symSize: 0x30 }
  - { offsetInCU: 0x31C62, offset: 0x31C62, size: 0x8, addend: 0x0, symName: __ZNSt3__117__compressed_pairIPNS_12basic_stringIcNS_11char_traitsIcEENS_9allocatorIcEEEENS4_IS6_EEE6secondB8ue170006Ev, symObjAddr: 0x1057C, symBinAddr: 0x1000136F0, symSize: 0x24 }
  - { offsetInCU: 0x31C88, offset: 0x31C88, size: 0x8, addend: 0x0, symName: __ZNSt3__122__compressed_pair_elemINS_9allocatorINS_12basic_stringIcNS_11char_traitsIcEENS1_IcEEEEEELi1ELb1EE5__getB8ue170006Ev, symObjAddr: 0x105A0, symBinAddr: 0x100013714, symSize: 0x14 }
  - { offsetInCU: 0x31CAE, offset: 0x31CAE, size: 0x8, addend: 0x0, symName: __ZNSt3__16vectorINS_12basic_stringIcNS_11char_traitsIcEENS_9allocatorIcEEEENS4_IS6_EEE21_ConstructTransactionD2B8ue170006Ev, symObjAddr: 0x105B4, symBinAddr: 0x100013728, symSize: 0x20 }
  - { offsetInCU: 0x31CD8, offset: 0x31CD8, size: 0x8, addend: 0x0, symName: __ZNKSt3__16vectorINS_12basic_stringIcNS_11char_traitsIcEENS_9allocatorIcEEEENS4_IS6_EEE11__recommendB8ue170006Em, symObjAddr: 0x105D4, symBinAddr: 0x100013748, symSize: 0xB4 }
  - { offsetInCU: 0x31D2D, offset: 0x31D2D, size: 0x8, addend: 0x0, symName: __ZNSt3__114__split_bufferINS_12basic_stringIcNS_11char_traitsIcEENS_9allocatorIcEEEERNS4_IS6_EEEC1EmmS8_, symObjAddr: 0x10688, symBinAddr: 0x1000137FC, symSize: 0x44 }
  - { offsetInCU: 0x31D83, offset: 0x31D83, size: 0x8, addend: 0x0, symName: __ZNSt3__114__split_bufferINS_12basic_stringIcNS_11char_traitsIcEENS_9allocatorIcEEEERNS4_IS6_EEED1Ev, symObjAddr: 0x107DC, symBinAddr: 0x100013950, symSize: 0x2C }
  - { offsetInCU: 0x31DAF, offset: 0x31DAF, size: 0x8, addend: 0x0, symName: __ZNKSt3__16vectorINS_12basic_stringIcNS_11char_traitsIcEENS_9allocatorIcEEEENS4_IS6_EEE8max_sizeEv, symObjAddr: 0x10808, symBinAddr: 0x10001397C, symSize: 0x60 }
  - { offsetInCU: 0x31DD7, offset: 0x31DD7, size: 0x8, addend: 0x0, symName: __ZNKSt3__16vectorINS_12basic_stringIcNS_11char_traitsIcEENS_9allocatorIcEEEENS4_IS6_EEE20__throw_length_errorB8ue170006Ev, symObjAddr: 0x10868, symBinAddr: 0x1000139DC, symSize: 0x1C }
  - { offsetInCU: 0x31DFD, offset: 0x31DFD, size: 0x8, addend: 0x0, symName: __ZNKSt3__16vectorINS_12basic_stringIcNS_11char_traitsIcEENS_9allocatorIcEEEENS4_IS6_EEE8capacityB8ue170006Ev, symObjAddr: 0x10884, symBinAddr: 0x1000139F8, symSize: 0x40 }
  - { offsetInCU: 0x31E2E, offset: 0x31E2E, size: 0x8, addend: 0x0, symName: __ZNSt3__116allocator_traitsINS_9allocatorINS_12basic_stringIcNS_11char_traitsIcEENS1_IcEEEEEEE8max_sizeB8ue170006IS7_vEEmRKS7_, symObjAddr: 0x108C4, symBinAddr: 0x100013A38, symSize: 0x24 }
  - { offsetInCU: 0x31E5C, offset: 0x31E5C, size: 0x8, addend: 0x0, symName: __ZNKSt3__16vectorINS_12basic_stringIcNS_11char_traitsIcEENS_9allocatorIcEEEENS4_IS6_EEE7__allocB8ue170006Ev, symObjAddr: 0x108E8, symBinAddr: 0x100013A5C, symSize: 0x28 }
  - { offsetInCU: 0x31E82, offset: 0x31E82, size: 0x8, addend: 0x0, symName: __ZNKSt3__19allocatorINS_12basic_stringIcNS_11char_traitsIcEENS0_IcEEEEE8max_sizeB8ue170006Ev, symObjAddr: 0x10910, symBinAddr: 0x100013A84, symSize: 0x18 }
  - { offsetInCU: 0x31EA8, offset: 0x31EA8, size: 0x8, addend: 0x0, symName: __ZNKSt3__117__compressed_pairIPNS_12basic_stringIcNS_11char_traitsIcEENS_9allocatorIcEEEENS4_IS6_EEE6secondB8ue170006Ev, symObjAddr: 0x10928, symBinAddr: 0x100013A9C, symSize: 0x24 }
  - { offsetInCU: 0x31ECE, offset: 0x31ECE, size: 0x8, addend: 0x0, symName: __ZNKSt3__122__compressed_pair_elemINS_9allocatorINS_12basic_stringIcNS_11char_traitsIcEENS1_IcEEEEEELi1ELb1EE5__getB8ue170006Ev, symObjAddr: 0x1094C, symBinAddr: 0x100013AC0, symSize: 0x14 }
  - { offsetInCU: 0x31EF4, offset: 0x31EF4, size: 0x8, addend: 0x0, symName: __ZNKSt3__16vectorINS_12basic_stringIcNS_11char_traitsIcEENS_9allocatorIcEEEENS4_IS6_EEE9__end_capB8ue170006Ev, symObjAddr: 0x10960, symBinAddr: 0x100013AD4, symSize: 0x28 }
  - { offsetInCU: 0x31F1A, offset: 0x31F1A, size: 0x8, addend: 0x0, symName: __ZNKSt3__117__compressed_pairIPNS_12basic_stringIcNS_11char_traitsIcEENS_9allocatorIcEEEENS4_IS6_EEE5firstB8ue170006Ev, symObjAddr: 0x10988, symBinAddr: 0x100013AFC, symSize: 0x24 }
  - { offsetInCU: 0x31F40, offset: 0x31F40, size: 0x8, addend: 0x0, symName: __ZNKSt3__122__compressed_pair_elemIPNS_12basic_stringIcNS_11char_traitsIcEENS_9allocatorIcEEEELi0ELb0EE5__getB8ue170006Ev, symObjAddr: 0x109AC, symBinAddr: 0x100013B20, symSize: 0x14 }
  - { offsetInCU: 0x31F66, offset: 0x31F66, size: 0x8, addend: 0x0, symName: __ZNSt3__114__split_bufferINS_12basic_stringIcNS_11char_traitsIcEENS_9allocatorIcEEEERNS4_IS6_EEEC2EmmS8_, symObjAddr: 0x109C0, symBinAddr: 0x100013B34, symSize: 0xE0 }
  - { offsetInCU: 0x31FD9, offset: 0x31FD9, size: 0x8, addend: 0x0, symName: __ZNSt3__117__compressed_pairIPNS_12basic_stringIcNS_11char_traitsIcEENS_9allocatorIcEEEERNS4_IS6_EEEC1B8ue170006IDnS9_EEOT_OT0_, symObjAddr: 0x10AA0, symBinAddr: 0x100013C14, symSize: 0x3C }
  - { offsetInCU: 0x32031, offset: 0x32031, size: 0x8, addend: 0x0, symName: __ZNSt3__114__split_bufferINS_12basic_stringIcNS_11char_traitsIcEENS_9allocatorIcEEEERNS4_IS6_EEE7__allocB8ue170006Ev, symObjAddr: 0x10B1C, symBinAddr: 0x100013C90, symSize: 0x28 }
  - { offsetInCU: 0x32057, offset: 0x32057, size: 0x8, addend: 0x0, symName: __ZNSt3__114__split_bufferINS_12basic_stringIcNS_11char_traitsIcEENS_9allocatorIcEEEERNS4_IS6_EEE9__end_capB8ue170006Ev, symObjAddr: 0x10B44, symBinAddr: 0x100013CB8, symSize: 0x28 }
  - { offsetInCU: 0x3207D, offset: 0x3207D, size: 0x8, addend: 0x0, symName: __ZNSt3__117__compressed_pairIPNS_12basic_stringIcNS_11char_traitsIcEENS_9allocatorIcEEEERNS4_IS6_EEEC2B8ue170006IDnS9_EEOT_OT0_, symObjAddr: 0x10B6C, symBinAddr: 0x100013CE0, symSize: 0x48 }
  - { offsetInCU: 0x320D5, offset: 0x320D5, size: 0x8, addend: 0x0, symName: __ZNSt3__122__compressed_pair_elemIPNS_12basic_stringIcNS_11char_traitsIcEENS_9allocatorIcEEEELi0ELb0EEC2B8ue170006IDnvEEOT_, symObjAddr: 0x10BB4, symBinAddr: 0x100013D28, symSize: 0x1C }
  - { offsetInCU: 0x32117, offset: 0x32117, size: 0x8, addend: 0x0, symName: __ZNSt3__122__compressed_pair_elemIRNS_9allocatorINS_12basic_stringIcNS_11char_traitsIcEENS1_IcEEEEEELi1ELb0EEC2B8ue170006IS8_vEEOT_, symObjAddr: 0x10BD0, symBinAddr: 0x100013D44, symSize: 0x20 }
  - { offsetInCU: 0x32159, offset: 0x32159, size: 0x8, addend: 0x0, symName: __ZNSt3__19allocatorINS_12basic_stringIcNS_11char_traitsIcEENS0_IcEEEEE8allocateB8ue170006Em, symObjAddr: 0x10BF0, symBinAddr: 0x100013D64, symSize: 0x5C }
  - { offsetInCU: 0x3218D, offset: 0x3218D, size: 0x8, addend: 0x0, symName: __ZNSt3__117__compressed_pairIPNS_12basic_stringIcNS_11char_traitsIcEENS_9allocatorIcEEEERNS4_IS6_EEE6secondB8ue170006Ev, symObjAddr: 0x10C4C, symBinAddr: 0x100013DC0, symSize: 0x28 }
  - { offsetInCU: 0x321B3, offset: 0x321B3, size: 0x8, addend: 0x0, symName: __ZNSt3__122__compressed_pair_elemIRNS_9allocatorINS_12basic_stringIcNS_11char_traitsIcEENS1_IcEEEEEELi1ELb0EE5__getB8ue170006Ev, symObjAddr: 0x10C74, symBinAddr: 0x100013DE8, symSize: 0x18 }
  - { offsetInCU: 0x321D9, offset: 0x321D9, size: 0x8, addend: 0x0, symName: __ZNSt3__117__compressed_pairIPNS_12basic_stringIcNS_11char_traitsIcEENS_9allocatorIcEEEERNS4_IS6_EEE5firstB8ue170006Ev, symObjAddr: 0x10C8C, symBinAddr: 0x100013E00, symSize: 0x24 }
  - { offsetInCU: 0x321FF, offset: 0x321FF, size: 0x8, addend: 0x0, symName: __ZNKSt3__16vectorINS_12basic_stringIcNS_11char_traitsIcEENS_9allocatorIcEEEENS4_IS6_EEE17__annotate_deleteB8ue170006Ev, symObjAddr: 0x10CB0, symBinAddr: 0x100013E24, symSize: 0xD4 }
  - { offsetInCU: 0x32225, offset: 0x32225, size: 0x8, addend: 0x0, symName: __ZNSt3__116reverse_iteratorIPNS_12basic_stringIcNS_11char_traitsIcEENS_9allocatorIcEEEEEC1B8ue170006ES7_, symObjAddr: 0x10EB0, symBinAddr: 0x100014024, symSize: 0x34 }
  - { offsetInCU: 0x3225D, offset: 0x3225D, size: 0x8, addend: 0x0, symName: __ZNKSt3__116reverse_iteratorIPNS_12basic_stringIcNS_11char_traitsIcEENS_9allocatorIcEEEEE4baseB8ue170006Ev, symObjAddr: 0x10EE4, symBinAddr: 0x100014058, symSize: 0x18 }
  - { offsetInCU: 0x32283, offset: 0x32283, size: 0x8, addend: 0x0, symName: __ZNKSt3__16vectorINS_12basic_stringIcNS_11char_traitsIcEENS_9allocatorIcEEEENS4_IS6_EEE14__annotate_newB8ue170006Em, symObjAddr: 0x10F38, symBinAddr: 0x1000140AC, symSize: 0xC8 }
  - { offsetInCU: 0x322B8, offset: 0x322B8, size: 0x8, addend: 0x0, symName: __ZNKSt3__16vectorINS_12basic_stringIcNS_11char_traitsIcEENS_9allocatorIcEEEENS4_IS6_EEE31__annotate_contiguous_containerB8ue170006EPKvSA_SA_SA_, symObjAddr: 0x11000, symBinAddr: 0x100014174, symSize: 0x20 }
  - { offsetInCU: 0x3230A, offset: 0x3230A, size: 0x8, addend: 0x0, symName: __ZNKSt3__16vectorINS_12basic_stringIcNS_11char_traitsIcEENS_9allocatorIcEEEENS4_IS6_EEE4dataB8ue170006Ev, symObjAddr: 0x11020, symBinAddr: 0x100014194, symSize: 0x28 }
  - { offsetInCU: 0x32330, offset: 0x32330, size: 0x8, addend: 0x0, symName: __ZNSt3__129_AllocatorDestroyRangeReverseINS_9allocatorINS_12basic_stringIcNS_11char_traitsIcEENS1_IcEEEEEENS_16reverse_iteratorIPS6_EEEC1B8ue170006ERS7_RSA_SD_, symObjAddr: 0x11094, symBinAddr: 0x100014208, symSize: 0x44 }
  - { offsetInCU: 0x32387, offset: 0x32387, size: 0x8, addend: 0x0, symName: __ZNKSt3__116reverse_iteratorIPNS_12basic_stringIcNS_11char_traitsIcEENS_9allocatorIcEEEEEdeB8ue170006Ev, symObjAddr: 0x11144, symBinAddr: 0x1000142B8, symSize: 0x28 }
  - { offsetInCU: 0x323BB, offset: 0x323BB, size: 0x8, addend: 0x0, symName: __ZNSt3__116reverse_iteratorIPNS_12basic_stringIcNS_11char_traitsIcEENS_9allocatorIcEEEEEppB8ue170006Ev, symObjAddr: 0x1116C, symBinAddr: 0x1000142E0, symSize: 0x20 }
  - { offsetInCU: 0x323E1, offset: 0x323E1, size: 0x8, addend: 0x0, symName: __ZNSt3__128__exception_guard_exceptionsINS_29_AllocatorDestroyRangeReverseINS_9allocatorINS_12basic_stringIcNS_11char_traitsIcEENS2_IcEEEEEENS_16reverse_iteratorIPS7_EEEEE10__completeB8ue170006Ev, symObjAddr: 0x1118C, symBinAddr: 0x100014300, symSize: 0x1C }
  - { offsetInCU: 0x32407, offset: 0x32407, size: 0x8, addend: 0x0, symName: __ZNSt3__128__exception_guard_exceptionsINS_29_AllocatorDestroyRangeReverseINS_9allocatorINS_12basic_stringIcNS_11char_traitsIcEENS2_IcEEEEEENS_16reverse_iteratorIPS7_EEEEED1B8ue170006Ev, symObjAddr: 0x111A8, symBinAddr: 0x10001431C, symSize: 0x2C }
  - { offsetInCU: 0x32431, offset: 0x32431, size: 0x8, addend: 0x0, symName: __ZNSt3__128__exception_guard_exceptionsINS_29_AllocatorDestroyRangeReverseINS_9allocatorINS_12basic_stringIcNS_11char_traitsIcEENS2_IcEEEEEENS_16reverse_iteratorIPS7_EEEEEC1B8ue170006ESC_, symObjAddr: 0x111D4, symBinAddr: 0x100014348, symSize: 0x34 }
  - { offsetInCU: 0x3246A, offset: 0x3246A, size: 0x8, addend: 0x0, symName: __ZNSt3__128__exception_guard_exceptionsINS_29_AllocatorDestroyRangeReverseINS_9allocatorINS_12basic_stringIcNS_11char_traitsIcEENS2_IcEEEEEENS_16reverse_iteratorIPS7_EEEEEC2B8ue170006ESC_, symObjAddr: 0x11208, symBinAddr: 0x10001437C, symSize: 0x30 }
  - { offsetInCU: 0x324A3, offset: 0x324A3, size: 0x8, addend: 0x0, symName: __ZNSt3__129_AllocatorDestroyRangeReverseINS_9allocatorINS_12basic_stringIcNS_11char_traitsIcEENS1_IcEEEEEENS_16reverse_iteratorIPS6_EEEC2B8ue170006ERS7_RSA_SD_, symObjAddr: 0x11238, symBinAddr: 0x1000143AC, symSize: 0x38 }
  - { offsetInCU: 0x32500, offset: 0x32500, size: 0x8, addend: 0x0, symName: __ZNSt3__119__to_address_helperINS_16reverse_iteratorIPNS_12basic_stringIcNS_11char_traitsIcEENS_9allocatorIcEEEEEEvE6__callB8ue170006ERKS9_, symObjAddr: 0x11270, symBinAddr: 0x1000143E4, symSize: 0x38 }
  - { offsetInCU: 0x32523, offset: 0x32523, size: 0x8, addend: 0x0, symName: __ZNKSt3__116reverse_iteratorIPNS_12basic_stringIcNS_11char_traitsIcEENS_9allocatorIcEEEEEptB8ue170006Ev, symObjAddr: 0x112A8, symBinAddr: 0x10001441C, symSize: 0x24 }
  - { offsetInCU: 0x32549, offset: 0x32549, size: 0x8, addend: 0x0, symName: __ZNSt3__128__exception_guard_exceptionsINS_29_AllocatorDestroyRangeReverseINS_9allocatorINS_12basic_stringIcNS_11char_traitsIcEENS2_IcEEEEEENS_16reverse_iteratorIPS7_EEEEED2B8ue170006Ev, symObjAddr: 0x112CC, symBinAddr: 0x100014440, symSize: 0x50 }
  - { offsetInCU: 0x32573, offset: 0x32573, size: 0x8, addend: 0x0, symName: __ZNKSt3__129_AllocatorDestroyRangeReverseINS_9allocatorINS_12basic_stringIcNS_11char_traitsIcEENS1_IcEEEEEENS_16reverse_iteratorIPS6_EEEclB8ue170006Ev, symObjAddr: 0x1131C, symBinAddr: 0x100014490, symSize: 0xB4 }
  - { offsetInCU: 0x3259A, offset: 0x3259A, size: 0x8, addend: 0x0, symName: __ZNSt3__116reverse_iteratorINS0_IPNS_12basic_stringIcNS_11char_traitsIcEENS_9allocatorIcEEEEEEEC1B8ue170006ES8_, symObjAddr: 0x11440, symBinAddr: 0x1000145B4, symSize: 0x3C }
  - { offsetInCU: 0x325D2, offset: 0x325D2, size: 0x8, addend: 0x0, symName: __ZNSt3__116allocator_traitsINS_9allocatorINS_12basic_stringIcNS_11char_traitsIcEENS1_IcEEEEEEE7destroyB8ue170006IS6_vEEvRS7_PT_, symObjAddr: 0x114DC, symBinAddr: 0x100014650, symSize: 0x2C }
  - { offsetInCU: 0x3260F, offset: 0x3260F, size: 0x8, addend: 0x0, symName: __ZNSt3__116reverse_iteratorINS0_IPNS_12basic_stringIcNS_11char_traitsIcEENS_9allocatorIcEEEEEEEppB8ue170006Ev, symObjAddr: 0x1152C, symBinAddr: 0x1000146A0, symSize: 0x30 }
  - { offsetInCU: 0x32635, offset: 0x32635, size: 0x8, addend: 0x0, symName: __ZNKSt3__116reverse_iteratorINS0_IPNS_12basic_stringIcNS_11char_traitsIcEENS_9allocatorIcEEEEEEE4baseB8ue170006Ev, symObjAddr: 0x1155C, symBinAddr: 0x1000146D0, symSize: 0x24 }
  - { offsetInCU: 0x3265B, offset: 0x3265B, size: 0x8, addend: 0x0, symName: __ZNSt3__19allocatorINS_12basic_stringIcNS_11char_traitsIcEENS0_IcEEEEE7destroyB8ue170006EPS5_, symObjAddr: 0x11580, symBinAddr: 0x1000146F4, symSize: 0x28 }
  - { offsetInCU: 0x32695, offset: 0x32695, size: 0x8, addend: 0x0, symName: __ZNSt3__119__to_address_helperINS_16reverse_iteratorINS1_IPNS_12basic_stringIcNS_11char_traitsIcEENS_9allocatorIcEEEEEEEEvE6__callB8ue170006ERKSA_, symObjAddr: 0x115A8, symBinAddr: 0x10001471C, symSize: 0x38 }
  - { offsetInCU: 0x326B8, offset: 0x326B8, size: 0x8, addend: 0x0, symName: __ZNKSt3__116reverse_iteratorINS0_IPNS_12basic_stringIcNS_11char_traitsIcEENS_9allocatorIcEEEEEEEptB8ue170006Ev, symObjAddr: 0x115E0, symBinAddr: 0x100014754, symSize: 0x24 }
  - { offsetInCU: 0x326DE, offset: 0x326DE, size: 0x8, addend: 0x0, symName: __ZNKSt3__116reverse_iteratorINS0_IPNS_12basic_stringIcNS_11char_traitsIcEENS_9allocatorIcEEEEEEEdeB8ue170006Ev, symObjAddr: 0x11604, symBinAddr: 0x100014778, symSize: 0x34 }
  - { offsetInCU: 0x32712, offset: 0x32712, size: 0x8, addend: 0x0, symName: __ZNSt3__116reverse_iteratorIPNS_12basic_stringIcNS_11char_traitsIcEENS_9allocatorIcEEEEEmmB8ue170006Ev, symObjAddr: 0x11638, symBinAddr: 0x1000147AC, symSize: 0x20 }
  - { offsetInCU: 0x32738, offset: 0x32738, size: 0x8, addend: 0x0, symName: __ZNSt3__116reverse_iteratorINS0_IPNS_12basic_stringIcNS_11char_traitsIcEENS_9allocatorIcEEEEEEEC2B8ue170006ES8_, symObjAddr: 0x11658, symBinAddr: 0x1000147CC, symSize: 0x2C }
  - { offsetInCU: 0x32770, offset: 0x32770, size: 0x8, addend: 0x0, symName: __ZNSt3__116reverse_iteratorIPNS_12basic_stringIcNS_11char_traitsIcEENS_9allocatorIcEEEEEC2B8ue170006ES7_, symObjAddr: 0x11684, symBinAddr: 0x1000147F8, symSize: 0x28 }
  - { offsetInCU: 0x327A8, offset: 0x327A8, size: 0x8, addend: 0x0, symName: __ZNSt3__114__split_bufferINS_12basic_stringIcNS_11char_traitsIcEENS_9allocatorIcEEEERNS4_IS6_EEED2Ev, symObjAddr: 0x116AC, symBinAddr: 0x100014820, symSize: 0x8C }
  - { offsetInCU: 0x327D4, offset: 0x327D4, size: 0x8, addend: 0x0, symName: __ZNSt3__114__split_bufferINS_12basic_stringIcNS_11char_traitsIcEENS_9allocatorIcEEEERNS4_IS6_EEE5clearB8ue170006Ev, symObjAddr: 0x11738, symBinAddr: 0x1000148AC, symSize: 0x28 }
  - { offsetInCU: 0x327FA, offset: 0x327FA, size: 0x8, addend: 0x0, symName: __ZNSt3__116allocator_traitsINS_9allocatorINS_12basic_stringIcNS_11char_traitsIcEENS1_IcEEEEEEE10deallocateB8ue170006ERS7_PS6_m, symObjAddr: 0x11760, symBinAddr: 0x1000148D4, symSize: 0x34 }
  - { offsetInCU: 0x3283C, offset: 0x3283C, size: 0x8, addend: 0x0, symName: __ZNKSt3__114__split_bufferINS_12basic_stringIcNS_11char_traitsIcEENS_9allocatorIcEEEERNS4_IS6_EEE8capacityB8ue170006Ev, symObjAddr: 0x11794, symBinAddr: 0x100014908, symSize: 0x40 }
  - { offsetInCU: 0x32862, offset: 0x32862, size: 0x8, addend: 0x0, symName: __ZNSt3__114__split_bufferINS_12basic_stringIcNS_11char_traitsIcEENS_9allocatorIcEEEERNS4_IS6_EEE17__destruct_at_endB8ue170006EPS6_, symObjAddr: 0x117D4, symBinAddr: 0x100014948, symSize: 0x2C }
  - { offsetInCU: 0x32896, offset: 0x32896, size: 0x8, addend: 0x0, symName: __ZNSt3__114__split_bufferINS_12basic_stringIcNS_11char_traitsIcEENS_9allocatorIcEEEERNS4_IS6_EEE17__destruct_at_endB8ue170006EPS6_NS_17integral_constantIbLb0EEE, symObjAddr: 0x11800, symBinAddr: 0x100014974, symSize: 0x80 }
  - { offsetInCU: 0x328D6, offset: 0x328D6, size: 0x8, addend: 0x0, symName: __ZNSt3__19allocatorINS_12basic_stringIcNS_11char_traitsIcEENS0_IcEEEEE10deallocateB8ue170006EPS5_m, symObjAddr: 0x11880, symBinAddr: 0x1000149F4, symSize: 0x44 }
  - { offsetInCU: 0x32918, offset: 0x32918, size: 0x8, addend: 0x0, symName: __ZNKSt3__114__split_bufferINS_12basic_stringIcNS_11char_traitsIcEENS_9allocatorIcEEEERNS4_IS6_EEE9__end_capB8ue170006Ev, symObjAddr: 0x118C4, symBinAddr: 0x100014A38, symSize: 0x28 }
  - { offsetInCU: 0x3293E, offset: 0x3293E, size: 0x8, addend: 0x0, symName: __ZNKSt3__117__compressed_pairIPNS_12basic_stringIcNS_11char_traitsIcEENS_9allocatorIcEEEERNS4_IS6_EEE5firstB8ue170006Ev, symObjAddr: 0x118EC, symBinAddr: 0x100014A60, symSize: 0x24 }
  - { offsetInCU: 0x32964, offset: 0x32964, size: 0x8, addend: 0x0, symName: __ZNSt3__16vectorINS_12basic_stringIcNS_11char_traitsIcEENS_9allocatorIcEEEENS4_IS6_EEE22__construct_one_at_endB8ue170006IJRKS6_EEEvDpOT_, symObjAddr: 0x11910, symBinAddr: 0x100014A84, symSize: 0x90 }
  - { offsetInCU: 0x329B3, offset: 0x329B3, size: 0x8, addend: 0x0, symName: __ZNSt3__16vectorINS_12basic_stringIcNS_11char_traitsIcEENS_9allocatorIcEEEENS4_IS6_EEE21__push_back_slow_pathIRKS6_EEvOT_, symObjAddr: 0x119A0, symBinAddr: 0x100014B14, symSize: 0xD8 }
  - { offsetInCU: 0x32A11, offset: 0x32A11, size: 0x8, addend: 0x0, symName: __ZNSt3__116allocator_traitsINS_9allocatorINS_12basic_stringIcNS_11char_traitsIcEENS1_IcEEEEEEE9constructB8ue170006IS6_JRKS6_EvEEvRS7_PT_DpOT0_, symObjAddr: 0x11A78, symBinAddr: 0x100014BEC, symSize: 0x34 }
  - { offsetInCU: 0x32A68, offset: 0x32A68, size: 0x8, addend: 0x0, symName: __ZNSt3__19allocatorINS_12basic_stringIcNS_11char_traitsIcEENS0_IcEEEEE9constructB8ue170006IS5_JRKS5_EEEvPT_DpOT0_, symObjAddr: 0x11AAC, symBinAddr: 0x100014C20, symSize: 0x30 }
  - { offsetInCU: 0x32ABE, offset: 0x32ABE, size: 0x8, addend: 0x0, symName: __ZNSt3__19basic_iosIcNS_11char_traitsIcEEEC2B8ue170006Ev, symObjAddr: 0x11ADC, symBinAddr: 0x100014C50, symSize: 0x44 }
  - { offsetInCU: 0x32AE8, offset: 0x32AE8, size: 0x8, addend: 0x0, symName: __ZNSt3__113basic_istreamIcNS_11char_traitsIcEEEC2B8ue170006EPNS_15basic_streambufIcS2_EE, symObjAddr: 0x11B20, symBinAddr: 0x100014C94, symSize: 0x64 }
  - { offsetInCU: 0x32B2D, offset: 0x32B2D, size: 0x8, addend: 0x0, symName: __ZNSt3__113basic_filebufIcNS_11char_traitsIcEEE4openERKNS_12basic_stringIcS2_NS_9allocatorIcEEEEj, symObjAddr: 0x11B84, symBinAddr: 0x100014CF8, symSize: 0x44 }
  - { offsetInCU: 0x32B71, offset: 0x32B71, size: 0x8, addend: 0x0, symName: __ZNSt3__18ios_baseC2B8ue170006Ev, symObjAddr: 0x11BC8, symBinAddr: 0x100014D3C, symSize: 0x24 }
  - { offsetInCU: 0x32B9B, offset: 0x32B9B, size: 0x8, addend: 0x0, symName: __ZNSt3__19basic_iosIcNS_11char_traitsIcEEE4initB8ue170006EPNS_15basic_streambufIcS2_EE, symObjAddr: 0x11BEC, symBinAddr: 0x100014D60, symSize: 0x44 }
  - { offsetInCU: 0x32BD2, offset: 0x32BD2, size: 0x8, addend: 0x0, symName: __ZNKSt3__112basic_stringIcNS_11char_traitsIcEENS_9allocatorIcEEE5c_strB8ue170006Ev, symObjAddr: 0x11C30, symBinAddr: 0x100014DA4, symSize: 0x24 }
  - { offsetInCU: 0x32BF8, offset: 0x32BF8, size: 0x8, addend: 0x0, symName: __ZNKSt3__113basic_filebufIcNS_11char_traitsIcEEE7is_openEv, symObjAddr: 0x11C54, symBinAddr: 0x100014DC8, symSize: 0x24 }
  - { offsetInCU: 0x32C20, offset: 0x32C20, size: 0x8, addend: 0x0, symName: __ZNSt3__16vectorINS_12basic_stringIcNS_11char_traitsIcEENS_9allocatorIcEEEENS4_IS6_EEEC2B8ue170006Ev, symObjAddr: 0x11C78, symBinAddr: 0x100014DEC, symSize: 0x4C }
  - { offsetInCU: 0x32C4A, offset: 0x32C4A, size: 0x8, addend: 0x0, symName: __ZNSt3__117__compressed_pairIPNS_12basic_stringIcNS_11char_traitsIcEENS_9allocatorIcEEEENS4_IS6_EEEC1B8ue170006IDnNS_18__default_init_tagEEEOT_OT0_, symObjAddr: 0x11CC4, symBinAddr: 0x100014E38, symSize: 0x3C }
  - { offsetInCU: 0x32CA2, offset: 0x32CA2, size: 0x8, addend: 0x0, symName: __ZNSt3__117__compressed_pairIPNS_12basic_stringIcNS_11char_traitsIcEENS_9allocatorIcEEEENS4_IS6_EEEC2B8ue170006IDnNS_18__default_init_tagEEEOT_OT0_, symObjAddr: 0x11D00, symBinAddr: 0x100014E74, symSize: 0x40 }
  - { offsetInCU: 0x32CFA, offset: 0x32CFA, size: 0x8, addend: 0x0, symName: __ZNSt3__122__compressed_pair_elemINS_9allocatorINS_12basic_stringIcNS_11char_traitsIcEENS1_IcEEEEEELi1ELb1EEC2B8ue170006ENS_18__default_init_tagE, symObjAddr: 0x11D40, symBinAddr: 0x100014EB4, symSize: 0x2C }
  - { offsetInCU: 0x32D2E, offset: 0x32D2E, size: 0x8, addend: 0x0, symName: __ZNSt3__19allocatorINS_12basic_stringIcNS_11char_traitsIcEENS0_IcEEEEEC2B8ue170006Ev, symObjAddr: 0x11D6C, symBinAddr: 0x100014EE0, symSize: 0x2C }
  - { offsetInCU: 0x32D58, offset: 0x32D58, size: 0x8, addend: 0x0, symName: __ZNSt3__116__non_trivial_ifILb1ENS_9allocatorINS_12basic_stringIcNS_11char_traitsIcEENS1_IcEEEEEEEC2B8ue170006Ev, symObjAddr: 0x11D98, symBinAddr: 0x100014F0C, symSize: 0x14 }
  - { offsetInCU: 0x32D82, offset: 0x32D82, size: 0x8, addend: 0x0, symName: __ZNSt3__16vectorINS_12basic_stringIcNS_11char_traitsIcEENS_9allocatorIcEEEENS4_IS6_EEED2B8ue170006Ev, symObjAddr: 0x11DAC, symBinAddr: 0x100014F20, symSize: 0x44 }
  - { offsetInCU: 0x32DAC, offset: 0x32DAC, size: 0x8, addend: 0x0, symName: __ZNSt3__16vectorINS_12basic_stringIcNS_11char_traitsIcEENS_9allocatorIcEEEENS4_IS6_EEE16__destroy_vectorC1B8ue170006ERS8_, symObjAddr: 0x11DF0, symBinAddr: 0x100014F64, symSize: 0x34 }
  - { offsetInCU: 0x32DE5, offset: 0x32DE5, size: 0x8, addend: 0x0, symName: __ZNSt3__16vectorINS_12basic_stringIcNS_11char_traitsIcEENS_9allocatorIcEEEENS4_IS6_EEE16__destroy_vectorclB8ue170006Ev, symObjAddr: 0x11E24, symBinAddr: 0x100014F98, symSize: 0x90 }
  - { offsetInCU: 0x32E0B, offset: 0x32E0B, size: 0x8, addend: 0x0, symName: __ZNSt3__16vectorINS_12basic_stringIcNS_11char_traitsIcEENS_9allocatorIcEEEENS4_IS6_EEE16__destroy_vectorC2B8ue170006ERS8_, symObjAddr: 0x11EB4, symBinAddr: 0x100015028, symSize: 0x20 }
  - { offsetInCU: 0x32E44, offset: 0x32E44, size: 0x8, addend: 0x0, symName: __ZNSt3__16vectorINS_12basic_stringIcNS_11char_traitsIcEENS_9allocatorIcEEEENS4_IS6_EEE7__clearB8ue170006Ev, symObjAddr: 0x11ED4, symBinAddr: 0x100015048, symSize: 0x28 }
  - { offsetInCU: 0x32E6A, offset: 0x32E6A, size: 0x8, addend: 0x0, symName: __ZNSt3__16vectorINS_12basic_stringIcNS_11char_traitsIcEENS_9allocatorIcEEEENS4_IS6_EEE22__base_destruct_at_endB8ue170006EPS6_, symObjAddr: 0x11EFC, symBinAddr: 0x100015070, symSize: 0x8C }
  - { offsetInCU: 0x32ECF, offset: 0x32ECF, size: 0x8, addend: 0x0, symName: __ZNKSt3__113basic_istreamIcNS_11char_traitsIcEEE6sentrycvbB8ue170006Ev, symObjAddr: 0x121C0, symBinAddr: 0x100015334, symSize: 0x1C }
  - { offsetInCU: 0x32EF5, offset: 0x32EF5, size: 0x8, addend: 0x0, symName: __ZNSt3__112basic_stringIcNS_11char_traitsIcEENS_9allocatorIcEEE5clearB8ue170006Ev, symObjAddr: 0x121DC, symBinAddr: 0x100015350, symSize: 0x78 }
  - { offsetInCU: 0x32F1D, offset: 0x32F1D, size: 0x8, addend: 0x0, symName: __ZNSt3__115basic_streambufIcNS_11char_traitsIcEEE6sbumpcB8ue170006Ev, symObjAddr: 0x12254, symBinAddr: 0x1000153C8, symSize: 0x78 }
  - { offsetInCU: 0x32F43, offset: 0x32F43, size: 0x8, addend: 0x0, symName: __ZNSt3__111char_traitsIcE12to_char_typeB8ue170006Ei, symObjAddr: 0x122CC, symBinAddr: 0x100015440, symSize: 0x18 }
  - { offsetInCU: 0x32F66, offset: 0x32F66, size: 0x8, addend: 0x0, symName: __ZNSt3__111char_traitsIcE2eqEcc, symObjAddr: 0x122E4, symBinAddr: 0x100015458, symSize: 0x28 }
  - { offsetInCU: 0x32F97, offset: 0x32F97, size: 0x8, addend: 0x0, symName: __ZNSt3__18ios_base18__setstate_nothrowB8ue170006Ej, symObjAddr: 0x1230C, symBinAddr: 0x100015480, symSize: 0x64 }
  - { offsetInCU: 0x32FCC, offset: 0x32FCC, size: 0x8, addend: 0x0, symName: __ZNKSt3__19basic_iosIcNS_11char_traitsIcEEE10exceptionsB8ue170006Ev, symObjAddr: 0x12370, symBinAddr: 0x1000154E4, symSize: 0x24 }
  - { offsetInCU: 0x32FF2, offset: 0x32FF2, size: 0x8, addend: 0x0, symName: __ZNSt3__111char_traitsIcE11to_int_typeB8ue170006Ec, symObjAddr: 0x12394, symBinAddr: 0x100015508, symSize: 0x14 }
  - { offsetInCU: 0x33016, offset: 0x33016, size: 0x8, addend: 0x0, symName: __ZNKSt3__18ios_base10exceptionsB8ue170006Ev, symObjAddr: 0x123A8, symBinAddr: 0x10001551C, symSize: 0x18 }
  - { offsetInCU: 0x3303E, offset: 0x3303E, size: 0x8, addend: 0x0, symName: __ZNKSt3__19basic_iosIcNS_11char_traitsIcEEE4failB8ue170006Ev, symObjAddr: 0x123C0, symBinAddr: 0x100015534, symSize: 0x28 }
  - { offsetInCU: 0x33064, offset: 0x33064, size: 0x8, addend: 0x0, symName: __ZNKSt3__18ios_base4failB8ue170006Ev, symObjAddr: 0x123E8, symBinAddr: 0x10001555C, symSize: 0x28 }
  - { offsetInCU: 0x3308C, offset: 0x3308C, size: 0x8, addend: 0x0, symName: __ZNSt3__111basic_regexIcNS_12regex_traitsIcEEEC2B8ue170006EPKcNS_15regex_constants18syntax_option_typeE, symObjAddr: 0x12410, symBinAddr: 0x100015584, symSize: 0xC8 }
  - { offsetInCU: 0x330D4, offset: 0x330D4, size: 0x8, addend: 0x0, symName: __ZNSt3__112regex_traitsIcEC1Ev, symObjAddr: 0x124D8, symBinAddr: 0x10001564C, symSize: 0x2C }
  - { offsetInCU: 0x33100, offset: 0x33100, size: 0x8, addend: 0x0, symName: __ZNSt3__110shared_ptrINS_13__empty_stateIcEEEC1B8ue170006Ev, symObjAddr: 0x12504, symBinAddr: 0x100015678, symSize: 0x2C }
  - { offsetInCU: 0x3312A, offset: 0x3312A, size: 0x8, addend: 0x0, symName: __ZNSt3__111basic_regexIcNS_12regex_traitsIcEEE6__initIPKcEEvT_S7_, symObjAddr: 0x12530, symBinAddr: 0x1000156A4, symSize: 0x88 }
  - { offsetInCU: 0x33188, offset: 0x33188, size: 0x8, addend: 0x0, symName: __ZNSt3__112regex_traitsIcE6lengthB8ue170006EPKc, symObjAddr: 0x125B8, symBinAddr: 0x10001572C, symSize: 0x24 }
  - { offsetInCU: 0x331AC, offset: 0x331AC, size: 0x8, addend: 0x0, symName: __ZNSt3__112regex_traitsIcEC2Ev, symObjAddr: 0x125DC, symBinAddr: 0x100015750, symSize: 0x5C }
  - { offsetInCU: 0x331D8, offset: 0x331D8, size: 0x8, addend: 0x0, symName: __ZNSt3__112regex_traitsIcE6__initEv, symObjAddr: 0x12638, symBinAddr: 0x1000157AC, symSize: 0x40 }
  - { offsetInCU: 0x33200, offset: 0x33200, size: 0x8, addend: 0x0, symName: __ZNSt3__110shared_ptrINS_13__empty_stateIcEEEC2B8ue170006Ev, symObjAddr: 0x126A4, symBinAddr: 0x100015818, symSize: 0x1C }
  - { offsetInCU: 0x3322A, offset: 0x3322A, size: 0x8, addend: 0x0, symName: __ZNSt3__111basic_regexIcNS_12regex_traitsIcEEE7__parseIPKcEET_S7_S7_, symObjAddr: 0x12714, symBinAddr: 0x100015888, symSize: 0x21C }
  - { offsetInCU: 0x332A3, offset: 0x332A3, size: 0x8, addend: 0x0, symName: __ZNSt3__111__end_stateIcEC1B8ue170006Ev, symObjAddr: 0x129B0, symBinAddr: 0x100015B24, symSize: 0x2C }
  - { offsetInCU: 0x33361, offset: 0x33361, size: 0x8, addend: 0x0, symName: __ZNSt3__110unique_ptrINS_6__nodeIcEENS_14default_deleteIS2_EEEC1B8ue170006ILb1EvEEPS2_, symObjAddr: 0x129DC, symBinAddr: 0x100015B50, symSize: 0x34 }
  - { offsetInCU: 0x333A9, offset: 0x333A9, size: 0x8, addend: 0x0, symName: __ZNSt3__110shared_ptrINS_13__empty_stateIcEEE5resetB8ue170006IS2_vEEvPT_, symObjAddr: 0x12A10, symBinAddr: 0x100015B84, symSize: 0x4C }
  - { offsetInCU: 0x333E8, offset: 0x333E8, size: 0x8, addend: 0x0, symName: __ZNKSt3__110unique_ptrINS_6__nodeIcEENS_14default_deleteIS2_EEE3getB8ue170006Ev, symObjAddr: 0x12A5C, symBinAddr: 0x100015BD0, symSize: 0x28 }
  - { offsetInCU: 0x3340E, offset: 0x3340E, size: 0x8, addend: 0x0, symName: __ZNSt3__113__empty_stateIcEC1B8ue170006EPNS_6__nodeIcEE, symObjAddr: 0x12A84, symBinAddr: 0x100015BF8, symSize: 0x34 }
  - { offsetInCU: 0x33447, offset: 0x33447, size: 0x8, addend: 0x0, symName: __ZNSt3__110unique_ptrINS_6__nodeIcEENS_14default_deleteIS2_EEE7releaseB8ue170006Ev, symObjAddr: 0x12AB8, symBinAddr: 0x100015C2C, symSize: 0x44 }
  - { offsetInCU: 0x3347C, offset: 0x3347C, size: 0x8, addend: 0x0, symName: __ZNKSt3__110shared_ptrINS_13__empty_stateIcEEE3getB8ue170006Ev, symObjAddr: 0x12AFC, symBinAddr: 0x100015C70, symSize: 0x18 }
  - { offsetInCU: 0x334A2, offset: 0x334A2, size: 0x8, addend: 0x0, symName: __ZNSt3__110unique_ptrINS_6__nodeIcEENS_14default_deleteIS2_EEED1B8ue170006Ev, symObjAddr: 0x12B14, symBinAddr: 0x100015C88, symSize: 0x2C }
  - { offsetInCU: 0x334CC, offset: 0x334CC, size: 0x8, addend: 0x0, symName: __ZNSt3__111basic_regexIcNS_12regex_traitsIcEEE16__parse_ecma_expIPKcEET_S7_S7_, symObjAddr: 0x12B40, symBinAddr: 0x100015CB4, symSize: 0x124 }
  - { offsetInCU: 0x33556, offset: 0x33556, size: 0x8, addend: 0x0, symName: __ZNSt3__111basic_regexIcNS_12regex_traitsIcEEE21__parse_basic_reg_expIPKcEET_S7_S7_, symObjAddr: 0x12C64, symBinAddr: 0x100015DD8, symSize: 0x13C }
  - { offsetInCU: 0x335C2, offset: 0x335C2, size: 0x8, addend: 0x0, symName: __ZNSt3__111basic_regexIcNS_12regex_traitsIcEEE24__parse_extended_reg_expIPKcEET_S7_S7_, symObjAddr: 0x12DA0, symBinAddr: 0x100015F14, symSize: 0x114 }
  - { offsetInCU: 0x3364C, offset: 0x3364C, size: 0x8, addend: 0x0, symName: __ZNSt3__111basic_regexIcNS_12regex_traitsIcEEE12__parse_grepIPKcEET_S7_S7_, symObjAddr: 0x12EB4, symBinAddr: 0x100016028, symSize: 0x17C }
  - { offsetInCU: 0x336D6, offset: 0x336D6, size: 0x8, addend: 0x0, symName: __ZNSt3__111basic_regexIcNS_12regex_traitsIcEEE13__parse_egrepIPKcEET_S7_S7_, symObjAddr: 0x13030, symBinAddr: 0x1000161A4, symSize: 0x17C }
  - { offsetInCU: 0x33760, offset: 0x33760, size: 0x8, addend: 0x0, symName: __ZNSt3__111__end_stateIcEC2B8ue170006Ev, symObjAddr: 0x1320C, symBinAddr: 0x100016380, symSize: 0x44 }
  - { offsetInCU: 0x3378A, offset: 0x3378A, size: 0x8, addend: 0x0, symName: __ZNSt3__16__nodeIcEC2B8ue170006Ev, symObjAddr: 0x13250, symBinAddr: 0x1000163C4, symSize: 0x24 }
  - { offsetInCU: 0x337B4, offset: 0x337B4, size: 0x8, addend: 0x0, symName: __ZNSt3__111__end_stateIcED1Ev, symObjAddr: 0x13274, symBinAddr: 0x1000163E8, symSize: 0x2C }
  - { offsetInCU: 0x337E1, offset: 0x337E1, size: 0x8, addend: 0x0, symName: __ZNSt3__111__end_stateIcED0Ev, symObjAddr: 0x132A0, symBinAddr: 0x100016414, symSize: 0x30 }
  - { offsetInCU: 0x3380E, offset: 0x3380E, size: 0x8, addend: 0x0, symName: __ZNKSt3__111__end_stateIcE6__execERNS_7__stateIcEE, symObjAddr: 0x132D0, symBinAddr: 0x100016444, symSize: 0x20 }
  - { offsetInCU: 0x33845, offset: 0x33845, size: 0x8, addend: 0x0, symName: __ZNKSt3__16__nodeIcE12__exec_splitEbRNS_7__stateIcEE, symObjAddr: 0x132F0, symBinAddr: 0x100016464, symSize: 0x1C }
  - { offsetInCU: 0x33881, offset: 0x33881, size: 0x8, addend: 0x0, symName: __ZNSt3__16__nodeIcED1Ev, symObjAddr: 0x1330C, symBinAddr: 0x100016480, symSize: 0x2C }
  - { offsetInCU: 0x338AB, offset: 0x338AB, size: 0x8, addend: 0x0, symName: __ZNSt3__16__nodeIcED0Ev, symObjAddr: 0x13338, symBinAddr: 0x1000164AC, symSize: 0x30 }
  - { offsetInCU: 0x338D5, offset: 0x338D5, size: 0x8, addend: 0x0, symName: __ZNKSt3__16__nodeIcE6__execERNS_7__stateIcEE, symObjAddr: 0x13368, symBinAddr: 0x1000164DC, symSize: 0x14 }
  - { offsetInCU: 0x33906, offset: 0x33906, size: 0x8, addend: 0x0, symName: __ZNSt3__16__nodeIcED2Ev, symObjAddr: 0x1337C, symBinAddr: 0x1000164F0, symSize: 0x14 }
  - { offsetInCU: 0x33930, offset: 0x33930, size: 0x8, addend: 0x0, symName: __ZNSt3__111__end_stateIcED2Ev, symObjAddr: 0x13390, symBinAddr: 0x100016504, symSize: 0x2C }
  - { offsetInCU: 0x3395D, offset: 0x3395D, size: 0x8, addend: 0x0, symName: __ZNSt3__110unique_ptrINS_6__nodeIcEENS_14default_deleteIS2_EEEC2B8ue170006ILb1EvEEPS2_, symObjAddr: 0x133BC, symBinAddr: 0x100016530, symSize: 0x44 }
  - { offsetInCU: 0x339A6, offset: 0x339A6, size: 0x8, addend: 0x0, symName: __ZNSt3__117__compressed_pairIPNS_6__nodeIcEENS_14default_deleteIS2_EEEC1B8ue170006IRS3_NS_16__value_init_tagEEEOT_OT0_, symObjAddr: 0x13400, symBinAddr: 0x100016574, symSize: 0x3C }
  - { offsetInCU: 0x339FE, offset: 0x339FE, size: 0x8, addend: 0x0, symName: __ZNSt3__117__compressed_pairIPNS_6__nodeIcEENS_14default_deleteIS2_EEEC2B8ue170006IRS3_NS_16__value_init_tagEEEOT_OT0_, symObjAddr: 0x1343C, symBinAddr: 0x1000165B0, symSize: 0x40 }
  - { offsetInCU: 0x33A56, offset: 0x33A56, size: 0x8, addend: 0x0, symName: __ZNSt3__122__compressed_pair_elemIPNS_6__nodeIcEELi0ELb0EEC2B8ue170006IRS3_vEEOT_, symObjAddr: 0x1347C, symBinAddr: 0x1000165F0, symSize: 0x24 }
  - { offsetInCU: 0x33A98, offset: 0x33A98, size: 0x8, addend: 0x0, symName: __ZNSt3__122__compressed_pair_elemINS_14default_deleteINS_6__nodeIcEEEELi1ELb1EEC2B8ue170006ENS_16__value_init_tagE, symObjAddr: 0x134A0, symBinAddr: 0x100016614, symSize: 0x14 }
  - { offsetInCU: 0x33ACC, offset: 0x33ACC, size: 0x8, addend: 0x0, symName: __ZNSt3__110shared_ptrINS_13__empty_stateIcEEEC1B8ue170006IS2_vEEPT_, symObjAddr: 0x134B4, symBinAddr: 0x100016628, symSize: 0x34 }
  - { offsetInCU: 0x33B0F, offset: 0x33B0F, size: 0x8, addend: 0x0, symName: __ZNSt3__110shared_ptrINS_13__empty_stateIcEEE4swapB8ue170006ERS3_, symObjAddr: 0x134E8, symBinAddr: 0x10001665C, symSize: 0x44 }
  - { offsetInCU: 0x33B44, offset: 0x33B44, size: 0x8, addend: 0x0, symName: __ZNSt3__110shared_ptrINS_13__empty_stateIcEEEC2B8ue170006IS2_vEEPT_, symObjAddr: 0x1352C, symBinAddr: 0x1000166A0, symSize: 0xEC }
  - { offsetInCU: 0x33C36, offset: 0x33C36, size: 0x8, addend: 0x0, symName: __ZNSt3__110unique_ptrINS_13__empty_stateIcEENS_14default_deleteIS2_EEEC1B8ue170006ILb1EvEEPS2_, symObjAddr: 0x13618, symBinAddr: 0x10001678C, symSize: 0x34 }
  - { offsetInCU: 0x33C98, offset: 0x33C98, size: 0x8, addend: 0x0, symName: __ZNSt3__19allocatorINS_13__empty_stateIcEEEC1B8ue170006Ev, symObjAddr: 0x1364C, symBinAddr: 0x1000167C0, symSize: 0x2C }
  - { offsetInCU: 0x33D64, offset: 0x33D64, size: 0x8, addend: 0x0, symName: __ZNSt3__120__shared_ptr_pointerIPNS_13__empty_stateIcEENS_10shared_ptrIS2_E27__shared_ptr_default_deleteIS2_S2_EENS_9allocatorIS2_EEEC1B8ue170006ES3_S7_S9_, symObjAddr: 0x13678, symBinAddr: 0x1000167EC, symSize: 0x34 }
  - { offsetInCU: 0x33DB8, offset: 0x33DB8, size: 0x8, addend: 0x0, symName: __ZNSt3__110unique_ptrINS_13__empty_stateIcEENS_14default_deleteIS2_EEE7releaseB8ue170006Ev, symObjAddr: 0x136AC, symBinAddr: 0x100016820, symSize: 0x44 }
  - { offsetInCU: 0x33DED, offset: 0x33DED, size: 0x8, addend: 0x0, symName: __ZNSt3__110shared_ptrINS_13__empty_stateIcEEE18__enable_weak_thisB8ue170006Ez, symObjAddr: 0x136F0, symBinAddr: 0x100016864, symSize: 0x10 }
  - { offsetInCU: 0x33E14, offset: 0x33E14, size: 0x8, addend: 0x0, symName: __ZNSt3__110unique_ptrINS_13__empty_stateIcEENS_14default_deleteIS2_EEED1B8ue170006Ev, symObjAddr: 0x13700, symBinAddr: 0x100016874, symSize: 0x2C }
  - { offsetInCU: 0x33E3E, offset: 0x33E3E, size: 0x8, addend: 0x0, symName: __ZNSt3__110unique_ptrINS_13__empty_stateIcEENS_14default_deleteIS2_EEEC2B8ue170006ILb1EvEEPS2_, symObjAddr: 0x1372C, symBinAddr: 0x1000168A0, symSize: 0x44 }
  - { offsetInCU: 0x33E81, offset: 0x33E81, size: 0x8, addend: 0x0, symName: __ZNSt3__117__compressed_pairIPNS_13__empty_stateIcEENS_14default_deleteIS2_EEEC1B8ue170006IRS3_NS_16__value_init_tagEEEOT_OT0_, symObjAddr: 0x13770, symBinAddr: 0x1000168E4, symSize: 0x3C }
  - { offsetInCU: 0x33ED9, offset: 0x33ED9, size: 0x8, addend: 0x0, symName: __ZNSt3__117__compressed_pairIPNS_13__empty_stateIcEENS_14default_deleteIS2_EEEC2B8ue170006IRS3_NS_16__value_init_tagEEEOT_OT0_, symObjAddr: 0x137AC, symBinAddr: 0x100016920, symSize: 0x40 }
  - { offsetInCU: 0x33F31, offset: 0x33F31, size: 0x8, addend: 0x0, symName: __ZNSt3__122__compressed_pair_elemIPNS_13__empty_stateIcEELi0ELb0EEC2B8ue170006IRS3_vEEOT_, symObjAddr: 0x137EC, symBinAddr: 0x100016960, symSize: 0x24 }
  - { offsetInCU: 0x33F73, offset: 0x33F73, size: 0x8, addend: 0x0, symName: __ZNSt3__122__compressed_pair_elemINS_14default_deleteINS_13__empty_stateIcEEEELi1ELb1EEC2B8ue170006ENS_16__value_init_tagE, symObjAddr: 0x13810, symBinAddr: 0x100016984, symSize: 0x14 }
  - { offsetInCU: 0x33FA7, offset: 0x33FA7, size: 0x8, addend: 0x0, symName: __ZNSt3__19allocatorINS_13__empty_stateIcEEEC2B8ue170006Ev, symObjAddr: 0x13824, symBinAddr: 0x100016998, symSize: 0x2C }
  - { offsetInCU: 0x33FD1, offset: 0x33FD1, size: 0x8, addend: 0x0, symName: __ZNSt3__116__non_trivial_ifILb1ENS_9allocatorINS_13__empty_stateIcEEEEEC2B8ue170006Ev, symObjAddr: 0x13850, symBinAddr: 0x1000169C4, symSize: 0x14 }
  - { offsetInCU: 0x33FFB, offset: 0x33FFB, size: 0x8, addend: 0x0, symName: __ZNSt3__120__shared_ptr_pointerIPNS_13__empty_stateIcEENS_10shared_ptrIS2_E27__shared_ptr_default_deleteIS2_S2_EENS_9allocatorIS2_EEEC2B8ue170006ES3_S7_S9_, symObjAddr: 0x13864, symBinAddr: 0x1000169D8, symSize: 0xA8 }
  - { offsetInCU: 0x3404F, offset: 0x3404F, size: 0x8, addend: 0x0, symName: __ZNSt3__119__shared_weak_countC2B8ue170006El, symObjAddr: 0x1390C, symBinAddr: 0x100016A80, symSize: 0x54 }
  - { offsetInCU: 0x3408D, offset: 0x3408D, size: 0x8, addend: 0x0, symName: __ZNSt3__117__compressed_pairIPNS_13__empty_stateIcEENS_10shared_ptrIS2_E27__shared_ptr_default_deleteIS2_S2_EEEC1B8ue170006IRS3_S7_EEOT_OT0_, symObjAddr: 0x13960, symBinAddr: 0x100016AD4, symSize: 0x3C }
  - { offsetInCU: 0x340F1, offset: 0x340F1, size: 0x8, addend: 0x0, symName: __ZNSt3__117__compressed_pairINS0_IPNS_13__empty_stateIcEENS_10shared_ptrIS2_E27__shared_ptr_default_deleteIS2_S2_EEEENS_9allocatorIS2_EEEC1B8ue170006IS8_SA_EEOT_OT0_, symObjAddr: 0x1399C, symBinAddr: 0x100016B10, symSize: 0x3C }
  - { offsetInCU: 0x34149, offset: 0x34149, size: 0x8, addend: 0x0, symName: __ZNSt3__120__shared_ptr_pointerIPNS_13__empty_stateIcEENS_10shared_ptrIS2_E27__shared_ptr_default_deleteIS2_S2_EENS_9allocatorIS2_EEED1Ev, symObjAddr: 0x139D8, symBinAddr: 0x100016B4C, symSize: 0x2C }
  - { offsetInCU: 0x34175, offset: 0x34175, size: 0x8, addend: 0x0, symName: __ZNSt3__120__shared_ptr_pointerIPNS_13__empty_stateIcEENS_10shared_ptrIS2_E27__shared_ptr_default_deleteIS2_S2_EENS_9allocatorIS2_EEED0Ev, symObjAddr: 0x13A04, symBinAddr: 0x100016B78, symSize: 0x30 }
  - { offsetInCU: 0x341A1, offset: 0x341A1, size: 0x8, addend: 0x0, symName: __ZNSt3__120__shared_ptr_pointerIPNS_13__empty_stateIcEENS_10shared_ptrIS2_E27__shared_ptr_default_deleteIS2_S2_EENS_9allocatorIS2_EEE16__on_zero_sharedEv, symObjAddr: 0x13A34, symBinAddr: 0x100016BA8, symSize: 0x64 }
  - { offsetInCU: 0x341C9, offset: 0x341C9, size: 0x8, addend: 0x0, symName: __ZNKSt3__120__shared_ptr_pointerIPNS_13__empty_stateIcEENS_10shared_ptrIS2_E27__shared_ptr_default_deleteIS2_S2_EENS_9allocatorIS2_EEE13__get_deleterERKSt9type_info, symObjAddr: 0x13A98, symBinAddr: 0x100016C0C, symSize: 0x68 }
  - { offsetInCU: 0x341FE, offset: 0x341FE, size: 0x8, addend: 0x0, symName: __ZNSt3__120__shared_ptr_pointerIPNS_13__empty_stateIcEENS_10shared_ptrIS2_E27__shared_ptr_default_deleteIS2_S2_EENS_9allocatorIS2_EEE21__on_zero_shared_weakEv, symObjAddr: 0x13B00, symBinAddr: 0x100016C74, symSize: 0x60 }
  - { offsetInCU: 0x34241, offset: 0x34241, size: 0x8, addend: 0x0, symName: __ZNSt3__114__shared_countC2B8ue170006El, symObjAddr: 0x13B60, symBinAddr: 0x100016CD4, symSize: 0x30 }
  - { offsetInCU: 0x34279, offset: 0x34279, size: 0x8, addend: 0x0, symName: __ZNSt3__117__compressed_pairIPNS_13__empty_stateIcEENS_10shared_ptrIS2_E27__shared_ptr_default_deleteIS2_S2_EEEC2B8ue170006IRS3_S7_EEOT_OT0_, symObjAddr: 0x13B90, symBinAddr: 0x100016D04, symSize: 0x44 }
  - { offsetInCU: 0x342D1, offset: 0x342D1, size: 0x8, addend: 0x0, symName: __ZNSt3__122__compressed_pair_elemINS_10shared_ptrINS_13__empty_stateIcEEE27__shared_ptr_default_deleteIS3_S3_EELi1ELb1EEC2B8ue170006IS6_vEEOT_, symObjAddr: 0x13BD4, symBinAddr: 0x100016D48, symSize: 0x18 }
  - { offsetInCU: 0x34313, offset: 0x34313, size: 0x8, addend: 0x0, symName: __ZNSt3__117__compressed_pairINS0_IPNS_13__empty_stateIcEENS_10shared_ptrIS2_E27__shared_ptr_default_deleteIS2_S2_EEEENS_9allocatorIS2_EEEC2B8ue170006IS8_SA_EEOT_OT0_, symObjAddr: 0x13BEC, symBinAddr: 0x100016D60, symSize: 0x44 }
  - { offsetInCU: 0x3436B, offset: 0x3436B, size: 0x8, addend: 0x0, symName: __ZNSt3__122__compressed_pair_elemINS_17__compressed_pairIPNS_13__empty_stateIcEENS_10shared_ptrIS3_E27__shared_ptr_default_deleteIS3_S3_EEEELi0ELb0EEC2B8ue170006IS9_vEEOT_, symObjAddr: 0x13C30, symBinAddr: 0x100016DA4, symSize: 0x24 }
  - { offsetInCU: 0x343AD, offset: 0x343AD, size: 0x8, addend: 0x0, symName: __ZNSt3__122__compressed_pair_elemINS_9allocatorINS_13__empty_stateIcEEEELi1ELb1EEC2B8ue170006IS4_vEEOT_, symObjAddr: 0x13C54, symBinAddr: 0x100016DC8, symSize: 0x18 }
  - { offsetInCU: 0x343EF, offset: 0x343EF, size: 0x8, addend: 0x0, symName: __ZNSt3__120__shared_ptr_pointerIPNS_13__empty_stateIcEENS_10shared_ptrIS2_E27__shared_ptr_default_deleteIS2_S2_EENS_9allocatorIS2_EEED2Ev, symObjAddr: 0x13C6C, symBinAddr: 0x100016DE0, symSize: 0x2C }
  - { offsetInCU: 0x3441B, offset: 0x3441B, size: 0x8, addend: 0x0, symName: __ZNSt3__117__compressed_pairINS0_IPNS_13__empty_stateIcEENS_10shared_ptrIS2_E27__shared_ptr_default_deleteIS2_S2_EEEENS_9allocatorIS2_EEE5firstB8ue170006Ev, symObjAddr: 0x13C98, symBinAddr: 0x100016E0C, symSize: 0x24 }
  - { offsetInCU: 0x34441, offset: 0x34441, size: 0x8, addend: 0x0, symName: __ZNSt3__117__compressed_pairIPNS_13__empty_stateIcEENS_10shared_ptrIS2_E27__shared_ptr_default_deleteIS2_S2_EEE6secondB8ue170006Ev, symObjAddr: 0x13CBC, symBinAddr: 0x100016E30, symSize: 0x24 }
  - { offsetInCU: 0x34467, offset: 0x34467, size: 0x8, addend: 0x0, symName: __ZNKSt3__114default_deleteINS_13__empty_stateIcEEEclB8ue170006EPS2_, symObjAddr: 0x13CE0, symBinAddr: 0x100016E54, symSize: 0x4C }
  - { offsetInCU: 0x3449B, offset: 0x3449B, size: 0x8, addend: 0x0, symName: __ZNSt3__117__compressed_pairIPNS_13__empty_stateIcEENS_10shared_ptrIS2_E27__shared_ptr_default_deleteIS2_S2_EEE5firstB8ue170006Ev, symObjAddr: 0x13D2C, symBinAddr: 0x100016EA0, symSize: 0x24 }
  - { offsetInCU: 0x344C1, offset: 0x344C1, size: 0x8, addend: 0x0, symName: __ZNSt3__122__compressed_pair_elemINS_17__compressed_pairIPNS_13__empty_stateIcEENS_10shared_ptrIS3_E27__shared_ptr_default_deleteIS3_S3_EEEELi0ELb0EE5__getB8ue170006Ev, symObjAddr: 0x13D50, symBinAddr: 0x100016EC4, symSize: 0x14 }
  - { offsetInCU: 0x344E7, offset: 0x344E7, size: 0x8, addend: 0x0, symName: __ZNSt3__122__compressed_pair_elemINS_10shared_ptrINS_13__empty_stateIcEEE27__shared_ptr_default_deleteIS3_S3_EELi1ELb1EE5__getB8ue170006Ev, symObjAddr: 0x13D64, symBinAddr: 0x100016ED8, symSize: 0x14 }
  - { offsetInCU: 0x3450D, offset: 0x3450D, size: 0x8, addend: 0x0, symName: __ZNSt3__122__compressed_pair_elemIPNS_13__empty_stateIcEELi0ELb0EE5__getB8ue170006Ev, symObjAddr: 0x13D78, symBinAddr: 0x100016EEC, symSize: 0x14 }
  - { offsetInCU: 0x34569, offset: 0x34569, size: 0x8, addend: 0x0, symName: __ZNKSt9type_infoeqB8ue170006ERKS_, symObjAddr: 0x13D8C, symBinAddr: 0x100016F00, symSize: 0xDC }
  - { offsetInCU: 0x34607, offset: 0x34607, size: 0x8, addend: 0x0, symName: __ZNKSt3__117__compressed_pairINS0_IPNS_13__empty_stateIcEENS_10shared_ptrIS2_E27__shared_ptr_default_deleteIS2_S2_EEEENS_9allocatorIS2_EEE5firstB8ue170006Ev, symObjAddr: 0x13E68, symBinAddr: 0x100016FDC, symSize: 0x24 }
  - { offsetInCU: 0x3462D, offset: 0x3462D, size: 0x8, addend: 0x0, symName: __ZNKSt3__117__compressed_pairIPNS_13__empty_stateIcEENS_10shared_ptrIS2_E27__shared_ptr_default_deleteIS2_S2_EEE6secondB8ue170006Ev, symObjAddr: 0x13E8C, symBinAddr: 0x100017000, symSize: 0x24 }
  - { offsetInCU: 0x34653, offset: 0x34653, size: 0x8, addend: 0x0, symName: __ZNSt27__type_info_implementations30__non_unique_arm_rtti_bit_impl21__is_type_name_uniqueB8ue170006Em, symObjAddr: 0x13EB0, symBinAddr: 0x100017024, symSize: 0x20 }
  - { offsetInCU: 0x34677, offset: 0x34677, size: 0x8, addend: 0x0, symName: __ZNKSt3__122__compressed_pair_elemINS_17__compressed_pairIPNS_13__empty_stateIcEENS_10shared_ptrIS3_E27__shared_ptr_default_deleteIS3_S3_EEEELi0ELb0EE5__getB8ue170006Ev, symObjAddr: 0x13ED0, symBinAddr: 0x100017044, symSize: 0x14 }
  - { offsetInCU: 0x3469D, offset: 0x3469D, size: 0x8, addend: 0x0, symName: __ZNKSt3__122__compressed_pair_elemINS_10shared_ptrINS_13__empty_stateIcEEE27__shared_ptr_default_deleteIS3_S3_EELi1ELb1EE5__getB8ue170006Ev, symObjAddr: 0x13EE4, symBinAddr: 0x100017058, symSize: 0x14 }
  - { offsetInCU: 0x346C3, offset: 0x346C3, size: 0x8, addend: 0x0, symName: __ZNSt3__117__compressed_pairINS0_IPNS_13__empty_stateIcEENS_10shared_ptrIS2_E27__shared_ptr_default_deleteIS2_S2_EEEENS_9allocatorIS2_EEE6secondB8ue170006Ev, symObjAddr: 0x13EF8, symBinAddr: 0x10001706C, symSize: 0x24 }
  - { offsetInCU: 0x34713, offset: 0x34713, size: 0x8, addend: 0x0, symName: __ZNSt3__19allocatorINS_20__shared_ptr_pointerIPNS_13__empty_stateIcEENS_10shared_ptrIS3_E27__shared_ptr_default_deleteIS3_S3_EENS0_IS3_EEEEEC1B8ue170006IS3_EERKNS0_IT_EE, symObjAddr: 0x13F1C, symBinAddr: 0x100017090, symSize: 0x34 }
  - { offsetInCU: 0x34750, offset: 0x34750, size: 0x8, addend: 0x0, symName: __ZNSt3__19allocatorINS_20__shared_ptr_pointerIPNS_13__empty_stateIcEENS_10shared_ptrIS3_E27__shared_ptr_default_deleteIS3_S3_EENS0_IS3_EEEEE10deallocateB8ue170006EPSA_m, symObjAddr: 0x13F50, symBinAddr: 0x1000170C4, symSize: 0x40 }
  - { offsetInCU: 0x34792, offset: 0x34792, size: 0x8, addend: 0x0, symName: __ZNSt3__114pointer_traitsIPNS_20__shared_ptr_pointerIPNS_13__empty_stateIcEENS_10shared_ptrIS3_E27__shared_ptr_default_deleteIS3_S3_EENS_9allocatorIS3_EEEEE10pointer_toB8ue170006ERSB_, symObjAddr: 0x13F90, symBinAddr: 0x100017104, symSize: 0x14 }
  - { offsetInCU: 0x347B5, offset: 0x347B5, size: 0x8, addend: 0x0, symName: __ZNSt3__122__compressed_pair_elemINS_9allocatorINS_13__empty_stateIcEEEELi1ELb1EE5__getB8ue170006Ev, symObjAddr: 0x13FA4, symBinAddr: 0x100017118, symSize: 0x14 }
  - { offsetInCU: 0x347DB, offset: 0x347DB, size: 0x8, addend: 0x0, symName: __ZNSt3__19allocatorINS_20__shared_ptr_pointerIPNS_13__empty_stateIcEENS_10shared_ptrIS3_E27__shared_ptr_default_deleteIS3_S3_EENS0_IS3_EEEEEC2B8ue170006IS3_EERKNS0_IT_EE, symObjAddr: 0x13FB8, symBinAddr: 0x10001712C, symSize: 0x30 }
  - { offsetInCU: 0x34818, offset: 0x34818, size: 0x8, addend: 0x0, symName: __ZNSt3__116__non_trivial_ifILb1ENS_9allocatorINS_20__shared_ptr_pointerIPNS_13__empty_stateIcEENS_10shared_ptrIS4_E27__shared_ptr_default_deleteIS4_S4_EENS1_IS4_EEEEEEEC2B8ue170006Ev, symObjAddr: 0x13FE8, symBinAddr: 0x10001715C, symSize: 0x14 }
  - { offsetInCU: 0x34842, offset: 0x34842, size: 0x8, addend: 0x0, symName: __ZNSt3__117__compressed_pairIPNS_13__empty_stateIcEENS_14default_deleteIS2_EEE5firstB8ue170006Ev, symObjAddr: 0x13FFC, symBinAddr: 0x100017170, symSize: 0x24 }
  - { offsetInCU: 0x34868, offset: 0x34868, size: 0x8, addend: 0x0, symName: __ZNSt3__110unique_ptrINS_13__empty_stateIcEENS_14default_deleteIS2_EEED2B8ue170006Ev, symObjAddr: 0x14020, symBinAddr: 0x100017194, symSize: 0x30 }
  - { offsetInCU: 0x34892, offset: 0x34892, size: 0x8, addend: 0x0, symName: __ZNSt3__110unique_ptrINS_13__empty_stateIcEENS_14default_deleteIS2_EEE5resetB8ue170006EPS2_, symObjAddr: 0x14050, symBinAddr: 0x1000171C4, symSize: 0x78 }
  - { offsetInCU: 0x348D6, offset: 0x348D6, size: 0x8, addend: 0x0, symName: __ZNSt3__117__compressed_pairIPNS_13__empty_stateIcEENS_14default_deleteIS2_EEE6secondB8ue170006Ev, symObjAddr: 0x140C8, symBinAddr: 0x10001723C, symSize: 0x24 }
  - { offsetInCU: 0x348FC, offset: 0x348FC, size: 0x8, addend: 0x0, symName: __ZNSt3__122__compressed_pair_elemINS_14default_deleteINS_13__empty_stateIcEEEELi1ELb1EE5__getB8ue170006Ev, symObjAddr: 0x140EC, symBinAddr: 0x100017260, symSize: 0x14 }
  - { offsetInCU: 0x34922, offset: 0x34922, size: 0x8, addend: 0x0, symName: __ZNKSt3__117__compressed_pairIPNS_6__nodeIcEENS_14default_deleteIS2_EEE5firstB8ue170006Ev, symObjAddr: 0x14178, symBinAddr: 0x1000172EC, symSize: 0x24 }
  - { offsetInCU: 0x34948, offset: 0x34948, size: 0x8, addend: 0x0, symName: __ZNKSt3__122__compressed_pair_elemIPNS_6__nodeIcEELi0ELb0EE5__getB8ue170006Ev, symObjAddr: 0x1419C, symBinAddr: 0x100017310, symSize: 0x14 }
  - { offsetInCU: 0x3496E, offset: 0x3496E, size: 0x8, addend: 0x0, symName: __ZNSt3__113__empty_stateIcEC2B8ue170006EPNS_6__nodeIcEE, symObjAddr: 0x141B0, symBinAddr: 0x100017324, symSize: 0x4C }
  - { offsetInCU: 0x349A7, offset: 0x349A7, size: 0x8, addend: 0x0, symName: __ZNSt3__116__owns_one_stateIcEC2B8ue170006EPNS_6__nodeIcEE, symObjAddr: 0x141FC, symBinAddr: 0x100017370, symSize: 0x4C }
  - { offsetInCU: 0x349E0, offset: 0x349E0, size: 0x8, addend: 0x0, symName: __ZNSt3__113__empty_stateIcED1Ev, symObjAddr: 0x14248, symBinAddr: 0x1000173BC, symSize: 0x2C }
  - { offsetInCU: 0x34A0D, offset: 0x34A0D, size: 0x8, addend: 0x0, symName: __ZNSt3__113__empty_stateIcED0Ev, symObjAddr: 0x14274, symBinAddr: 0x1000173E8, symSize: 0x30 }
  - { offsetInCU: 0x34A3A, offset: 0x34A3A, size: 0x8, addend: 0x0, symName: __ZNKSt3__113__empty_stateIcE6__execERNS_7__stateIcEE, symObjAddr: 0x142A4, symBinAddr: 0x100017418, symSize: 0x3C }
  - { offsetInCU: 0x34A71, offset: 0x34A71, size: 0x8, addend: 0x0, symName: __ZNSt3__115__has_one_stateIcEC2B8ue170006EPNS_6__nodeIcEE, symObjAddr: 0x142E0, symBinAddr: 0x100017454, symSize: 0x50 }
  - { offsetInCU: 0x34AAA, offset: 0x34AAA, size: 0x8, addend: 0x0, symName: __ZNSt3__116__owns_one_stateIcED1Ev, symObjAddr: 0x14330, symBinAddr: 0x1000174A4, symSize: 0x2C }
  - { offsetInCU: 0x34AD6, offset: 0x34AD6, size: 0x8, addend: 0x0, symName: __ZNSt3__116__owns_one_stateIcED0Ev, symObjAddr: 0x1435C, symBinAddr: 0x1000174D0, symSize: 0x30 }
  - { offsetInCU: 0x34B02, offset: 0x34B02, size: 0x8, addend: 0x0, symName: __ZNSt3__115__has_one_stateIcED1Ev, symObjAddr: 0x1438C, symBinAddr: 0x100017500, symSize: 0x2C }
  - { offsetInCU: 0x34B2F, offset: 0x34B2F, size: 0x8, addend: 0x0, symName: __ZNSt3__115__has_one_stateIcED0Ev, symObjAddr: 0x143B8, symBinAddr: 0x10001752C, symSize: 0x30 }
  - { offsetInCU: 0x34B5C, offset: 0x34B5C, size: 0x8, addend: 0x0, symName: __ZNSt3__115__has_one_stateIcED2Ev, symObjAddr: 0x143E8, symBinAddr: 0x10001755C, symSize: 0x2C }
  - { offsetInCU: 0x34B89, offset: 0x34B89, size: 0x8, addend: 0x0, symName: __ZNSt3__116__owns_one_stateIcED2Ev, symObjAddr: 0x14414, symBinAddr: 0x100017588, symSize: 0x88 }
  - { offsetInCU: 0x34BB5, offset: 0x34BB5, size: 0x8, addend: 0x0, symName: __ZNSt3__115__has_one_stateIcE5firstB8ue170006Ev, symObjAddr: 0x1449C, symBinAddr: 0x100017610, symSize: 0x18 }
  - { offsetInCU: 0x34BDB, offset: 0x34BDB, size: 0x8, addend: 0x0, symName: __ZNSt3__113__empty_stateIcED2Ev, symObjAddr: 0x144B4, symBinAddr: 0x100017628, symSize: 0x2C }
  - { offsetInCU: 0x34C08, offset: 0x34C08, size: 0x8, addend: 0x0, symName: __ZNKSt3__115__has_one_stateIcE5firstB8ue170006Ev, symObjAddr: 0x144E0, symBinAddr: 0x100017654, symSize: 0x18 }
  - { offsetInCU: 0x34C2E, offset: 0x34C2E, size: 0x8, addend: 0x0, symName: __ZNSt3__117__compressed_pairIPNS_6__nodeIcEENS_14default_deleteIS2_EEE5firstB8ue170006Ev, symObjAddr: 0x144F8, symBinAddr: 0x10001766C, symSize: 0x24 }
  - { offsetInCU: 0x34C54, offset: 0x34C54, size: 0x8, addend: 0x0, symName: __ZNSt3__122__compressed_pair_elemIPNS_6__nodeIcEELi0ELb0EE5__getB8ue170006Ev, symObjAddr: 0x1451C, symBinAddr: 0x100017690, symSize: 0x14 }
  - { offsetInCU: 0x34C7A, offset: 0x34C7A, size: 0x8, addend: 0x0, symName: __ZNSt3__110unique_ptrINS_6__nodeIcEENS_14default_deleteIS2_EEED2B8ue170006Ev, symObjAddr: 0x14530, symBinAddr: 0x1000176A4, symSize: 0x30 }
  - { offsetInCU: 0x34CA4, offset: 0x34CA4, size: 0x8, addend: 0x0, symName: __ZNSt3__110unique_ptrINS_6__nodeIcEENS_14default_deleteIS2_EEE5resetB8ue170006EPS2_, symObjAddr: 0x14560, symBinAddr: 0x1000176D4, symSize: 0x78 }
  - { offsetInCU: 0x34CE8, offset: 0x34CE8, size: 0x8, addend: 0x0, symName: __ZNSt3__117__compressed_pairIPNS_6__nodeIcEENS_14default_deleteIS2_EEE6secondB8ue170006Ev, symObjAddr: 0x145D8, symBinAddr: 0x10001774C, symSize: 0x24 }
  - { offsetInCU: 0x34D0E, offset: 0x34D0E, size: 0x8, addend: 0x0, symName: __ZNKSt3__114default_deleteINS_6__nodeIcEEEclB8ue170006EPS2_, symObjAddr: 0x145FC, symBinAddr: 0x100017770, symSize: 0x4C }
  - { offsetInCU: 0x34D42, offset: 0x34D42, size: 0x8, addend: 0x0, symName: __ZNSt3__122__compressed_pair_elemINS_14default_deleteINS_6__nodeIcEEEELi1ELb1EE5__getB8ue170006Ev, symObjAddr: 0x14648, symBinAddr: 0x1000177BC, symSize: 0x14 }
  - { offsetInCU: 0x34D68, offset: 0x34D68, size: 0x8, addend: 0x0, symName: __ZNSt3__111basic_regexIcNS_12regex_traitsIcEEE19__parse_alternativeIPKcEET_S7_S7_, symObjAddr: 0x1465C, symBinAddr: 0x1000177D0, symSize: 0x70 }
  - { offsetInCU: 0x34DD4, offset: 0x34DD4, size: 0x8, addend: 0x0, symName: __ZNSt3__111basic_regexIcNS_12regex_traitsIcEEE12__push_emptyEv, symObjAddr: 0x146CC, symBinAddr: 0x100017840, symSize: 0xA0 }
  - { offsetInCU: 0x34DFC, offset: 0x34DFC, size: 0x8, addend: 0x0, symName: __ZNSt3__111basic_regexIcNS_12regex_traitsIcEEE18__push_alternationEPNS_16__owns_one_stateIcEES6_, symObjAddr: 0x1476C, symBinAddr: 0x1000178E0, symSize: 0x17C }
  - { offsetInCU: 0x34E42, offset: 0x34E42, size: 0x8, addend: 0x0, symName: __ZNSt3__111basic_regexIcNS_12regex_traitsIcEEE12__parse_termIPKcEET_S7_S7_, symObjAddr: 0x148E8, symBinAddr: 0x100017A5C, symSize: 0xD0 }
  - { offsetInCU: 0x34ECC, offset: 0x34ECC, size: 0x8, addend: 0x0, symName: __ZNSt3__111basic_regexIcNS_12regex_traitsIcEEE17__parse_assertionIPKcEET_S7_S7_, symObjAddr: 0x149B8, symBinAddr: 0x100017B2C, symSize: 0x484 }
  - { offsetInCU: 0x34F99, offset: 0x34F99, size: 0x8, addend: 0x0, symName: __ZNSt3__111basic_regexIcNS_12regex_traitsIcEEE12__parse_atomIPKcEET_S7_S7_, symObjAddr: 0x14E3C, symBinAddr: 0x100017FB0, symSize: 0x2DC }
  - { offsetInCU: 0x35022, offset: 0x35022, size: 0x8, addend: 0x0, symName: __ZNSt3__111basic_regexIcNS_12regex_traitsIcEEE23__parse_ERE_dupl_symbolIPKcEET_S7_S7_PNS_16__owns_one_stateIcEEjj, symObjAddr: 0x15118, symBinAddr: 0x10001828C, symSize: 0x63C }
  - { offsetInCU: 0x35104, offset: 0x35104, size: 0x8, addend: 0x0, symName: __ZNSt3__111basic_regexIcNS_12regex_traitsIcEEE15__push_l_anchorEv, symObjAddr: 0x15754, symBinAddr: 0x1000188C8, symSize: 0xBC }
  - { offsetInCU: 0x3512C, offset: 0x3512C, size: 0x8, addend: 0x0, symName: __ZNSt3__111basic_regexIcNS_12regex_traitsIcEEE15__push_r_anchorEv, symObjAddr: 0x15810, symBinAddr: 0x100018984, symSize: 0xBC }
  - { offsetInCU: 0x35154, offset: 0x35154, size: 0x8, addend: 0x0, symName: __ZNSt3__111basic_regexIcNS_12regex_traitsIcEEE20__push_word_boundaryEb, symObjAddr: 0x15900, symBinAddr: 0x100018A74, symSize: 0xC0 }
  - { offsetInCU: 0x3518B, offset: 0x3518B, size: 0x8, addend: 0x0, symName: __ZNSt3__111basic_regexIcNS_12regex_traitsIcEEEC1B8ue170006Ev, symObjAddr: 0x159C0, symBinAddr: 0x100018B34, symSize: 0x2C }
  - { offsetInCU: 0x351B5, offset: 0x351B5, size: 0x8, addend: 0x0, symName: __ZNSt3__111basic_regexIcNS_12regex_traitsIcEEE16__push_lookaheadERKS3_bj, symObjAddr: 0x159EC, symBinAddr: 0x100018B60, symSize: 0xD4 }
  - { offsetInCU: 0x3520A, offset: 0x3520A, size: 0x8, addend: 0x0, symName: __ZNKSt3__111basic_regexIcNS_12regex_traitsIcEEE15__use_multilineB8ue170006Ev, symObjAddr: 0x15B20, symBinAddr: 0x100018C94, symSize: 0x6C }
  - { offsetInCU: 0x35245, offset: 0x35245, size: 0x8, addend: 0x0, symName: __ZNSt3__120__l_anchor_multilineIcEC1B8ue170006EbPNS_6__nodeIcEE, symObjAddr: 0x15B8C, symBinAddr: 0x100018D00, symSize: 0x48 }
  - { offsetInCU: 0x3528D, offset: 0x3528D, size: 0x8, addend: 0x0, symName: __ZNSt3__120__l_anchor_multilineIcEC2B8ue170006EbPNS_6__nodeIcEE, symObjAddr: 0x15BF4, symBinAddr: 0x100018D68, symSize: 0x64 }
  - { offsetInCU: 0x352D5, offset: 0x352D5, size: 0x8, addend: 0x0, symName: __ZNSt3__120__l_anchor_multilineIcED1Ev, symObjAddr: 0x15C58, symBinAddr: 0x100018DCC, symSize: 0x2C }
  - { offsetInCU: 0x35302, offset: 0x35302, size: 0x8, addend: 0x0, symName: __ZNSt3__120__l_anchor_multilineIcED0Ev, symObjAddr: 0x15C84, symBinAddr: 0x100018DF8, symSize: 0x30 }
  - { offsetInCU: 0x3532F, offset: 0x3532F, size: 0x8, addend: 0x0, symName: __ZNKSt3__120__l_anchor_multilineIcE6__execERNS_7__stateIcEE, symObjAddr: 0x15CB4, symBinAddr: 0x100018E28, symSize: 0x114 }
  - { offsetInCU: 0x35366, offset: 0x35366, size: 0x8, addend: 0x0, symName: __ZNSt3__120__l_anchor_multilineIcED2Ev, symObjAddr: 0x15DC8, symBinAddr: 0x100018F3C, symSize: 0x2C }
  - { offsetInCU: 0x353A8, offset: 0x353A8, size: 0x8, addend: 0x0, symName: __ZNSt3__120__r_anchor_multilineIcEC1B8ue170006EbPNS_6__nodeIcEE, symObjAddr: 0x15F0C, symBinAddr: 0x100019080, symSize: 0x48 }
  - { offsetInCU: 0x353F0, offset: 0x353F0, size: 0x8, addend: 0x0, symName: __ZNSt3__120__r_anchor_multilineIcEC2B8ue170006EbPNS_6__nodeIcEE, symObjAddr: 0x15F54, symBinAddr: 0x1000190C8, symSize: 0x64 }
  - { offsetInCU: 0x35438, offset: 0x35438, size: 0x8, addend: 0x0, symName: __ZNSt3__120__r_anchor_multilineIcED1Ev, symObjAddr: 0x15FB8, symBinAddr: 0x10001912C, symSize: 0x2C }
  - { offsetInCU: 0x35465, offset: 0x35465, size: 0x8, addend: 0x0, symName: __ZNSt3__120__r_anchor_multilineIcED0Ev, symObjAddr: 0x15FE4, symBinAddr: 0x100019158, symSize: 0x30 }
  - { offsetInCU: 0x35492, offset: 0x35492, size: 0x8, addend: 0x0, symName: __ZNKSt3__120__r_anchor_multilineIcE6__execERNS_7__stateIcEE, symObjAddr: 0x16014, symBinAddr: 0x100019188, symSize: 0xEC }
  - { offsetInCU: 0x354C9, offset: 0x354C9, size: 0x8, addend: 0x0, symName: __ZNSt3__120__r_anchor_multilineIcED2Ev, symObjAddr: 0x16100, symBinAddr: 0x100019274, symSize: 0x2C }
  - { offsetInCU: 0x3550B, offset: 0x3550B, size: 0x8, addend: 0x0, symName: __ZNSt3__115__word_boundaryIcNS_12regex_traitsIcEEEC1B8ue170006ERKS2_bPNS_6__nodeIcEE, symObjAddr: 0x1612C, symBinAddr: 0x1000192A0, symSize: 0x50 }
  - { offsetInCU: 0x35562, offset: 0x35562, size: 0x8, addend: 0x0, symName: __ZNSt3__115__word_boundaryIcNS_12regex_traitsIcEEEC2B8ue170006ERKS2_bPNS_6__nodeIcEE, symObjAddr: 0x1617C, symBinAddr: 0x1000192F0, symSize: 0x78 }
  - { offsetInCU: 0x355B9, offset: 0x355B9, size: 0x8, addend: 0x0, symName: __ZNSt3__112regex_traitsIcEC1ERKS1_, symObjAddr: 0x161F4, symBinAddr: 0x100019368, symSize: 0x34 }
  - { offsetInCU: 0x355EF, offset: 0x355EF, size: 0x8, addend: 0x0, symName: __ZNSt3__115__word_boundaryIcNS_12regex_traitsIcEEED1Ev, symObjAddr: 0x16228, symBinAddr: 0x10001939C, symSize: 0x2C }
  - { offsetInCU: 0x3561C, offset: 0x3561C, size: 0x8, addend: 0x0, symName: __ZNSt3__115__word_boundaryIcNS_12regex_traitsIcEEED0Ev, symObjAddr: 0x16254, symBinAddr: 0x1000193C8, symSize: 0x30 }
  - { offsetInCU: 0x35649, offset: 0x35649, size: 0x8, addend: 0x0, symName: __ZNKSt3__115__word_boundaryIcNS_12regex_traitsIcEEE6__execERNS_7__stateIcEE, symObjAddr: 0x16284, symBinAddr: 0x1000193F8, symSize: 0x2E4 }
  - { offsetInCU: 0x35713, offset: 0x35713, size: 0x8, addend: 0x0, symName: __ZNSt3__112regex_traitsIcEC2ERKS1_, symObjAddr: 0x16568, symBinAddr: 0x1000196DC, symSize: 0x40 }
  - { offsetInCU: 0x35749, offset: 0x35749, size: 0x8, addend: 0x0, symName: __ZNSt3__115__word_boundaryIcNS_12regex_traitsIcEEED2Ev, symObjAddr: 0x165A8, symBinAddr: 0x10001971C, symSize: 0x48 }
  - { offsetInCU: 0x35776, offset: 0x35776, size: 0x8, addend: 0x0, symName: __ZNKSt3__112regex_traitsIcE7isctypeEcj, symObjAddr: 0x165F0, symBinAddr: 0x100019764, symSize: 0xA0 }
  - { offsetInCU: 0x357BC, offset: 0x357BC, size: 0x8, addend: 0x0, symName: __ZNKSt3__15ctypeIcE2isB8ue170006Ejc, symObjAddr: 0x16690, symBinAddr: 0x100019804, symSize: 0x7C }
  - { offsetInCU: 0x357FF, offset: 0x357FF, size: 0x8, addend: 0x0, symName: __Z7isasciii, symObjAddr: 0x1670C, symBinAddr: 0x100019880, symSize: 0x24 }
  - { offsetInCU: 0x3582C, offset: 0x3582C, size: 0x8, addend: 0x0, symName: __ZNSt3__111basic_regexIcNS_12regex_traitsIcEEEC2B8ue170006Ev, symObjAddr: 0x16730, symBinAddr: 0x1000198A4, symSize: 0x4C }
  - { offsetInCU: 0x35877, offset: 0x35877, size: 0x8, addend: 0x0, symName: __ZNSt3__111__lookaheadIcNS_12regex_traitsIcEEEC1B8ue170006ERKNS_11basic_regexIcS2_EEbPNS_6__nodeIcEEj, symObjAddr: 0x1677C, symBinAddr: 0x1000198F0, symSize: 0x58 }
  - { offsetInCU: 0x358DD, offset: 0x358DD, size: 0x8, addend: 0x0, symName: __ZNSt3__111__lookaheadIcNS_12regex_traitsIcEEEC2B8ue170006ERKNS_11basic_regexIcS2_EEbPNS_6__nodeIcEEj, symObjAddr: 0x167D4, symBinAddr: 0x100019948, symSize: 0x84 }
  - { offsetInCU: 0x35943, offset: 0x35943, size: 0x8, addend: 0x0, symName: __ZNSt3__111basic_regexIcNS_12regex_traitsIcEEEC1ERKS3_, symObjAddr: 0x16858, symBinAddr: 0x1000199CC, symSize: 0x34 }
  - { offsetInCU: 0x35979, offset: 0x35979, size: 0x8, addend: 0x0, symName: __ZNSt3__111__lookaheadIcNS_12regex_traitsIcEEED1Ev, symObjAddr: 0x1688C, symBinAddr: 0x100019A00, symSize: 0x2C }
  - { offsetInCU: 0x359A6, offset: 0x359A6, size: 0x8, addend: 0x0, symName: __ZNSt3__111__lookaheadIcNS_12regex_traitsIcEEED0Ev, symObjAddr: 0x168B8, symBinAddr: 0x100019A2C, symSize: 0x30 }
  - { offsetInCU: 0x359D3, offset: 0x359D3, size: 0x8, addend: 0x0, symName: __ZNKSt3__111__lookaheadIcNS_12regex_traitsIcEEE6__execERNS_7__stateIcEE, symObjAddr: 0x168E8, symBinAddr: 0x100019A5C, symSize: 0x274 }
  - { offsetInCU: 0x35A48, offset: 0x35A48, size: 0x8, addend: 0x0, symName: __ZNSt3__111basic_regexIcNS_12regex_traitsIcEEEC2ERKS3_, symObjAddr: 0x16B5C, symBinAddr: 0x100019CD0, symSize: 0x60 }
  - { offsetInCU: 0x35A7E, offset: 0x35A7E, size: 0x8, addend: 0x0, symName: __ZNSt3__110shared_ptrINS_13__empty_stateIcEEEC1B8ue170006ERKS3_, symObjAddr: 0x16BBC, symBinAddr: 0x100019D30, symSize: 0x34 }
  - { offsetInCU: 0x35AB7, offset: 0x35AB7, size: 0x8, addend: 0x0, symName: __ZNSt3__110shared_ptrINS_13__empty_stateIcEEEC2B8ue170006ERKS3_, symObjAddr: 0x16BF0, symBinAddr: 0x100019D64, symSize: 0x70 }
  - { offsetInCU: 0x35AF0, offset: 0x35AF0, size: 0x8, addend: 0x0, symName: __ZNSt3__119__shared_weak_count12__add_sharedB8ue170006Ev, symObjAddr: 0x16C60, symBinAddr: 0x100019DD4, symSize: 0x24 }
  - { offsetInCU: 0x35B16, offset: 0x35B16, size: 0x8, addend: 0x0, symName: __ZNSt3__114__shared_count12__add_sharedB8ue170006Ev, symObjAddr: 0x16C84, symBinAddr: 0x100019DF8, symSize: 0x28 }
  - { offsetInCU: 0x35B3C, offset: 0x35B3C, size: 0x8, addend: 0x0, symName: __ZNSt3__111__lookaheadIcNS_12regex_traitsIcEEED2Ev, symObjAddr: 0x16CDC, symBinAddr: 0x100019E50, symSize: 0x48 }
  - { offsetInCU: 0x35B9E, offset: 0x35B9E, size: 0x8, addend: 0x0, symName: __ZNSt3__113match_resultsIPKcNS_9allocatorINS_9sub_matchIS2_EEEEEC1Ev, symObjAddr: 0x16D24, symBinAddr: 0x100019E98, symSize: 0x40 }
  - { offsetInCU: 0x35BC8, offset: 0x35BC8, size: 0x8, addend: 0x0, symName: __ZNSt3__113match_resultsIPKcNS_9allocatorINS_9sub_matchIS2_EEEEE6__initEjS2_S2_b, symObjAddr: 0x16D64, symBinAddr: 0x100019ED8, symSize: 0xB0 }
  - { offsetInCU: 0x35C2C, offset: 0x35C2C, size: 0x8, addend: 0x0, symName: __ZNKSt3__111basic_regexIcNS_12regex_traitsIcEEE10mark_countB8ue170006Ev, symObjAddr: 0x16E14, symBinAddr: 0x100019F88, symSize: 0x18 }
  - { offsetInCU: 0x35C58, offset: 0x35C58, size: 0x8, addend: 0x0, symName: __ZNKSt3__111basic_regexIcNS_12regex_traitsIcEEE21__match_at_start_ecmaINS_9allocatorINS_9sub_matchIPKcEEEEEEbS8_S8_RNS_13match_resultsIS8_T_EENS_15regex_constants15match_flag_typeEb, symObjAddr: 0x16E2C, symBinAddr: 0x100019FA0, symSize: 0x590 }
  - { offsetInCU: 0x35D7C, offset: 0x35D7C, size: 0x8, addend: 0x0, symName: __ZNKSt3__113match_resultsIPKcNS_9allocatorINS_9sub_matchIS2_EEEEE4sizeB8ue170006Ev, symObjAddr: 0x17420, symBinAddr: 0x10001A594, symSize: 0x24 }
  - { offsetInCU: 0x35DA2, offset: 0x35DA2, size: 0x8, addend: 0x0, symName: __ZNSt3__16vectorINS_9sub_matchIPKcEENS_9allocatorIS4_EEEixB8ue170006Em, symObjAddr: 0x17444, symBinAddr: 0x10001A5B8, symSize: 0x2C }
  - { offsetInCU: 0x35DD9, offset: 0x35DD9, size: 0x8, addend: 0x0, symName: __ZNSt3__19sub_matchIPKcEaSERKS3_, symObjAddr: 0x17470, symBinAddr: 0x10001A5E4, symSize: 0x44 }
  - { offsetInCU: 0x35E10, offset: 0x35E10, size: 0x8, addend: 0x0, symName: __ZNSt3__113match_resultsIPKcNS_9allocatorINS_9sub_matchIS2_EEEEED1Ev, symObjAddr: 0x174B4, symBinAddr: 0x10001A628, symSize: 0x2C }
  - { offsetInCU: 0x35E3D, offset: 0x35E3D, size: 0x8, addend: 0x0, symName: __ZNSt3__19allocatorINS_9sub_matchIPKcEEEC1B8ue170006Ev, symObjAddr: 0x174E0, symBinAddr: 0x10001A654, symSize: 0x2C }
  - { offsetInCU: 0x35E67, offset: 0x35E67, size: 0x8, addend: 0x0, symName: __ZNSt3__113match_resultsIPKcNS_9allocatorINS_9sub_matchIS2_EEEEEC1ERKS6_, symObjAddr: 0x1750C, symBinAddr: 0x10001A680, symSize: 0x34 }
  - { offsetInCU: 0x35EA2, offset: 0x35EA2, size: 0x8, addend: 0x0, symName: __ZNSt3__19allocatorINS_9sub_matchIPKcEEEC2B8ue170006Ev, symObjAddr: 0x17540, symBinAddr: 0x10001A6B4, symSize: 0x2C }
  - { offsetInCU: 0x35ECC, offset: 0x35ECC, size: 0x8, addend: 0x0, symName: __ZNSt3__116__non_trivial_ifILb1ENS_9allocatorINS_9sub_matchIPKcEEEEEC2B8ue170006Ev, symObjAddr: 0x1756C, symBinAddr: 0x10001A6E0, symSize: 0x14 }
  - { offsetInCU: 0x35EF6, offset: 0x35EF6, size: 0x8, addend: 0x0, symName: __ZNSt3__113match_resultsIPKcNS_9allocatorINS_9sub_matchIS2_EEEEEC2ERKS6_, symObjAddr: 0x17580, symBinAddr: 0x10001A6F4, symSize: 0x90 }
  - { offsetInCU: 0x35F31, offset: 0x35F31, size: 0x8, addend: 0x0, symName: __ZNSt3__16vectorINS_9sub_matchIPKcEENS_9allocatorIS4_EEEC1B8ue170006ERKS6_, symObjAddr: 0x17610, symBinAddr: 0x10001A784, symSize: 0x34 }
  - { offsetInCU: 0x35F6A, offset: 0x35F6A, size: 0x8, addend: 0x0, symName: __ZNSt3__19sub_matchIPKcEC1B8ue170006Ev, symObjAddr: 0x17644, symBinAddr: 0x10001A7B8, symSize: 0x2C }
  - { offsetInCU: 0x35F94, offset: 0x35F94, size: 0x8, addend: 0x0, symName: __ZNSt3__16vectorINS_9sub_matchIPKcEENS_9allocatorIS4_EEED1B8ue170006Ev, symObjAddr: 0x17670, symBinAddr: 0x10001A7E4, symSize: 0x2C }
  - { offsetInCU: 0x35FBE, offset: 0x35FBE, size: 0x8, addend: 0x0, symName: __ZNSt3__16vectorINS_9sub_matchIPKcEENS_9allocatorIS4_EEEC2B8ue170006ERKS6_, symObjAddr: 0x1769C, symBinAddr: 0x10001A810, symSize: 0x50 }
  - { offsetInCU: 0x35FF7, offset: 0x35FF7, size: 0x8, addend: 0x0, symName: __ZNSt3__117__compressed_pairIPNS_9sub_matchIPKcEENS_9allocatorIS4_EEEC1B8ue170006IDnRKS7_EEOT_OT0_, symObjAddr: 0x176EC, symBinAddr: 0x10001A860, symSize: 0x3C }
  - { offsetInCU: 0x3604F, offset: 0x3604F, size: 0x8, addend: 0x0, symName: __ZNSt3__117__compressed_pairIPNS_9sub_matchIPKcEENS_9allocatorIS4_EEEC2B8ue170006IDnRKS7_EEOT_OT0_, symObjAddr: 0x17728, symBinAddr: 0x10001A89C, symSize: 0x44 }
  - { offsetInCU: 0x360A7, offset: 0x360A7, size: 0x8, addend: 0x0, symName: __ZNSt3__122__compressed_pair_elemIPNS_9sub_matchIPKcEELi0ELb0EEC2B8ue170006IDnvEEOT_, symObjAddr: 0x1776C, symBinAddr: 0x10001A8E0, symSize: 0x1C }
  - { offsetInCU: 0x360E9, offset: 0x360E9, size: 0x8, addend: 0x0, symName: __ZNSt3__122__compressed_pair_elemINS_9allocatorINS_9sub_matchIPKcEEEELi1ELb1EEC2B8ue170006IRKS6_vEEOT_, symObjAddr: 0x17788, symBinAddr: 0x10001A8FC, symSize: 0x18 }
  - { offsetInCU: 0x3612B, offset: 0x3612B, size: 0x8, addend: 0x0, symName: __ZNSt3__19sub_matchIPKcEC2B8ue170006Ev, symObjAddr: 0x177A0, symBinAddr: 0x10001A914, symSize: 0x30 }
  - { offsetInCU: 0x36155, offset: 0x36155, size: 0x8, addend: 0x0, symName: __ZNSt3__14pairIPKcS2_EC2B8ue170006ILb1ELPv0EEEv, symObjAddr: 0x177D0, symBinAddr: 0x10001A944, symSize: 0x1C }
  - { offsetInCU: 0x3618F, offset: 0x3618F, size: 0x8, addend: 0x0, symName: __ZNSt3__16vectorINS_9sub_matchIPKcEENS_9allocatorIS4_EEED2B8ue170006Ev, symObjAddr: 0x177EC, symBinAddr: 0x10001A960, symSize: 0x44 }
  - { offsetInCU: 0x361B9, offset: 0x361B9, size: 0x8, addend: 0x0, symName: __ZNSt3__16vectorINS_9sub_matchIPKcEENS_9allocatorIS4_EEE16__destroy_vectorC1B8ue170006ERS7_, symObjAddr: 0x17830, symBinAddr: 0x10001A9A4, symSize: 0x34 }
  - { offsetInCU: 0x361F2, offset: 0x361F2, size: 0x8, addend: 0x0, symName: __ZNSt3__16vectorINS_9sub_matchIPKcEENS_9allocatorIS4_EEE16__destroy_vectorclB8ue170006Ev, symObjAddr: 0x17864, symBinAddr: 0x10001A9D8, symSize: 0x90 }
  - { offsetInCU: 0x36218, offset: 0x36218, size: 0x8, addend: 0x0, symName: __ZNSt3__16vectorINS_9sub_matchIPKcEENS_9allocatorIS4_EEE16__destroy_vectorC2B8ue170006ERS7_, symObjAddr: 0x178F4, symBinAddr: 0x10001AA68, symSize: 0x20 }
  - { offsetInCU: 0x36251, offset: 0x36251, size: 0x8, addend: 0x0, symName: __ZNSt3__16vectorINS_9sub_matchIPKcEENS_9allocatorIS4_EEE7__clearB8ue170006Ev, symObjAddr: 0x17914, symBinAddr: 0x10001AA88, symSize: 0x28 }
  - { offsetInCU: 0x36277, offset: 0x36277, size: 0x8, addend: 0x0, symName: __ZNKSt3__16vectorINS_9sub_matchIPKcEENS_9allocatorIS4_EEE17__annotate_deleteB8ue170006Ev, symObjAddr: 0x1793C, symBinAddr: 0x10001AAB0, symSize: 0xD4 }
  - { offsetInCU: 0x3629D, offset: 0x3629D, size: 0x8, addend: 0x0, symName: __ZNSt3__116allocator_traitsINS_9allocatorINS_9sub_matchIPKcEEEEE10deallocateB8ue170006ERS6_PS5_m, symObjAddr: 0x17A10, symBinAddr: 0x10001AB84, symSize: 0x34 }
  - { offsetInCU: 0x362DF, offset: 0x362DF, size: 0x8, addend: 0x0, symName: __ZNSt3__16vectorINS_9sub_matchIPKcEENS_9allocatorIS4_EEE7__allocB8ue170006Ev, symObjAddr: 0x17A44, symBinAddr: 0x10001ABB8, symSize: 0x28 }
  - { offsetInCU: 0x36305, offset: 0x36305, size: 0x8, addend: 0x0, symName: __ZNKSt3__16vectorINS_9sub_matchIPKcEENS_9allocatorIS4_EEE8capacityB8ue170006Ev, symObjAddr: 0x17A6C, symBinAddr: 0x10001ABE0, symSize: 0x40 }
  - { offsetInCU: 0x3632B, offset: 0x3632B, size: 0x8, addend: 0x0, symName: __ZNSt3__16vectorINS_9sub_matchIPKcEENS_9allocatorIS4_EEE22__base_destruct_at_endB8ue170006EPS4_, symObjAddr: 0x17AAC, symBinAddr: 0x10001AC20, symSize: 0x8C }
  - { offsetInCU: 0x3636F, offset: 0x3636F, size: 0x8, addend: 0x0, symName: __ZNSt3__116allocator_traitsINS_9allocatorINS_9sub_matchIPKcEEEEE7destroyB8ue170006IS5_vEEvRS6_PT_, symObjAddr: 0x17B38, symBinAddr: 0x10001ACAC, symSize: 0x2C }
  - { offsetInCU: 0x363AC, offset: 0x363AC, size: 0x8, addend: 0x0, symName: __ZNSt3__19allocatorINS_9sub_matchIPKcEEE7destroyB8ue170006EPS4_, symObjAddr: 0x17B78, symBinAddr: 0x10001ACEC, symSize: 0x14 }
  - { offsetInCU: 0x363E0, offset: 0x363E0, size: 0x8, addend: 0x0, symName: __ZNKSt3__16vectorINS_9sub_matchIPKcEENS_9allocatorIS4_EEE31__annotate_contiguous_containerB8ue170006EPKvS9_S9_S9_, symObjAddr: 0x17B8C, symBinAddr: 0x10001AD00, symSize: 0x20 }
  - { offsetInCU: 0x36432, offset: 0x36432, size: 0x8, addend: 0x0, symName: __ZNKSt3__16vectorINS_9sub_matchIPKcEENS_9allocatorIS4_EEE4dataB8ue170006Ev, symObjAddr: 0x17BAC, symBinAddr: 0x10001AD20, symSize: 0x28 }
  - { offsetInCU: 0x36458, offset: 0x36458, size: 0x8, addend: 0x0, symName: __ZNKSt3__16vectorINS_9sub_matchIPKcEENS_9allocatorIS4_EEE4sizeB8ue170006Ev, symObjAddr: 0x17BD4, symBinAddr: 0x10001AD48, symSize: 0x28 }
  - { offsetInCU: 0x3647E, offset: 0x3647E, size: 0x8, addend: 0x0, symName: __ZNSt3__19allocatorINS_9sub_matchIPKcEEE10deallocateB8ue170006EPS4_m, symObjAddr: 0x17BFC, symBinAddr: 0x10001AD70, symSize: 0x44 }
  - { offsetInCU: 0x364C0, offset: 0x364C0, size: 0x8, addend: 0x0, symName: __ZNSt3__117__compressed_pairIPNS_9sub_matchIPKcEENS_9allocatorIS4_EEE6secondB8ue170006Ev, symObjAddr: 0x17C40, symBinAddr: 0x10001ADB4, symSize: 0x24 }
  - { offsetInCU: 0x364E6, offset: 0x364E6, size: 0x8, addend: 0x0, symName: __ZNSt3__122__compressed_pair_elemINS_9allocatorINS_9sub_matchIPKcEEEELi1ELb1EE5__getB8ue170006Ev, symObjAddr: 0x17C64, symBinAddr: 0x10001ADD8, symSize: 0x14 }
  - { offsetInCU: 0x3650C, offset: 0x3650C, size: 0x8, addend: 0x0, symName: __ZNKSt3__16vectorINS_9sub_matchIPKcEENS_9allocatorIS4_EEE9__end_capB8ue170006Ev, symObjAddr: 0x17C78, symBinAddr: 0x10001ADEC, symSize: 0x28 }
  - { offsetInCU: 0x36532, offset: 0x36532, size: 0x8, addend: 0x0, symName: __ZNKSt3__117__compressed_pairIPNS_9sub_matchIPKcEENS_9allocatorIS4_EEE5firstB8ue170006Ev, symObjAddr: 0x17CA0, symBinAddr: 0x10001AE14, symSize: 0x24 }
  - { offsetInCU: 0x36558, offset: 0x36558, size: 0x8, addend: 0x0, symName: __ZNKSt3__122__compressed_pair_elemIPNS_9sub_matchIPKcEELi0ELb0EE5__getB8ue170006Ev, symObjAddr: 0x17CC4, symBinAddr: 0x10001AE38, symSize: 0x14 }
  - { offsetInCU: 0x3657E, offset: 0x3657E, size: 0x8, addend: 0x0, symName: __ZNSt3__16vectorINS_9sub_matchIPKcEENS_9allocatorIS4_EEE6assignEmRKS4_, symObjAddr: 0x17CD8, symBinAddr: 0x10001AE4C, symSize: 0x110 }
  - { offsetInCU: 0x365E1, offset: 0x365E1, size: 0x8, addend: 0x0, symName: __ZNSt3__16vectorINS_9sub_matchIPKcEENS_9allocatorIS4_EEE18__construct_at_endEmRKS4_, symObjAddr: 0x17E2C, symBinAddr: 0x10001AFA0, symSize: 0xD0 }
  - { offsetInCU: 0x36662, offset: 0x36662, size: 0x8, addend: 0x0, symName: __ZNSt3__16vectorINS_9sub_matchIPKcEENS_9allocatorIS4_EEE17__destruct_at_endB8ue170006EPS4_, symObjAddr: 0x17EFC, symBinAddr: 0x10001B070, symSize: 0x4C }
  - { offsetInCU: 0x366A6, offset: 0x366A6, size: 0x8, addend: 0x0, symName: __ZNSt3__16vectorINS_9sub_matchIPKcEENS_9allocatorIS4_EEE13__vdeallocateEv, symObjAddr: 0x17F48, symBinAddr: 0x10001B0BC, symSize: 0x94 }
  - { offsetInCU: 0x366CE, offset: 0x366CE, size: 0x8, addend: 0x0, symName: __ZNSt3__16vectorINS_9sub_matchIPKcEENS_9allocatorIS4_EEE11__vallocateB8ue170006Em, symObjAddr: 0x17FDC, symBinAddr: 0x10001B150, symSize: 0xB4 }
  - { offsetInCU: 0x36712, offset: 0x36712, size: 0x8, addend: 0x0, symName: __ZNKSt3__16vectorINS_9sub_matchIPKcEENS_9allocatorIS4_EEE11__recommendB8ue170006Em, symObjAddr: 0x18090, symBinAddr: 0x10001B204, symSize: 0xB4 }
  - { offsetInCU: 0x36782, offset: 0x36782, size: 0x8, addend: 0x0, symName: __ZNSt3__16vectorINS_9sub_matchIPKcEENS_9allocatorIS4_EEE21_ConstructTransactionC1B8ue170006ERS7_m, symObjAddr: 0x181B0, symBinAddr: 0x10001B324, symSize: 0x3C }
  - { offsetInCU: 0x367CA, offset: 0x367CA, size: 0x8, addend: 0x0, symName: __ZNSt3__116allocator_traitsINS_9allocatorINS_9sub_matchIPKcEEEEE9constructB8ue170006IS5_JRKS5_EvEEvRS6_PT_DpOT0_, symObjAddr: 0x181EC, symBinAddr: 0x10001B360, symSize: 0x34 }
  - { offsetInCU: 0x36821, offset: 0x36821, size: 0x8, addend: 0x0, symName: __ZNSt3__16vectorINS_9sub_matchIPKcEENS_9allocatorIS4_EEE21_ConstructTransactionD1B8ue170006Ev, symObjAddr: 0x18220, symBinAddr: 0x10001B394, symSize: 0x2C }
  - { offsetInCU: 0x3684B, offset: 0x3684B, size: 0x8, addend: 0x0, symName: __ZNSt3__16vectorINS_9sub_matchIPKcEENS_9allocatorIS4_EEE21_ConstructTransactionC2B8ue170006ERS7_m, symObjAddr: 0x1824C, symBinAddr: 0x10001B3C0, symSize: 0x4C }
  - { offsetInCU: 0x36893, offset: 0x36893, size: 0x8, addend: 0x0, symName: __ZNSt3__19allocatorINS_9sub_matchIPKcEEE9constructB8ue170006IS4_JRKS4_EEEvPT_DpOT0_, symObjAddr: 0x18298, symBinAddr: 0x10001B40C, symSize: 0x30 }
  - { offsetInCU: 0x368E9, offset: 0x368E9, size: 0x8, addend: 0x0, symName: __ZNSt3__16vectorINS_9sub_matchIPKcEENS_9allocatorIS4_EEE21_ConstructTransactionD2B8ue170006Ev, symObjAddr: 0x182C8, symBinAddr: 0x10001B43C, symSize: 0x20 }
  - { offsetInCU: 0x36913, offset: 0x36913, size: 0x8, addend: 0x0, symName: __ZNKSt3__16vectorINS_9sub_matchIPKcEENS_9allocatorIS4_EEE17__annotate_shrinkB8ue170006Em, symObjAddr: 0x182E8, symBinAddr: 0x10001B45C, symSize: 0xD0 }
  - { offsetInCU: 0x36948, offset: 0x36948, size: 0x8, addend: 0x0, symName: __ZNSt3__16vectorINS_9sub_matchIPKcEENS_9allocatorIS4_EEE5clearB8ue170006Ev, symObjAddr: 0x183B8, symBinAddr: 0x10001B52C, symSize: 0x44 }
  - { offsetInCU: 0x3697D, offset: 0x3697D, size: 0x8, addend: 0x0, symName: __ZNSt3__16vectorINS_9sub_matchIPKcEENS_9allocatorIS4_EEE9__end_capB8ue170006Ev, symObjAddr: 0x183FC, symBinAddr: 0x10001B570, symSize: 0x28 }
  - { offsetInCU: 0x369A3, offset: 0x369A3, size: 0x8, addend: 0x0, symName: __ZNSt3__117__compressed_pairIPNS_9sub_matchIPKcEENS_9allocatorIS4_EEE5firstB8ue170006Ev, symObjAddr: 0x18424, symBinAddr: 0x10001B598, symSize: 0x24 }
  - { offsetInCU: 0x369C9, offset: 0x369C9, size: 0x8, addend: 0x0, symName: __ZNSt3__122__compressed_pair_elemIPNS_9sub_matchIPKcEELi0ELb0EE5__getB8ue170006Ev, symObjAddr: 0x18448, symBinAddr: 0x10001B5BC, symSize: 0x14 }
  - { offsetInCU: 0x369EF, offset: 0x369EF, size: 0x8, addend: 0x0, symName: __ZNKSt3__16vectorINS_9sub_matchIPKcEENS_9allocatorIS4_EEE8max_sizeEv, symObjAddr: 0x1845C, symBinAddr: 0x10001B5D0, symSize: 0x60 }
  - { offsetInCU: 0x36A17, offset: 0x36A17, size: 0x8, addend: 0x0, symName: __ZNKSt3__16vectorINS_9sub_matchIPKcEENS_9allocatorIS4_EEE20__throw_length_errorB8ue170006Ev, symObjAddr: 0x184BC, symBinAddr: 0x10001B630, symSize: 0x1C }
  - { offsetInCU: 0x36A3D, offset: 0x36A3D, size: 0x8, addend: 0x0, symName: __ZNKSt3__16vectorINS_9sub_matchIPKcEENS_9allocatorIS4_EEE14__annotate_newB8ue170006Em, symObjAddr: 0x18518, symBinAddr: 0x10001B68C, symSize: 0xC8 }
  - { offsetInCU: 0x36A7D, offset: 0x36A7D, size: 0x8, addend: 0x0, symName: __ZNSt3__116allocator_traitsINS_9allocatorINS_9sub_matchIPKcEEEEE8max_sizeB8ue170006IS6_vEEmRKS6_, symObjAddr: 0x185E0, symBinAddr: 0x10001B754, symSize: 0x24 }
  - { offsetInCU: 0x36AAB, offset: 0x36AAB, size: 0x8, addend: 0x0, symName: __ZNKSt3__16vectorINS_9sub_matchIPKcEENS_9allocatorIS4_EEE7__allocB8ue170006Ev, symObjAddr: 0x18604, symBinAddr: 0x10001B778, symSize: 0x28 }
  - { offsetInCU: 0x36AD1, offset: 0x36AD1, size: 0x8, addend: 0x0, symName: __ZNKSt3__19allocatorINS_9sub_matchIPKcEEE8max_sizeB8ue170006Ev, symObjAddr: 0x1862C, symBinAddr: 0x10001B7A0, symSize: 0x18 }
  - { offsetInCU: 0x36AF7, offset: 0x36AF7, size: 0x8, addend: 0x0, symName: __ZNKSt3__117__compressed_pairIPNS_9sub_matchIPKcEENS_9allocatorIS4_EEE6secondB8ue170006Ev, symObjAddr: 0x18644, symBinAddr: 0x10001B7B8, symSize: 0x24 }
  - { offsetInCU: 0x36B1D, offset: 0x36B1D, size: 0x8, addend: 0x0, symName: __ZNKSt3__122__compressed_pair_elemINS_9allocatorINS_9sub_matchIPKcEEEELi1ELb1EE5__getB8ue170006Ev, symObjAddr: 0x18668, symBinAddr: 0x10001B7DC, symSize: 0x14 }
  - { offsetInCU: 0x36B43, offset: 0x36B43, size: 0x8, addend: 0x0, symName: __ZNSt3__19allocatorINS_9sub_matchIPKcEEE8allocateB8ue170006Em, symObjAddr: 0x1867C, symBinAddr: 0x10001B7F0, symSize: 0x5C }
  - { offsetInCU: 0x36B77, offset: 0x36B77, size: 0x8, addend: 0x0, symName: __ZNSt3__16vectorINS_7__stateIcEENS_9allocatorIS2_EEEC1B8ue170006Ev, symObjAddr: 0x186D8, symBinAddr: 0x10001B84C, symSize: 0x2C }
  - { offsetInCU: 0x36BA1, offset: 0x36BA1, size: 0x8, addend: 0x0, symName: __ZNSt3__16vectorINS_7__stateIcEENS_9allocatorIS2_EEE9push_backB8ue170006EOS2_, symObjAddr: 0x18704, symBinAddr: 0x10001B878, symSize: 0x6C }
  - { offsetInCU: 0x36BD8, offset: 0x36BD8, size: 0x8, addend: 0x0, symName: __ZNSt3__17__stateIcEC1B8ue170006Ev, symObjAddr: 0x18770, symBinAddr: 0x10001B8E4, symSize: 0x2C }
  - { offsetInCU: 0x36C02, offset: 0x36C02, size: 0x8, addend: 0x0, symName: __ZNSt3__17__stateIcED1Ev, symObjAddr: 0x1879C, symBinAddr: 0x10001B910, symSize: 0x2C }
  - { offsetInCU: 0x36C2F, offset: 0x36C2F, size: 0x8, addend: 0x0, symName: __ZNSt3__16vectorINS_7__stateIcEENS_9allocatorIS2_EEE4backB8ue170006Ev, symObjAddr: 0x187C8, symBinAddr: 0x10001B93C, symSize: 0x1C }
  - { offsetInCU: 0x36C55, offset: 0x36C55, size: 0x8, addend: 0x0, symName: __ZNSt3__16vectorINS_9sub_matchIPKcEENS_9allocatorIS4_EEE6resizeEmRKS4_, symObjAddr: 0x187E4, symBinAddr: 0x10001B958, symSize: 0xA4 }
  - { offsetInCU: 0x36CAA, offset: 0x36CAA, size: 0x8, addend: 0x0, symName: __ZNSt3__16vectorINS_4pairImPKcEENS_9allocatorIS4_EEE6resizeEm, symObjAddr: 0x18888, symBinAddr: 0x10001B9FC, symSize: 0x94 }
  - { offsetInCU: 0x36CF0, offset: 0x36CF0, size: 0x8, addend: 0x0, symName: __ZNKSt3__111basic_regexIcNS_12regex_traitsIcEEE12__loop_countB8ue170006Ev, symObjAddr: 0x1891C, symBinAddr: 0x10001BA90, symSize: 0x18 }
  - { offsetInCU: 0x36D16, offset: 0x36D16, size: 0x8, addend: 0x0, symName: __ZNSt3__16vectorINS_7__stateIcEENS_9allocatorIS2_EEE8pop_backEv, symObjAddr: 0x18994, symBinAddr: 0x10001BB08, symSize: 0x2C }
  - { offsetInCU: 0x36D3E, offset: 0x36D3E, size: 0x8, addend: 0x0, symName: __ZNSt3__17__stateIcEC1ERKS1_, symObjAddr: 0x189C0, symBinAddr: 0x10001BB34, symSize: 0x34 }
  - { offsetInCU: 0x36D74, offset: 0x36D74, size: 0x8, addend: 0x0, symName: __ZNKSt3__16vectorINS_7__stateIcEENS_9allocatorIS2_EEE5emptyB8ue170006Ev, symObjAddr: 0x18A54, symBinAddr: 0x10001BBC8, symSize: 0x28 }
  - { offsetInCU: 0x36D9A, offset: 0x36D9A, size: 0x8, addend: 0x0, symName: __ZNSt3__16vectorINS_7__stateIcEENS_9allocatorIS2_EEED1B8ue170006Ev, symObjAddr: 0x18A7C, symBinAddr: 0x10001BBF0, symSize: 0x2C }
  - { offsetInCU: 0x36DC4, offset: 0x36DC4, size: 0x8, addend: 0x0, symName: __ZNSt3__16vectorINS_7__stateIcEENS_9allocatorIS2_EEEC2B8ue170006Ev, symObjAddr: 0x18AA8, symBinAddr: 0x10001BC1C, symSize: 0x4C }
  - { offsetInCU: 0x36DEE, offset: 0x36DEE, size: 0x8, addend: 0x0, symName: __ZNSt3__117__compressed_pairIPNS_7__stateIcEENS_9allocatorIS2_EEEC1B8ue170006IDnNS_18__default_init_tagEEEOT_OT0_, symObjAddr: 0x18AF4, symBinAddr: 0x10001BC68, symSize: 0x3C }
  - { offsetInCU: 0x36E46, offset: 0x36E46, size: 0x8, addend: 0x0, symName: __ZNSt3__117__compressed_pairIPNS_7__stateIcEENS_9allocatorIS2_EEEC2B8ue170006IDnNS_18__default_init_tagEEEOT_OT0_, symObjAddr: 0x18B30, symBinAddr: 0x10001BCA4, symSize: 0x40 }
  - { offsetInCU: 0x36E9E, offset: 0x36E9E, size: 0x8, addend: 0x0, symName: __ZNSt3__122__compressed_pair_elemIPNS_7__stateIcEELi0ELb0EEC2B8ue170006IDnvEEOT_, symObjAddr: 0x18B70, symBinAddr: 0x10001BCE4, symSize: 0x1C }
  - { offsetInCU: 0x36EE0, offset: 0x36EE0, size: 0x8, addend: 0x0, symName: __ZNSt3__122__compressed_pair_elemINS_9allocatorINS_7__stateIcEEEELi1ELb1EEC2B8ue170006ENS_18__default_init_tagE, symObjAddr: 0x18B8C, symBinAddr: 0x10001BD00, symSize: 0x2C }
  - { offsetInCU: 0x36F14, offset: 0x36F14, size: 0x8, addend: 0x0, symName: __ZNSt3__19allocatorINS_7__stateIcEEEC2B8ue170006Ev, symObjAddr: 0x18BB8, symBinAddr: 0x10001BD2C, symSize: 0x2C }
  - { offsetInCU: 0x36F3E, offset: 0x36F3E, size: 0x8, addend: 0x0, symName: __ZNSt3__116__non_trivial_ifILb1ENS_9allocatorINS_7__stateIcEEEEEC2B8ue170006Ev, symObjAddr: 0x18BE4, symBinAddr: 0x10001BD58, symSize: 0x14 }
  - { offsetInCU: 0x36F68, offset: 0x36F68, size: 0x8, addend: 0x0, symName: __ZNSt3__16vectorINS_7__stateIcEENS_9allocatorIS2_EEE9__end_capB8ue170006Ev, symObjAddr: 0x18BF8, symBinAddr: 0x10001BD6C, symSize: 0x28 }
  - { offsetInCU: 0x36F94, offset: 0x36F94, size: 0x8, addend: 0x0, symName: __ZNSt3__16vectorINS_7__stateIcEENS_9allocatorIS2_EEE22__construct_one_at_endB8ue170006IJS2_EEEvDpOT_, symObjAddr: 0x18C20, symBinAddr: 0x10001BD94, symSize: 0x90 }
  - { offsetInCU: 0x36FE3, offset: 0x36FE3, size: 0x8, addend: 0x0, symName: __ZNSt3__16vectorINS_7__stateIcEENS_9allocatorIS2_EEE21__push_back_slow_pathIS2_EEvOT_, symObjAddr: 0x18CB0, symBinAddr: 0x10001BE24, symSize: 0xD8 }
  - { offsetInCU: 0x37041, offset: 0x37041, size: 0x8, addend: 0x0, symName: __ZNSt3__117__compressed_pairIPNS_7__stateIcEENS_9allocatorIS2_EEE5firstB8ue170006Ev, symObjAddr: 0x18D88, symBinAddr: 0x10001BEFC, symSize: 0x24 }
  - { offsetInCU: 0x37067, offset: 0x37067, size: 0x8, addend: 0x0, symName: __ZNSt3__122__compressed_pair_elemIPNS_7__stateIcEELi0ELb0EE5__getB8ue170006Ev, symObjAddr: 0x18DAC, symBinAddr: 0x10001BF20, symSize: 0x14 }
  - { offsetInCU: 0x370A8, offset: 0x370A8, size: 0x8, addend: 0x0, symName: __ZNSt3__16vectorINS_7__stateIcEENS_9allocatorIS2_EEE21_ConstructTransactionC1B8ue170006ERS5_m, symObjAddr: 0x18DC0, symBinAddr: 0x10001BF34, symSize: 0x3C }
  - { offsetInCU: 0x370F0, offset: 0x370F0, size: 0x8, addend: 0x0, symName: __ZNSt3__116allocator_traitsINS_9allocatorINS_7__stateIcEEEEE9constructB8ue170006IS3_JS3_EvEEvRS4_PT_DpOT0_, symObjAddr: 0x18DFC, symBinAddr: 0x10001BF70, symSize: 0x34 }
  - { offsetInCU: 0x37147, offset: 0x37147, size: 0x8, addend: 0x0, symName: __ZNSt3__16vectorINS_7__stateIcEENS_9allocatorIS2_EEE7__allocB8ue170006Ev, symObjAddr: 0x18E30, symBinAddr: 0x10001BFA4, symSize: 0x28 }
  - { offsetInCU: 0x3716D, offset: 0x3716D, size: 0x8, addend: 0x0, symName: __ZNSt3__16vectorINS_7__stateIcEENS_9allocatorIS2_EEE21_ConstructTransactionD1B8ue170006Ev, symObjAddr: 0x18E6C, symBinAddr: 0x10001BFE0, symSize: 0x2C }
  - { offsetInCU: 0x37197, offset: 0x37197, size: 0x8, addend: 0x0, symName: __ZNSt3__16vectorINS_7__stateIcEENS_9allocatorIS2_EEE21_ConstructTransactionC2B8ue170006ERS5_m, symObjAddr: 0x18E98, symBinAddr: 0x10001C00C, symSize: 0x4C }
  - { offsetInCU: 0x371DF, offset: 0x371DF, size: 0x8, addend: 0x0, symName: __ZNSt3__19allocatorINS_7__stateIcEEE9constructB8ue170006IS2_JS2_EEEvPT_DpOT0_, symObjAddr: 0x18EE4, symBinAddr: 0x10001C058, symSize: 0x30 }
  - { offsetInCU: 0x37235, offset: 0x37235, size: 0x8, addend: 0x0, symName: __ZNSt3__17__stateIcEC1EOS1_, symObjAddr: 0x18F14, symBinAddr: 0x10001C088, symSize: 0x34 }
  - { offsetInCU: 0x3726B, offset: 0x3726B, size: 0x8, addend: 0x0, symName: __ZNSt3__17__stateIcEC2EOS1_, symObjAddr: 0x18F48, symBinAddr: 0x10001C0BC, symSize: 0x78 }
  - { offsetInCU: 0x372A1, offset: 0x372A1, size: 0x8, addend: 0x0, symName: __ZNSt3__16vectorINS_9sub_matchIPKcEENS_9allocatorIS4_EEEC1B8ue170006EOS7_, symObjAddr: 0x18FC0, symBinAddr: 0x10001C134, symSize: 0x34 }
  - { offsetInCU: 0x372DC, offset: 0x372DC, size: 0x8, addend: 0x0, symName: __ZNSt3__16vectorINS_4pairImPKcEENS_9allocatorIS4_EEEC1B8ue170006EOS7_, symObjAddr: 0x18FF4, symBinAddr: 0x10001C168, symSize: 0x34 }
  - { offsetInCU: 0x37317, offset: 0x37317, size: 0x8, addend: 0x0, symName: __ZNSt3__16vectorINS_9sub_matchIPKcEENS_9allocatorIS4_EEEC2B8ue170006EOS7_, symObjAddr: 0x19028, symBinAddr: 0x10001C19C, symSize: 0xC4 }
  - { offsetInCU: 0x37358, offset: 0x37358, size: 0x8, addend: 0x0, symName: __ZNSt3__117__compressed_pairIPNS_9sub_matchIPKcEENS_9allocatorIS4_EEEC1B8ue170006IDnS7_EEOT_OT0_, symObjAddr: 0x190EC, symBinAddr: 0x10001C260, symSize: 0x3C }
  - { offsetInCU: 0x373B0, offset: 0x373B0, size: 0x8, addend: 0x0, symName: __ZNSt3__117__compressed_pairIPNS_9sub_matchIPKcEENS_9allocatorIS4_EEEC2B8ue170006IDnS7_EEOT_OT0_, symObjAddr: 0x19128, symBinAddr: 0x10001C29C, symSize: 0x44 }
  - { offsetInCU: 0x37408, offset: 0x37408, size: 0x8, addend: 0x0, symName: __ZNSt3__122__compressed_pair_elemINS_9allocatorINS_9sub_matchIPKcEEEELi1ELb1EEC2B8ue170006IS6_vEEOT_, symObjAddr: 0x1916C, symBinAddr: 0x10001C2E0, symSize: 0x18 }
  - { offsetInCU: 0x3744A, offset: 0x3744A, size: 0x8, addend: 0x0, symName: __ZNSt3__16vectorINS_4pairImPKcEENS_9allocatorIS4_EEEC2B8ue170006EOS7_, symObjAddr: 0x19184, symBinAddr: 0x10001C2F8, symSize: 0xC4 }
  - { offsetInCU: 0x37485, offset: 0x37485, size: 0x8, addend: 0x0, symName: __ZNSt3__16vectorINS_4pairImPKcEENS_9allocatorIS4_EEE7__allocB8ue170006Ev, symObjAddr: 0x19248, symBinAddr: 0x10001C3BC, symSize: 0x28 }
  - { offsetInCU: 0x374B1, offset: 0x374B1, size: 0x8, addend: 0x0, symName: __ZNSt3__117__compressed_pairIPNS_4pairImPKcEENS_9allocatorIS4_EEEC1B8ue170006IDnS7_EEOT_OT0_, symObjAddr: 0x19270, symBinAddr: 0x10001C3E4, symSize: 0x3C }
  - { offsetInCU: 0x37509, offset: 0x37509, size: 0x8, addend: 0x0, symName: __ZNSt3__16vectorINS_4pairImPKcEENS_9allocatorIS4_EEE9__end_capB8ue170006Ev, symObjAddr: 0x192AC, symBinAddr: 0x10001C420, symSize: 0x28 }
  - { offsetInCU: 0x3752F, offset: 0x3752F, size: 0x8, addend: 0x0, symName: __ZNSt3__117__compressed_pairIPNS_4pairImPKcEENS_9allocatorIS4_EEE6secondB8ue170006Ev, symObjAddr: 0x192D4, symBinAddr: 0x10001C448, symSize: 0x24 }
  - { offsetInCU: 0x37555, offset: 0x37555, size: 0x8, addend: 0x0, symName: __ZNSt3__122__compressed_pair_elemINS_9allocatorINS_4pairImPKcEEEELi1ELb1EE5__getB8ue170006Ev, symObjAddr: 0x192F8, symBinAddr: 0x10001C46C, symSize: 0x14 }
  - { offsetInCU: 0x3757B, offset: 0x3757B, size: 0x8, addend: 0x0, symName: __ZNSt3__117__compressed_pairIPNS_4pairImPKcEENS_9allocatorIS4_EEEC2B8ue170006IDnS7_EEOT_OT0_, symObjAddr: 0x1930C, symBinAddr: 0x10001C480, symSize: 0x44 }
  - { offsetInCU: 0x375D3, offset: 0x375D3, size: 0x8, addend: 0x0, symName: __ZNSt3__122__compressed_pair_elemIPNS_4pairImPKcEELi0ELb0EEC2B8ue170006IDnvEEOT_, symObjAddr: 0x19350, symBinAddr: 0x10001C4C4, symSize: 0x1C }
  - { offsetInCU: 0x37615, offset: 0x37615, size: 0x8, addend: 0x0, symName: __ZNSt3__122__compressed_pair_elemINS_9allocatorINS_4pairImPKcEEEELi1ELb1EEC2B8ue170006IS6_vEEOT_, symObjAddr: 0x1936C, symBinAddr: 0x10001C4E0, symSize: 0x18 }
  - { offsetInCU: 0x37657, offset: 0x37657, size: 0x8, addend: 0x0, symName: __ZNSt3__117__compressed_pairIPNS_4pairImPKcEENS_9allocatorIS4_EEE5firstB8ue170006Ev, symObjAddr: 0x19384, symBinAddr: 0x10001C4F8, symSize: 0x24 }
  - { offsetInCU: 0x3767D, offset: 0x3767D, size: 0x8, addend: 0x0, symName: __ZNSt3__122__compressed_pair_elemIPNS_4pairImPKcEELi0ELb0EE5__getB8ue170006Ev, symObjAddr: 0x193A8, symBinAddr: 0x10001C51C, symSize: 0x14 }
  - { offsetInCU: 0x376A3, offset: 0x376A3, size: 0x8, addend: 0x0, symName: __ZNSt3__117__compressed_pairIPNS_7__stateIcEENS_9allocatorIS2_EEE6secondB8ue170006Ev, symObjAddr: 0x193BC, symBinAddr: 0x10001C530, symSize: 0x24 }
  - { offsetInCU: 0x376C9, offset: 0x376C9, size: 0x8, addend: 0x0, symName: __ZNSt3__122__compressed_pair_elemINS_9allocatorINS_7__stateIcEEEELi1ELb1EE5__getB8ue170006Ev, symObjAddr: 0x193E0, symBinAddr: 0x10001C554, symSize: 0x14 }
  - { offsetInCU: 0x376EF, offset: 0x376EF, size: 0x8, addend: 0x0, symName: __ZNSt3__16vectorINS_7__stateIcEENS_9allocatorIS2_EEE21_ConstructTransactionD2B8ue170006Ev, symObjAddr: 0x193F4, symBinAddr: 0x10001C568, symSize: 0x20 }
  - { offsetInCU: 0x37719, offset: 0x37719, size: 0x8, addend: 0x0, symName: __ZNKSt3__16vectorINS_7__stateIcEENS_9allocatorIS2_EEE11__recommendB8ue170006Em, symObjAddr: 0x19414, symBinAddr: 0x10001C588, symSize: 0xB4 }
  - { offsetInCU: 0x3776E, offset: 0x3776E, size: 0x8, addend: 0x0, symName: __ZNKSt3__16vectorINS_7__stateIcEENS_9allocatorIS2_EEE4sizeB8ue170006Ev, symObjAddr: 0x194C8, symBinAddr: 0x10001C63C, symSize: 0x28 }
  - { offsetInCU: 0x37794, offset: 0x37794, size: 0x8, addend: 0x0, symName: __ZNSt3__114__split_bufferINS_7__stateIcEERNS_9allocatorIS2_EEEC1EmmS5_, symObjAddr: 0x194F0, symBinAddr: 0x10001C664, symSize: 0x44 }
  - { offsetInCU: 0x377EA, offset: 0x377EA, size: 0x8, addend: 0x0, symName: __ZNSt3__114__split_bufferINS_7__stateIcEERNS_9allocatorIS2_EEED1Ev, symObjAddr: 0x19644, symBinAddr: 0x10001C7B8, symSize: 0x2C }
  - { offsetInCU: 0x37816, offset: 0x37816, size: 0x8, addend: 0x0, symName: __ZNKSt3__16vectorINS_7__stateIcEENS_9allocatorIS2_EEE8max_sizeEv, symObjAddr: 0x19670, symBinAddr: 0x10001C7E4, symSize: 0x60 }
  - { offsetInCU: 0x3783E, offset: 0x3783E, size: 0x8, addend: 0x0, symName: __ZNKSt3__16vectorINS_7__stateIcEENS_9allocatorIS2_EEE20__throw_length_errorB8ue170006Ev, symObjAddr: 0x196D0, symBinAddr: 0x10001C844, symSize: 0x1C }
  - { offsetInCU: 0x37864, offset: 0x37864, size: 0x8, addend: 0x0, symName: __ZNKSt3__16vectorINS_7__stateIcEENS_9allocatorIS2_EEE8capacityB8ue170006Ev, symObjAddr: 0x196EC, symBinAddr: 0x10001C860, symSize: 0x40 }
  - { offsetInCU: 0x37895, offset: 0x37895, size: 0x8, addend: 0x0, symName: __ZNSt3__116allocator_traitsINS_9allocatorINS_7__stateIcEEEEE8max_sizeB8ue170006IS4_vEEmRKS4_, symObjAddr: 0x1972C, symBinAddr: 0x10001C8A0, symSize: 0x24 }
  - { offsetInCU: 0x378C3, offset: 0x378C3, size: 0x8, addend: 0x0, symName: __ZNKSt3__16vectorINS_7__stateIcEENS_9allocatorIS2_EEE7__allocB8ue170006Ev, symObjAddr: 0x19750, symBinAddr: 0x10001C8C4, symSize: 0x28 }
  - { offsetInCU: 0x378E9, offset: 0x378E9, size: 0x8, addend: 0x0, symName: __ZNKSt3__19allocatorINS_7__stateIcEEE8max_sizeB8ue170006Ev, symObjAddr: 0x19778, symBinAddr: 0x10001C8EC, symSize: 0x18 }
  - { offsetInCU: 0x3790F, offset: 0x3790F, size: 0x8, addend: 0x0, symName: __ZNKSt3__117__compressed_pairIPNS_7__stateIcEENS_9allocatorIS2_EEE6secondB8ue170006Ev, symObjAddr: 0x19790, symBinAddr: 0x10001C904, symSize: 0x24 }
  - { offsetInCU: 0x37935, offset: 0x37935, size: 0x8, addend: 0x0, symName: __ZNKSt3__122__compressed_pair_elemINS_9allocatorINS_7__stateIcEEEELi1ELb1EE5__getB8ue170006Ev, symObjAddr: 0x197B4, symBinAddr: 0x10001C928, symSize: 0x14 }
  - { offsetInCU: 0x3795B, offset: 0x3795B, size: 0x8, addend: 0x0, symName: __ZNKSt3__16vectorINS_7__stateIcEENS_9allocatorIS2_EEE9__end_capB8ue170006Ev, symObjAddr: 0x197C8, symBinAddr: 0x10001C93C, symSize: 0x28 }
  - { offsetInCU: 0x37981, offset: 0x37981, size: 0x8, addend: 0x0, symName: __ZNKSt3__117__compressed_pairIPNS_7__stateIcEENS_9allocatorIS2_EEE5firstB8ue170006Ev, symObjAddr: 0x197F0, symBinAddr: 0x10001C964, symSize: 0x24 }
  - { offsetInCU: 0x379A7, offset: 0x379A7, size: 0x8, addend: 0x0, symName: __ZNKSt3__122__compressed_pair_elemIPNS_7__stateIcEELi0ELb0EE5__getB8ue170006Ev, symObjAddr: 0x19814, symBinAddr: 0x10001C988, symSize: 0x14 }
  - { offsetInCU: 0x379CD, offset: 0x379CD, size: 0x8, addend: 0x0, symName: __ZNSt3__114__split_bufferINS_7__stateIcEERNS_9allocatorIS2_EEEC2EmmS5_, symObjAddr: 0x19828, symBinAddr: 0x10001C99C, symSize: 0xE0 }
  - { offsetInCU: 0x37A40, offset: 0x37A40, size: 0x8, addend: 0x0, symName: __ZNSt3__117__compressed_pairIPNS_7__stateIcEERNS_9allocatorIS2_EEEC1B8ue170006IDnS6_EEOT_OT0_, symObjAddr: 0x19908, symBinAddr: 0x10001CA7C, symSize: 0x3C }
  - { offsetInCU: 0x37A98, offset: 0x37A98, size: 0x8, addend: 0x0, symName: __ZNSt3__114__split_bufferINS_7__stateIcEERNS_9allocatorIS2_EEE7__allocB8ue170006Ev, symObjAddr: 0x19984, symBinAddr: 0x10001CAF8, symSize: 0x28 }
  - { offsetInCU: 0x37ABE, offset: 0x37ABE, size: 0x8, addend: 0x0, symName: __ZNSt3__114__split_bufferINS_7__stateIcEERNS_9allocatorIS2_EEE9__end_capB8ue170006Ev, symObjAddr: 0x199AC, symBinAddr: 0x10001CB20, symSize: 0x28 }
  - { offsetInCU: 0x37AE4, offset: 0x37AE4, size: 0x8, addend: 0x0, symName: __ZNSt3__117__compressed_pairIPNS_7__stateIcEERNS_9allocatorIS2_EEEC2B8ue170006IDnS6_EEOT_OT0_, symObjAddr: 0x199D4, symBinAddr: 0x10001CB48, symSize: 0x48 }
  - { offsetInCU: 0x37B3C, offset: 0x37B3C, size: 0x8, addend: 0x0, symName: __ZNSt3__122__compressed_pair_elemIRNS_9allocatorINS_7__stateIcEEEELi1ELb0EEC2B8ue170006IS5_vEEOT_, symObjAddr: 0x19A1C, symBinAddr: 0x10001CB90, symSize: 0x20 }
  - { offsetInCU: 0x37B7E, offset: 0x37B7E, size: 0x8, addend: 0x0, symName: __ZNSt3__19allocatorINS_7__stateIcEEE8allocateB8ue170006Em, symObjAddr: 0x19A3C, symBinAddr: 0x10001CBB0, symSize: 0x5C }
  - { offsetInCU: 0x37BB2, offset: 0x37BB2, size: 0x8, addend: 0x0, symName: __ZNSt3__117__compressed_pairIPNS_7__stateIcEERNS_9allocatorIS2_EEE6secondB8ue170006Ev, symObjAddr: 0x19A98, symBinAddr: 0x10001CC0C, symSize: 0x28 }
  - { offsetInCU: 0x37BD8, offset: 0x37BD8, size: 0x8, addend: 0x0, symName: __ZNSt3__122__compressed_pair_elemIRNS_9allocatorINS_7__stateIcEEEELi1ELb0EE5__getB8ue170006Ev, symObjAddr: 0x19AC0, symBinAddr: 0x10001CC34, symSize: 0x18 }
  - { offsetInCU: 0x37BFE, offset: 0x37BFE, size: 0x8, addend: 0x0, symName: __ZNSt3__117__compressed_pairIPNS_7__stateIcEERNS_9allocatorIS2_EEE5firstB8ue170006Ev, symObjAddr: 0x19AD8, symBinAddr: 0x10001CC4C, symSize: 0x24 }
  - { offsetInCU: 0x37C24, offset: 0x37C24, size: 0x8, addend: 0x0, symName: __ZNKSt3__16vectorINS_7__stateIcEENS_9allocatorIS2_EEE17__annotate_deleteB8ue170006Ev, symObjAddr: 0x19AFC, symBinAddr: 0x10001CC70, symSize: 0xD4 }
  - { offsetInCU: 0x37C4A, offset: 0x37C4A, size: 0x8, addend: 0x0, symName: __ZNSt3__116reverse_iteratorIPNS_7__stateIcEEEC1B8ue170006ES3_, symObjAddr: 0x19CFC, symBinAddr: 0x10001CE70, symSize: 0x34 }
  - { offsetInCU: 0x37C82, offset: 0x37C82, size: 0x8, addend: 0x0, symName: __ZNKSt3__116reverse_iteratorIPNS_7__stateIcEEE4baseB8ue170006Ev, symObjAddr: 0x19D30, symBinAddr: 0x10001CEA4, symSize: 0x18 }
  - { offsetInCU: 0x37CA8, offset: 0x37CA8, size: 0x8, addend: 0x0, symName: __ZNKSt3__16vectorINS_7__stateIcEENS_9allocatorIS2_EEE14__annotate_newB8ue170006Em, symObjAddr: 0x19D84, symBinAddr: 0x10001CEF8, symSize: 0xC8 }
  - { offsetInCU: 0x37CDD, offset: 0x37CDD, size: 0x8, addend: 0x0, symName: __ZNKSt3__16vectorINS_7__stateIcEENS_9allocatorIS2_EEE31__annotate_contiguous_containerB8ue170006EPKvS7_S7_S7_, symObjAddr: 0x19E4C, symBinAddr: 0x10001CFC0, symSize: 0x20 }
  - { offsetInCU: 0x37D2F, offset: 0x37D2F, size: 0x8, addend: 0x0, symName: __ZNKSt3__16vectorINS_7__stateIcEENS_9allocatorIS2_EEE4dataB8ue170006Ev, symObjAddr: 0x19E6C, symBinAddr: 0x10001CFE0, symSize: 0x28 }
  - { offsetInCU: 0x37D55, offset: 0x37D55, size: 0x8, addend: 0x0, symName: __ZNSt3__129_AllocatorDestroyRangeReverseINS_9allocatorINS_7__stateIcEEEENS_16reverse_iteratorIPS3_EEEC1B8ue170006ERS4_RS7_SA_, symObjAddr: 0x19EE0, symBinAddr: 0x10001D054, symSize: 0x44 }
  - { offsetInCU: 0x37DAC, offset: 0x37DAC, size: 0x8, addend: 0x0, symName: __ZNKSt3__116reverse_iteratorIPNS_7__stateIcEEEdeB8ue170006Ev, symObjAddr: 0x19F90, symBinAddr: 0x10001D104, symSize: 0x28 }
  - { offsetInCU: 0x37DE0, offset: 0x37DE0, size: 0x8, addend: 0x0, symName: __ZNSt3__116reverse_iteratorIPNS_7__stateIcEEEppB8ue170006Ev, symObjAddr: 0x19FB8, symBinAddr: 0x10001D12C, symSize: 0x20 }
  - { offsetInCU: 0x37E06, offset: 0x37E06, size: 0x8, addend: 0x0, symName: __ZNSt3__128__exception_guard_exceptionsINS_29_AllocatorDestroyRangeReverseINS_9allocatorINS_7__stateIcEEEENS_16reverse_iteratorIPS4_EEEEE10__completeB8ue170006Ev, symObjAddr: 0x19FD8, symBinAddr: 0x10001D14C, symSize: 0x1C }
  - { offsetInCU: 0x37E2C, offset: 0x37E2C, size: 0x8, addend: 0x0, symName: __ZNSt3__128__exception_guard_exceptionsINS_29_AllocatorDestroyRangeReverseINS_9allocatorINS_7__stateIcEEEENS_16reverse_iteratorIPS4_EEEEED1B8ue170006Ev, symObjAddr: 0x19FF4, symBinAddr: 0x10001D168, symSize: 0x2C }
  - { offsetInCU: 0x37E56, offset: 0x37E56, size: 0x8, addend: 0x0, symName: __ZNSt3__128__exception_guard_exceptionsINS_29_AllocatorDestroyRangeReverseINS_9allocatorINS_7__stateIcEEEENS_16reverse_iteratorIPS4_EEEEEC1B8ue170006ES9_, symObjAddr: 0x1A020, symBinAddr: 0x10001D194, symSize: 0x34 }
  - { offsetInCU: 0x37E8F, offset: 0x37E8F, size: 0x8, addend: 0x0, symName: __ZNSt3__128__exception_guard_exceptionsINS_29_AllocatorDestroyRangeReverseINS_9allocatorINS_7__stateIcEEEENS_16reverse_iteratorIPS4_EEEEEC2B8ue170006ES9_, symObjAddr: 0x1A054, symBinAddr: 0x10001D1C8, symSize: 0x30 }
  - { offsetInCU: 0x37EC8, offset: 0x37EC8, size: 0x8, addend: 0x0, symName: __ZNSt3__129_AllocatorDestroyRangeReverseINS_9allocatorINS_7__stateIcEEEENS_16reverse_iteratorIPS3_EEEC2B8ue170006ERS4_RS7_SA_, symObjAddr: 0x1A084, symBinAddr: 0x10001D1F8, symSize: 0x38 }
  - { offsetInCU: 0x37F25, offset: 0x37F25, size: 0x8, addend: 0x0, symName: __ZNSt3__119__to_address_helperINS_16reverse_iteratorIPNS_7__stateIcEEEEvE6__callB8ue170006ERKS5_, symObjAddr: 0x1A0BC, symBinAddr: 0x10001D230, symSize: 0x38 }
  - { offsetInCU: 0x37F48, offset: 0x37F48, size: 0x8, addend: 0x0, symName: __ZNKSt3__116reverse_iteratorIPNS_7__stateIcEEEptB8ue170006Ev, symObjAddr: 0x1A0F4, symBinAddr: 0x10001D268, symSize: 0x24 }
  - { offsetInCU: 0x37F6E, offset: 0x37F6E, size: 0x8, addend: 0x0, symName: __ZNSt3__128__exception_guard_exceptionsINS_29_AllocatorDestroyRangeReverseINS_9allocatorINS_7__stateIcEEEENS_16reverse_iteratorIPS4_EEEEED2B8ue170006Ev, symObjAddr: 0x1A118, symBinAddr: 0x10001D28C, symSize: 0x50 }
  - { offsetInCU: 0x37F98, offset: 0x37F98, size: 0x8, addend: 0x0, symName: __ZNKSt3__129_AllocatorDestroyRangeReverseINS_9allocatorINS_7__stateIcEEEENS_16reverse_iteratorIPS3_EEEclB8ue170006Ev, symObjAddr: 0x1A168, symBinAddr: 0x10001D2DC, symSize: 0xB4 }
  - { offsetInCU: 0x37FBF, offset: 0x37FBF, size: 0x8, addend: 0x0, symName: __ZNSt3__116reverse_iteratorINS0_IPNS_7__stateIcEEEEEC1B8ue170006ES4_, symObjAddr: 0x1A28C, symBinAddr: 0x10001D400, symSize: 0x3C }
  - { offsetInCU: 0x37FF7, offset: 0x37FF7, size: 0x8, addend: 0x0, symName: __ZNSt3__116allocator_traitsINS_9allocatorINS_7__stateIcEEEEE7destroyB8ue170006IS3_vEEvRS4_PT_, symObjAddr: 0x1A328, symBinAddr: 0x10001D49C, symSize: 0x2C }
  - { offsetInCU: 0x38034, offset: 0x38034, size: 0x8, addend: 0x0, symName: __ZNSt3__116reverse_iteratorINS0_IPNS_7__stateIcEEEEEppB8ue170006Ev, symObjAddr: 0x1A378, symBinAddr: 0x10001D4EC, symSize: 0x30 }
  - { offsetInCU: 0x3805A, offset: 0x3805A, size: 0x8, addend: 0x0, symName: __ZNKSt3__116reverse_iteratorINS0_IPNS_7__stateIcEEEEE4baseB8ue170006Ev, symObjAddr: 0x1A3A8, symBinAddr: 0x10001D51C, symSize: 0x24 }
  - { offsetInCU: 0x38080, offset: 0x38080, size: 0x8, addend: 0x0, symName: __ZNSt3__19allocatorINS_7__stateIcEEE7destroyB8ue170006EPS2_, symObjAddr: 0x1A3CC, symBinAddr: 0x10001D540, symSize: 0x28 }
  - { offsetInCU: 0x380BA, offset: 0x380BA, size: 0x8, addend: 0x0, symName: __ZNSt3__119__to_address_helperINS_16reverse_iteratorINS1_IPNS_7__stateIcEEEEEEvE6__callB8ue170006ERKS6_, symObjAddr: 0x1A3F4, symBinAddr: 0x10001D568, symSize: 0x38 }
  - { offsetInCU: 0x380DD, offset: 0x380DD, size: 0x8, addend: 0x0, symName: __ZNKSt3__116reverse_iteratorINS0_IPNS_7__stateIcEEEEEptB8ue170006Ev, symObjAddr: 0x1A42C, symBinAddr: 0x10001D5A0, symSize: 0x24 }
  - { offsetInCU: 0x38103, offset: 0x38103, size: 0x8, addend: 0x0, symName: __ZNKSt3__116reverse_iteratorINS0_IPNS_7__stateIcEEEEEdeB8ue170006Ev, symObjAddr: 0x1A450, symBinAddr: 0x10001D5C4, symSize: 0x34 }
  - { offsetInCU: 0x38137, offset: 0x38137, size: 0x8, addend: 0x0, symName: __ZNSt3__116reverse_iteratorIPNS_7__stateIcEEEmmB8ue170006Ev, symObjAddr: 0x1A484, symBinAddr: 0x10001D5F8, symSize: 0x20 }
  - { offsetInCU: 0x3815D, offset: 0x3815D, size: 0x8, addend: 0x0, symName: __ZNSt3__116reverse_iteratorINS0_IPNS_7__stateIcEEEEEC2B8ue170006ES4_, symObjAddr: 0x1A4A4, symBinAddr: 0x10001D618, symSize: 0x2C }
  - { offsetInCU: 0x38195, offset: 0x38195, size: 0x8, addend: 0x0, symName: __ZNSt3__116reverse_iteratorIPNS_7__stateIcEEEC2B8ue170006ES3_, symObjAddr: 0x1A4D0, symBinAddr: 0x10001D644, symSize: 0x28 }
  - { offsetInCU: 0x381CD, offset: 0x381CD, size: 0x8, addend: 0x0, symName: __ZNSt3__114__split_bufferINS_7__stateIcEERNS_9allocatorIS2_EEED2Ev, symObjAddr: 0x1A4F8, symBinAddr: 0x10001D66C, symSize: 0x8C }
  - { offsetInCU: 0x381F9, offset: 0x381F9, size: 0x8, addend: 0x0, symName: __ZNSt3__114__split_bufferINS_7__stateIcEERNS_9allocatorIS2_EEE5clearB8ue170006Ev, symObjAddr: 0x1A584, symBinAddr: 0x10001D6F8, symSize: 0x28 }
  - { offsetInCU: 0x3821F, offset: 0x3821F, size: 0x8, addend: 0x0, symName: __ZNSt3__116allocator_traitsINS_9allocatorINS_7__stateIcEEEEE10deallocateB8ue170006ERS4_PS3_m, symObjAddr: 0x1A5AC, symBinAddr: 0x10001D720, symSize: 0x34 }
  - { offsetInCU: 0x38261, offset: 0x38261, size: 0x8, addend: 0x0, symName: __ZNKSt3__114__split_bufferINS_7__stateIcEERNS_9allocatorIS2_EEE8capacityB8ue170006Ev, symObjAddr: 0x1A5E0, symBinAddr: 0x10001D754, symSize: 0x40 }
  - { offsetInCU: 0x38287, offset: 0x38287, size: 0x8, addend: 0x0, symName: __ZNSt3__114__split_bufferINS_7__stateIcEERNS_9allocatorIS2_EEE17__destruct_at_endB8ue170006EPS2_, symObjAddr: 0x1A620, symBinAddr: 0x10001D794, symSize: 0x2C }
  - { offsetInCU: 0x382BB, offset: 0x382BB, size: 0x8, addend: 0x0, symName: __ZNSt3__114__split_bufferINS_7__stateIcEERNS_9allocatorIS2_EEE17__destruct_at_endB8ue170006EPS2_NS_17integral_constantIbLb0EEE, symObjAddr: 0x1A64C, symBinAddr: 0x10001D7C0, symSize: 0x80 }
  - { offsetInCU: 0x382FB, offset: 0x382FB, size: 0x8, addend: 0x0, symName: __ZNSt3__19allocatorINS_7__stateIcEEE10deallocateB8ue170006EPS2_m, symObjAddr: 0x1A6CC, symBinAddr: 0x10001D840, symSize: 0x44 }
  - { offsetInCU: 0x3833D, offset: 0x3833D, size: 0x8, addend: 0x0, symName: __ZNKSt3__114__split_bufferINS_7__stateIcEERNS_9allocatorIS2_EEE9__end_capB8ue170006Ev, symObjAddr: 0x1A710, symBinAddr: 0x10001D884, symSize: 0x28 }
  - { offsetInCU: 0x38363, offset: 0x38363, size: 0x8, addend: 0x0, symName: __ZNKSt3__117__compressed_pairIPNS_7__stateIcEERNS_9allocatorIS2_EEE5firstB8ue170006Ev, symObjAddr: 0x1A738, symBinAddr: 0x10001D8AC, symSize: 0x24 }
  - { offsetInCU: 0x38389, offset: 0x38389, size: 0x8, addend: 0x0, symName: __ZNSt3__17__stateIcEC2B8ue170006Ev, symObjAddr: 0x1A75C, symBinAddr: 0x10001D8D0, symSize: 0x54 }
  - { offsetInCU: 0x383B3, offset: 0x383B3, size: 0x8, addend: 0x0, symName: __ZNSt3__16vectorINS_9sub_matchIPKcEENS_9allocatorIS4_EEEC1B8ue170006Ev, symObjAddr: 0x1A7B0, symBinAddr: 0x10001D924, symSize: 0x2C }
  - { offsetInCU: 0x383DD, offset: 0x383DD, size: 0x8, addend: 0x0, symName: __ZNSt3__16vectorINS_4pairImPKcEENS_9allocatorIS4_EEEC1B8ue170006Ev, symObjAddr: 0x1A7DC, symBinAddr: 0x10001D950, symSize: 0x2C }
  - { offsetInCU: 0x38407, offset: 0x38407, size: 0x8, addend: 0x0, symName: __ZNSt3__16vectorINS_9sub_matchIPKcEENS_9allocatorIS4_EEEC2B8ue170006Ev, symObjAddr: 0x1A808, symBinAddr: 0x10001D97C, symSize: 0x4C }
  - { offsetInCU: 0x38431, offset: 0x38431, size: 0x8, addend: 0x0, symName: __ZNSt3__117__compressed_pairIPNS_9sub_matchIPKcEENS_9allocatorIS4_EEEC1B8ue170006IDnNS_18__default_init_tagEEEOT_OT0_, symObjAddr: 0x1A854, symBinAddr: 0x10001D9C8, symSize: 0x3C }
  - { offsetInCU: 0x38489, offset: 0x38489, size: 0x8, addend: 0x0, symName: __ZNSt3__117__compressed_pairIPNS_9sub_matchIPKcEENS_9allocatorIS4_EEEC2B8ue170006IDnNS_18__default_init_tagEEEOT_OT0_, symObjAddr: 0x1A890, symBinAddr: 0x10001DA04, symSize: 0x40 }
  - { offsetInCU: 0x384E1, offset: 0x384E1, size: 0x8, addend: 0x0, symName: __ZNSt3__122__compressed_pair_elemINS_9allocatorINS_9sub_matchIPKcEEEELi1ELb1EEC2B8ue170006ENS_18__default_init_tagE, symObjAddr: 0x1A8D0, symBinAddr: 0x10001DA44, symSize: 0x2C }
  - { offsetInCU: 0x38515, offset: 0x38515, size: 0x8, addend: 0x0, symName: __ZNSt3__16vectorINS_4pairImPKcEENS_9allocatorIS4_EEEC2B8ue170006Ev, symObjAddr: 0x1A8FC, symBinAddr: 0x10001DA70, symSize: 0x4C }
  - { offsetInCU: 0x3853F, offset: 0x3853F, size: 0x8, addend: 0x0, symName: __ZNSt3__117__compressed_pairIPNS_4pairImPKcEENS_9allocatorIS4_EEEC1B8ue170006IDnNS_18__default_init_tagEEEOT_OT0_, symObjAddr: 0x1A948, symBinAddr: 0x10001DABC, symSize: 0x3C }
  - { offsetInCU: 0x38597, offset: 0x38597, size: 0x8, addend: 0x0, symName: __ZNSt3__117__compressed_pairIPNS_4pairImPKcEENS_9allocatorIS4_EEEC2B8ue170006IDnNS_18__default_init_tagEEEOT_OT0_, symObjAddr: 0x1A984, symBinAddr: 0x10001DAF8, symSize: 0x40 }
  - { offsetInCU: 0x385EF, offset: 0x385EF, size: 0x8, addend: 0x0, symName: __ZNSt3__122__compressed_pair_elemINS_9allocatorINS_4pairImPKcEEEELi1ELb1EEC2B8ue170006ENS_18__default_init_tagE, symObjAddr: 0x1A9C4, symBinAddr: 0x10001DB38, symSize: 0x2C }
  - { offsetInCU: 0x38623, offset: 0x38623, size: 0x8, addend: 0x0, symName: __ZNSt3__19allocatorINS_4pairImPKcEEEC2B8ue170006Ev, symObjAddr: 0x1A9F0, symBinAddr: 0x10001DB64, symSize: 0x2C }
  - { offsetInCU: 0x3864D, offset: 0x3864D, size: 0x8, addend: 0x0, symName: __ZNSt3__116__non_trivial_ifILb1ENS_9allocatorINS_4pairImPKcEEEEEC2B8ue170006Ev, symObjAddr: 0x1AA1C, symBinAddr: 0x10001DB90, symSize: 0x14 }
  - { offsetInCU: 0x38677, offset: 0x38677, size: 0x8, addend: 0x0, symName: __ZNSt3__17__stateIcED2Ev, symObjAddr: 0x1AA30, symBinAddr: 0x10001DBA4, symSize: 0x3C }
  - { offsetInCU: 0x386A4, offset: 0x386A4, size: 0x8, addend: 0x0, symName: __ZNSt3__16vectorINS_4pairImPKcEENS_9allocatorIS4_EEED1B8ue170006Ev, symObjAddr: 0x1AA6C, symBinAddr: 0x10001DBE0, symSize: 0x2C }
  - { offsetInCU: 0x386CE, offset: 0x386CE, size: 0x8, addend: 0x0, symName: __ZNSt3__16vectorINS_4pairImPKcEENS_9allocatorIS4_EEED2B8ue170006Ev, symObjAddr: 0x1AA98, symBinAddr: 0x10001DC0C, symSize: 0x44 }
  - { offsetInCU: 0x386F8, offset: 0x386F8, size: 0x8, addend: 0x0, symName: __ZNSt3__16vectorINS_4pairImPKcEENS_9allocatorIS4_EEE16__destroy_vectorC1B8ue170006ERS7_, symObjAddr: 0x1AADC, symBinAddr: 0x10001DC50, symSize: 0x34 }
  - { offsetInCU: 0x38731, offset: 0x38731, size: 0x8, addend: 0x0, symName: __ZNSt3__16vectorINS_4pairImPKcEENS_9allocatorIS4_EEE16__destroy_vectorclB8ue170006Ev, symObjAddr: 0x1AB10, symBinAddr: 0x10001DC84, symSize: 0x90 }
  - { offsetInCU: 0x38757, offset: 0x38757, size: 0x8, addend: 0x0, symName: __ZNSt3__16vectorINS_4pairImPKcEENS_9allocatorIS4_EEE16__destroy_vectorC2B8ue170006ERS7_, symObjAddr: 0x1ABA0, symBinAddr: 0x10001DD14, symSize: 0x20 }
  - { offsetInCU: 0x38790, offset: 0x38790, size: 0x8, addend: 0x0, symName: __ZNSt3__16vectorINS_4pairImPKcEENS_9allocatorIS4_EEE7__clearB8ue170006Ev, symObjAddr: 0x1ABC0, symBinAddr: 0x10001DD34, symSize: 0x28 }
  - { offsetInCU: 0x387B6, offset: 0x387B6, size: 0x8, addend: 0x0, symName: __ZNKSt3__16vectorINS_4pairImPKcEENS_9allocatorIS4_EEE17__annotate_deleteB8ue170006Ev, symObjAddr: 0x1ABE8, symBinAddr: 0x10001DD5C, symSize: 0xB8 }
  - { offsetInCU: 0x387DC, offset: 0x387DC, size: 0x8, addend: 0x0, symName: __ZNSt3__116allocator_traitsINS_9allocatorINS_4pairImPKcEEEEE10deallocateB8ue170006ERS6_PS5_m, symObjAddr: 0x1ACA0, symBinAddr: 0x10001DE14, symSize: 0x34 }
  - { offsetInCU: 0x3881E, offset: 0x3881E, size: 0x8, addend: 0x0, symName: __ZNKSt3__16vectorINS_4pairImPKcEENS_9allocatorIS4_EEE8capacityB8ue170006Ev, symObjAddr: 0x1ACD4, symBinAddr: 0x10001DE48, symSize: 0x40 }
  - { offsetInCU: 0x38844, offset: 0x38844, size: 0x8, addend: 0x0, symName: __ZNSt3__16vectorINS_4pairImPKcEENS_9allocatorIS4_EEE22__base_destruct_at_endB8ue170006EPS4_, symObjAddr: 0x1AD14, symBinAddr: 0x10001DE88, symSize: 0x8C }
  - { offsetInCU: 0x38888, offset: 0x38888, size: 0x8, addend: 0x0, symName: __ZNSt3__116allocator_traitsINS_9allocatorINS_4pairImPKcEEEEE7destroyB8ue170006IS5_vEEvRS6_PT_, symObjAddr: 0x1ADA0, symBinAddr: 0x10001DF14, symSize: 0x2C }
  - { offsetInCU: 0x388C5, offset: 0x388C5, size: 0x8, addend: 0x0, symName: __ZNSt3__19allocatorINS_4pairImPKcEEE7destroyB8ue170006EPS4_, symObjAddr: 0x1ADE0, symBinAddr: 0x10001DF54, symSize: 0x14 }
  - { offsetInCU: 0x388F9, offset: 0x388F9, size: 0x8, addend: 0x0, symName: __ZNKSt3__16vectorINS_4pairImPKcEENS_9allocatorIS4_EEE31__annotate_contiguous_containerB8ue170006EPKvS9_S9_S9_, symObjAddr: 0x1ADF4, symBinAddr: 0x10001DF68, symSize: 0x20 }
  - { offsetInCU: 0x3894B, offset: 0x3894B, size: 0x8, addend: 0x0, symName: __ZNKSt3__16vectorINS_4pairImPKcEENS_9allocatorIS4_EEE4dataB8ue170006Ev, symObjAddr: 0x1AE14, symBinAddr: 0x10001DF88, symSize: 0x28 }
  - { offsetInCU: 0x38971, offset: 0x38971, size: 0x8, addend: 0x0, symName: __ZNKSt3__16vectorINS_4pairImPKcEENS_9allocatorIS4_EEE4sizeB8ue170006Ev, symObjAddr: 0x1AE3C, symBinAddr: 0x10001DFB0, symSize: 0x28 }
  - { offsetInCU: 0x38997, offset: 0x38997, size: 0x8, addend: 0x0, symName: __ZNSt3__19allocatorINS_4pairImPKcEEE10deallocateB8ue170006EPS4_m, symObjAddr: 0x1AE64, symBinAddr: 0x10001DFD8, symSize: 0x40 }
  - { offsetInCU: 0x389D9, offset: 0x389D9, size: 0x8, addend: 0x0, symName: __ZNKSt3__16vectorINS_4pairImPKcEENS_9allocatorIS4_EEE9__end_capB8ue170006Ev, symObjAddr: 0x1AEA4, symBinAddr: 0x10001E018, symSize: 0x28 }
  - { offsetInCU: 0x389FF, offset: 0x389FF, size: 0x8, addend: 0x0, symName: __ZNKSt3__117__compressed_pairIPNS_4pairImPKcEENS_9allocatorIS4_EEE5firstB8ue170006Ev, symObjAddr: 0x1AECC, symBinAddr: 0x10001E040, symSize: 0x24 }
  - { offsetInCU: 0x38A25, offset: 0x38A25, size: 0x8, addend: 0x0, symName: __ZNKSt3__122__compressed_pair_elemIPNS_4pairImPKcEELi0ELb0EE5__getB8ue170006Ev, symObjAddr: 0x1AEF0, symBinAddr: 0x10001E064, symSize: 0x14 }
  - { offsetInCU: 0x38A4B, offset: 0x38A4B, size: 0x8, addend: 0x0, symName: __ZNSt3__16vectorINS_9sub_matchIPKcEENS_9allocatorIS4_EEE8__appendEmRKS4_, symObjAddr: 0x1AF04, symBinAddr: 0x10001E078, symSize: 0x114 }
  - { offsetInCU: 0x38AB5, offset: 0x38AB5, size: 0x8, addend: 0x0, symName: __ZNSt3__114__split_bufferINS_9sub_matchIPKcEERNS_9allocatorIS4_EEEC1EmmS7_, symObjAddr: 0x1B018, symBinAddr: 0x10001E18C, symSize: 0x44 }
  - { offsetInCU: 0x38B0B, offset: 0x38B0B, size: 0x8, addend: 0x0, symName: __ZNSt3__114__split_bufferINS_9sub_matchIPKcEERNS_9allocatorIS4_EEE18__construct_at_endEmRKS4_, symObjAddr: 0x1B05C, symBinAddr: 0x10001E1D0, symSize: 0xBC }
  - { offsetInCU: 0x38B5E, offset: 0x38B5E, size: 0x8, addend: 0x0, symName: __ZNSt3__114__split_bufferINS_9sub_matchIPKcEERNS_9allocatorIS4_EEED1Ev, symObjAddr: 0x1B228, symBinAddr: 0x10001E39C, symSize: 0x2C }
  - { offsetInCU: 0x38B8A, offset: 0x38B8A, size: 0x8, addend: 0x0, symName: __ZNSt3__114__split_bufferINS_9sub_matchIPKcEERNS_9allocatorIS4_EEEC2EmmS7_, symObjAddr: 0x1B254, symBinAddr: 0x10001E3C8, symSize: 0xE0 }
  - { offsetInCU: 0x38BFD, offset: 0x38BFD, size: 0x8, addend: 0x0, symName: __ZNSt3__117__compressed_pairIPNS_9sub_matchIPKcEERNS_9allocatorIS4_EEEC1B8ue170006IDnS8_EEOT_OT0_, symObjAddr: 0x1B334, symBinAddr: 0x10001E4A8, symSize: 0x3C }
  - { offsetInCU: 0x38C55, offset: 0x38C55, size: 0x8, addend: 0x0, symName: __ZNSt3__114__split_bufferINS_9sub_matchIPKcEERNS_9allocatorIS4_EEE7__allocB8ue170006Ev, symObjAddr: 0x1B370, symBinAddr: 0x10001E4E4, symSize: 0x28 }
  - { offsetInCU: 0x38C7B, offset: 0x38C7B, size: 0x8, addend: 0x0, symName: __ZNSt3__114__split_bufferINS_9sub_matchIPKcEERNS_9allocatorIS4_EEE9__end_capB8ue170006Ev, symObjAddr: 0x1B398, symBinAddr: 0x10001E50C, symSize: 0x28 }
  - { offsetInCU: 0x38CA1, offset: 0x38CA1, size: 0x8, addend: 0x0, symName: __ZNSt3__117__compressed_pairIPNS_9sub_matchIPKcEERNS_9allocatorIS4_EEEC2B8ue170006IDnS8_EEOT_OT0_, symObjAddr: 0x1B3C0, symBinAddr: 0x10001E534, symSize: 0x48 }
  - { offsetInCU: 0x38CF9, offset: 0x38CF9, size: 0x8, addend: 0x0, symName: __ZNSt3__122__compressed_pair_elemIRNS_9allocatorINS_9sub_matchIPKcEEEELi1ELb0EEC2B8ue170006IS7_vEEOT_, symObjAddr: 0x1B408, symBinAddr: 0x10001E57C, symSize: 0x20 }
  - { offsetInCU: 0x38D3B, offset: 0x38D3B, size: 0x8, addend: 0x0, symName: __ZNSt3__117__compressed_pairIPNS_9sub_matchIPKcEERNS_9allocatorIS4_EEE6secondB8ue170006Ev, symObjAddr: 0x1B428, symBinAddr: 0x10001E59C, symSize: 0x28 }
  - { offsetInCU: 0x38D61, offset: 0x38D61, size: 0x8, addend: 0x0, symName: __ZNSt3__122__compressed_pair_elemIRNS_9allocatorINS_9sub_matchIPKcEEEELi1ELb0EE5__getB8ue170006Ev, symObjAddr: 0x1B450, symBinAddr: 0x10001E5C4, symSize: 0x18 }
  - { offsetInCU: 0x38D87, offset: 0x38D87, size: 0x8, addend: 0x0, symName: __ZNSt3__117__compressed_pairIPNS_9sub_matchIPKcEERNS_9allocatorIS4_EEE5firstB8ue170006Ev, symObjAddr: 0x1B468, symBinAddr: 0x10001E5DC, symSize: 0x24 }
  - { offsetInCU: 0x38DB7, offset: 0x38DB7, size: 0x8, addend: 0x0, symName: __ZNSt3__114__split_bufferINS_9sub_matchIPKcEERNS_9allocatorIS4_EEE21_ConstructTransactionC1B8ue170006EPPS4_m, symObjAddr: 0x1B48C, symBinAddr: 0x10001E600, symSize: 0x3C }
  - { offsetInCU: 0x38DFD, offset: 0x38DFD, size: 0x8, addend: 0x0, symName: __ZNSt3__114__split_bufferINS_9sub_matchIPKcEERNS_9allocatorIS4_EEE21_ConstructTransactionD1B8ue170006Ev, symObjAddr: 0x1B4C8, symBinAddr: 0x10001E63C, symSize: 0x2C }
  - { offsetInCU: 0x38E27, offset: 0x38E27, size: 0x8, addend: 0x0, symName: __ZNSt3__114__split_bufferINS_9sub_matchIPKcEERNS_9allocatorIS4_EEE21_ConstructTransactionC2B8ue170006EPPS4_m, symObjAddr: 0x1B4F4, symBinAddr: 0x10001E668, symSize: 0x4C }
  - { offsetInCU: 0x38E6D, offset: 0x38E6D, size: 0x8, addend: 0x0, symName: __ZNSt3__114__split_bufferINS_9sub_matchIPKcEERNS_9allocatorIS4_EEE21_ConstructTransactionD2B8ue170006Ev, symObjAddr: 0x1B540, symBinAddr: 0x10001E6B4, symSize: 0x20 }
  - { offsetInCU: 0x38E97, offset: 0x38E97, size: 0x8, addend: 0x0, symName: __ZNSt3__116reverse_iteratorIPNS_9sub_matchIPKcEEEC1B8ue170006ES5_, symObjAddr: 0x1B68C, symBinAddr: 0x10001E800, symSize: 0x34 }
  - { offsetInCU: 0x38ECF, offset: 0x38ECF, size: 0x8, addend: 0x0, symName: __ZNKSt3__116reverse_iteratorIPNS_9sub_matchIPKcEEE4baseB8ue170006Ev, symObjAddr: 0x1B6C0, symBinAddr: 0x10001E834, symSize: 0x18 }
  - { offsetInCU: 0x38EF5, offset: 0x38EF5, size: 0x8, addend: 0x0, symName: __ZNSt3__129_AllocatorDestroyRangeReverseINS_9allocatorINS_9sub_matchIPKcEEEENS_16reverse_iteratorIPS5_EEEC1B8ue170006ERS6_RS9_SC_, symObjAddr: 0x1B760, symBinAddr: 0x10001E8D4, symSize: 0x44 }
  - { offsetInCU: 0x38F52, offset: 0x38F52, size: 0x8, addend: 0x0, symName: __ZNSt3__116allocator_traitsINS_9allocatorINS_9sub_matchIPKcEEEEE9constructB8ue170006IS5_JS5_EvEEvRS6_PT_DpOT0_, symObjAddr: 0x1B7EC, symBinAddr: 0x10001E960, symSize: 0x34 }
  - { offsetInCU: 0x38FA9, offset: 0x38FA9, size: 0x8, addend: 0x0, symName: __ZNKSt3__116reverse_iteratorIPNS_9sub_matchIPKcEEEdeB8ue170006Ev, symObjAddr: 0x1B844, symBinAddr: 0x10001E9B8, symSize: 0x28 }
  - { offsetInCU: 0x38FDD, offset: 0x38FDD, size: 0x8, addend: 0x0, symName: __ZNSt3__116reverse_iteratorIPNS_9sub_matchIPKcEEEppB8ue170006Ev, symObjAddr: 0x1B86C, symBinAddr: 0x10001E9E0, symSize: 0x20 }
  - { offsetInCU: 0x39003, offset: 0x39003, size: 0x8, addend: 0x0, symName: __ZNSt3__128__exception_guard_exceptionsINS_29_AllocatorDestroyRangeReverseINS_9allocatorINS_9sub_matchIPKcEEEENS_16reverse_iteratorIPS6_EEEEE10__completeB8ue170006Ev, symObjAddr: 0x1B88C, symBinAddr: 0x10001EA00, symSize: 0x1C }
  - { offsetInCU: 0x39029, offset: 0x39029, size: 0x8, addend: 0x0, symName: __ZNSt3__128__exception_guard_exceptionsINS_29_AllocatorDestroyRangeReverseINS_9allocatorINS_9sub_matchIPKcEEEENS_16reverse_iteratorIPS6_EEEEED1B8ue170006Ev, symObjAddr: 0x1B8A8, symBinAddr: 0x10001EA1C, symSize: 0x2C }
  - { offsetInCU: 0x39053, offset: 0x39053, size: 0x8, addend: 0x0, symName: __ZNSt3__128__exception_guard_exceptionsINS_29_AllocatorDestroyRangeReverseINS_9allocatorINS_9sub_matchIPKcEEEENS_16reverse_iteratorIPS6_EEEEEC1B8ue170006ESB_, symObjAddr: 0x1B8D4, symBinAddr: 0x10001EA48, symSize: 0x34 }
  - { offsetInCU: 0x3908C, offset: 0x3908C, size: 0x8, addend: 0x0, symName: __ZNSt3__128__exception_guard_exceptionsINS_29_AllocatorDestroyRangeReverseINS_9allocatorINS_9sub_matchIPKcEEEENS_16reverse_iteratorIPS6_EEEEEC2B8ue170006ESB_, symObjAddr: 0x1B908, symBinAddr: 0x10001EA7C, symSize: 0x30 }
  - { offsetInCU: 0x390C5, offset: 0x390C5, size: 0x8, addend: 0x0, symName: __ZNSt3__129_AllocatorDestroyRangeReverseINS_9allocatorINS_9sub_matchIPKcEEEENS_16reverse_iteratorIPS5_EEEC2B8ue170006ERS6_RS9_SC_, symObjAddr: 0x1B938, symBinAddr: 0x10001EAAC, symSize: 0x38 }
  - { offsetInCU: 0x3911C, offset: 0x3911C, size: 0x8, addend: 0x0, symName: __ZNSt3__19allocatorINS_9sub_matchIPKcEEE9constructB8ue170006IS4_JS4_EEEvPT_DpOT0_, symObjAddr: 0x1B970, symBinAddr: 0x10001EAE4, symSize: 0x30 }
  - { offsetInCU: 0x39178, offset: 0x39178, size: 0x8, addend: 0x0, symName: __ZNSt3__119__to_address_helperINS_16reverse_iteratorIPNS_9sub_matchIPKcEEEEvE6__callB8ue170006ERKS7_, symObjAddr: 0x1B9A0, symBinAddr: 0x10001EB14, symSize: 0x38 }
  - { offsetInCU: 0x3919B, offset: 0x3919B, size: 0x8, addend: 0x0, symName: __ZNKSt3__116reverse_iteratorIPNS_9sub_matchIPKcEEEptB8ue170006Ev, symObjAddr: 0x1B9D8, symBinAddr: 0x10001EB4C, symSize: 0x24 }
  - { offsetInCU: 0x391C1, offset: 0x391C1, size: 0x8, addend: 0x0, symName: __ZNSt3__128__exception_guard_exceptionsINS_29_AllocatorDestroyRangeReverseINS_9allocatorINS_9sub_matchIPKcEEEENS_16reverse_iteratorIPS6_EEEEED2B8ue170006Ev, symObjAddr: 0x1B9FC, symBinAddr: 0x10001EB70, symSize: 0x50 }
  - { offsetInCU: 0x391EB, offset: 0x391EB, size: 0x8, addend: 0x0, symName: __ZNKSt3__129_AllocatorDestroyRangeReverseINS_9allocatorINS_9sub_matchIPKcEEEENS_16reverse_iteratorIPS5_EEEclB8ue170006Ev, symObjAddr: 0x1BA4C, symBinAddr: 0x10001EBC0, symSize: 0xB4 }
  - { offsetInCU: 0x39212, offset: 0x39212, size: 0x8, addend: 0x0, symName: __ZNSt3__116reverse_iteratorINS0_IPNS_9sub_matchIPKcEEEEEC1B8ue170006ES6_, symObjAddr: 0x1BB70, symBinAddr: 0x10001ECE4, symSize: 0x3C }
  - { offsetInCU: 0x3924A, offset: 0x3924A, size: 0x8, addend: 0x0, symName: __ZNSt3__116reverse_iteratorINS0_IPNS_9sub_matchIPKcEEEEEppB8ue170006Ev, symObjAddr: 0x1BC30, symBinAddr: 0x10001EDA4, symSize: 0x30 }
  - { offsetInCU: 0x39270, offset: 0x39270, size: 0x8, addend: 0x0, symName: __ZNKSt3__116reverse_iteratorINS0_IPNS_9sub_matchIPKcEEEEE4baseB8ue170006Ev, symObjAddr: 0x1BC60, symBinAddr: 0x10001EDD4, symSize: 0x24 }
  - { offsetInCU: 0x3929C, offset: 0x3929C, size: 0x8, addend: 0x0, symName: __ZNSt3__119__to_address_helperINS_16reverse_iteratorINS1_IPNS_9sub_matchIPKcEEEEEEvE6__callB8ue170006ERKS8_, symObjAddr: 0x1BC84, symBinAddr: 0x10001EDF8, symSize: 0x38 }
  - { offsetInCU: 0x392BF, offset: 0x392BF, size: 0x8, addend: 0x0, symName: __ZNKSt3__116reverse_iteratorINS0_IPNS_9sub_matchIPKcEEEEEptB8ue170006Ev, symObjAddr: 0x1BCBC, symBinAddr: 0x10001EE30, symSize: 0x24 }
  - { offsetInCU: 0x392E5, offset: 0x392E5, size: 0x8, addend: 0x0, symName: __ZNKSt3__116reverse_iteratorINS0_IPNS_9sub_matchIPKcEEEEEdeB8ue170006Ev, symObjAddr: 0x1BCE0, symBinAddr: 0x10001EE54, symSize: 0x34 }
  - { offsetInCU: 0x39319, offset: 0x39319, size: 0x8, addend: 0x0, symName: __ZNSt3__116reverse_iteratorIPNS_9sub_matchIPKcEEEmmB8ue170006Ev, symObjAddr: 0x1BD14, symBinAddr: 0x10001EE88, symSize: 0x20 }
  - { offsetInCU: 0x3933F, offset: 0x3933F, size: 0x8, addend: 0x0, symName: __ZNSt3__116reverse_iteratorINS0_IPNS_9sub_matchIPKcEEEEEC2B8ue170006ES6_, symObjAddr: 0x1BD34, symBinAddr: 0x10001EEA8, symSize: 0x2C }
  - { offsetInCU: 0x39377, offset: 0x39377, size: 0x8, addend: 0x0, symName: __ZNSt3__116reverse_iteratorIPNS_9sub_matchIPKcEEEC2B8ue170006ES5_, symObjAddr: 0x1BD60, symBinAddr: 0x10001EED4, symSize: 0x28 }
  - { offsetInCU: 0x393AF, offset: 0x393AF, size: 0x8, addend: 0x0, symName: __ZNSt3__114__split_bufferINS_9sub_matchIPKcEERNS_9allocatorIS4_EEED2Ev, symObjAddr: 0x1BD88, symBinAddr: 0x10001EEFC, symSize: 0x8C }
  - { offsetInCU: 0x393DB, offset: 0x393DB, size: 0x8, addend: 0x0, symName: __ZNSt3__114__split_bufferINS_9sub_matchIPKcEERNS_9allocatorIS4_EEE5clearB8ue170006Ev, symObjAddr: 0x1BE14, symBinAddr: 0x10001EF88, symSize: 0x28 }
  - { offsetInCU: 0x39401, offset: 0x39401, size: 0x8, addend: 0x0, symName: __ZNKSt3__114__split_bufferINS_9sub_matchIPKcEERNS_9allocatorIS4_EEE8capacityB8ue170006Ev, symObjAddr: 0x1BE3C, symBinAddr: 0x10001EFB0, symSize: 0x40 }
  - { offsetInCU: 0x39427, offset: 0x39427, size: 0x8, addend: 0x0, symName: __ZNSt3__114__split_bufferINS_9sub_matchIPKcEERNS_9allocatorIS4_EEE17__destruct_at_endB8ue170006EPS4_, symObjAddr: 0x1BE7C, symBinAddr: 0x10001EFF0, symSize: 0x2C }
  - { offsetInCU: 0x3945B, offset: 0x3945B, size: 0x8, addend: 0x0, symName: __ZNSt3__114__split_bufferINS_9sub_matchIPKcEERNS_9allocatorIS4_EEE17__destruct_at_endB8ue170006EPS4_NS_17integral_constantIbLb0EEE, symObjAddr: 0x1BEA8, symBinAddr: 0x10001F01C, symSize: 0x80 }
  - { offsetInCU: 0x3949B, offset: 0x3949B, size: 0x8, addend: 0x0, symName: __ZNKSt3__114__split_bufferINS_9sub_matchIPKcEERNS_9allocatorIS4_EEE9__end_capB8ue170006Ev, symObjAddr: 0x1BF28, symBinAddr: 0x10001F09C, symSize: 0x28 }
  - { offsetInCU: 0x394C1, offset: 0x394C1, size: 0x8, addend: 0x0, symName: __ZNKSt3__117__compressed_pairIPNS_9sub_matchIPKcEERNS_9allocatorIS4_EEE5firstB8ue170006Ev, symObjAddr: 0x1BF50, symBinAddr: 0x10001F0C4, symSize: 0x24 }
  - { offsetInCU: 0x394E7, offset: 0x394E7, size: 0x8, addend: 0x0, symName: __ZNSt3__16vectorINS_4pairImPKcEENS_9allocatorIS4_EEE8__appendEm, symObjAddr: 0x1BF74, symBinAddr: 0x10001F0E8, symSize: 0x108 }
  - { offsetInCU: 0x39542, offset: 0x39542, size: 0x8, addend: 0x0, symName: __ZNSt3__16vectorINS_4pairImPKcEENS_9allocatorIS4_EEE17__destruct_at_endB8ue170006EPS4_, symObjAddr: 0x1C07C, symBinAddr: 0x10001F1F0, symSize: 0x4C }
  - { offsetInCU: 0x39586, offset: 0x39586, size: 0x8, addend: 0x0, symName: __ZNSt3__16vectorINS_4pairImPKcEENS_9allocatorIS4_EEE18__construct_at_endEm, symObjAddr: 0x1C0C8, symBinAddr: 0x10001F23C, symSize: 0xC8 }
  - { offsetInCU: 0x395F8, offset: 0x395F8, size: 0x8, addend: 0x0, symName: __ZNKSt3__16vectorINS_4pairImPKcEENS_9allocatorIS4_EEE11__recommendB8ue170006Em, symObjAddr: 0x1C190, symBinAddr: 0x10001F304, symSize: 0xB4 }
  - { offsetInCU: 0x3964D, offset: 0x3964D, size: 0x8, addend: 0x0, symName: __ZNSt3__114__split_bufferINS_4pairImPKcEERNS_9allocatorIS4_EEEC1EmmS7_, symObjAddr: 0x1C244, symBinAddr: 0x10001F3B8, symSize: 0x44 }
  - { offsetInCU: 0x396A3, offset: 0x396A3, size: 0x8, addend: 0x0, symName: __ZNSt3__114__split_bufferINS_4pairImPKcEERNS_9allocatorIS4_EEE18__construct_at_endEm, symObjAddr: 0x1C288, symBinAddr: 0x10001F3FC, symSize: 0xB4 }
  - { offsetInCU: 0x396E8, offset: 0x396E8, size: 0x8, addend: 0x0, symName: __ZNSt3__114__split_bufferINS_4pairImPKcEERNS_9allocatorIS4_EEED1Ev, symObjAddr: 0x1C44C, symBinAddr: 0x10001F5C0, symSize: 0x2C }
  - { offsetInCU: 0x3972F, offset: 0x3972F, size: 0x8, addend: 0x0, symName: __ZNSt3__16vectorINS_4pairImPKcEENS_9allocatorIS4_EEE21_ConstructTransactionC1B8ue170006ERS7_m, symObjAddr: 0x1C478, symBinAddr: 0x10001F5EC, symSize: 0x3C }
  - { offsetInCU: 0x39777, offset: 0x39777, size: 0x8, addend: 0x0, symName: __ZNSt3__116allocator_traitsINS_9allocatorINS_4pairImPKcEEEEE9constructB8ue170006IS5_JEvEEvRS6_PT_DpOT0_, symObjAddr: 0x1C4B4, symBinAddr: 0x10001F628, symSize: 0x2C }
  - { offsetInCU: 0x397B9, offset: 0x397B9, size: 0x8, addend: 0x0, symName: __ZNSt3__16vectorINS_4pairImPKcEENS_9allocatorIS4_EEE21_ConstructTransactionD1B8ue170006Ev, symObjAddr: 0x1C4E0, symBinAddr: 0x10001F654, symSize: 0x2C }
  - { offsetInCU: 0x397E3, offset: 0x397E3, size: 0x8, addend: 0x0, symName: __ZNSt3__16vectorINS_4pairImPKcEENS_9allocatorIS4_EEE21_ConstructTransactionC2B8ue170006ERS7_m, symObjAddr: 0x1C50C, symBinAddr: 0x10001F680, symSize: 0x44 }
  - { offsetInCU: 0x3982B, offset: 0x3982B, size: 0x8, addend: 0x0, symName: __ZNSt3__19allocatorINS_4pairImPKcEEE9constructB8ue170006IS4_JEEEvPT_DpOT0_, symObjAddr: 0x1C550, symBinAddr: 0x10001F6C4, symSize: 0x28 }
  - { offsetInCU: 0x3986D, offset: 0x3986D, size: 0x8, addend: 0x0, symName: __ZNSt3__14pairImPKcEC1B8ue170006ILb1ELPv0EEEv, symObjAddr: 0x1C578, symBinAddr: 0x10001F6EC, symSize: 0x2C }
  - { offsetInCU: 0x398A7, offset: 0x398A7, size: 0x8, addend: 0x0, symName: __ZNSt3__14pairImPKcEC2B8ue170006ILb1ELPv0EEEv, symObjAddr: 0x1C5A4, symBinAddr: 0x10001F718, symSize: 0x1C }
  - { offsetInCU: 0x398E1, offset: 0x398E1, size: 0x8, addend: 0x0, symName: __ZNSt3__16vectorINS_4pairImPKcEENS_9allocatorIS4_EEE21_ConstructTransactionD2B8ue170006Ev, symObjAddr: 0x1C5C0, symBinAddr: 0x10001F734, symSize: 0x20 }
  - { offsetInCU: 0x3990B, offset: 0x3990B, size: 0x8, addend: 0x0, symName: __ZNKSt3__16vectorINS_4pairImPKcEENS_9allocatorIS4_EEE8max_sizeEv, symObjAddr: 0x1C5E0, symBinAddr: 0x10001F754, symSize: 0x60 }
  - { offsetInCU: 0x39933, offset: 0x39933, size: 0x8, addend: 0x0, symName: __ZNKSt3__16vectorINS_4pairImPKcEENS_9allocatorIS4_EEE20__throw_length_errorB8ue170006Ev, symObjAddr: 0x1C640, symBinAddr: 0x10001F7B4, symSize: 0x1C }
  - { offsetInCU: 0x39964, offset: 0x39964, size: 0x8, addend: 0x0, symName: __ZNSt3__116allocator_traitsINS_9allocatorINS_4pairImPKcEEEEE8max_sizeB8ue170006IS6_vEEmRKS6_, symObjAddr: 0x1C65C, symBinAddr: 0x10001F7D0, symSize: 0x24 }
  - { offsetInCU: 0x39992, offset: 0x39992, size: 0x8, addend: 0x0, symName: __ZNKSt3__16vectorINS_4pairImPKcEENS_9allocatorIS4_EEE7__allocB8ue170006Ev, symObjAddr: 0x1C680, symBinAddr: 0x10001F7F4, symSize: 0x28 }
  - { offsetInCU: 0x399B8, offset: 0x399B8, size: 0x8, addend: 0x0, symName: __ZNKSt3__19allocatorINS_4pairImPKcEEE8max_sizeB8ue170006Ev, symObjAddr: 0x1C6A8, symBinAddr: 0x10001F81C, symSize: 0x14 }
  - { offsetInCU: 0x399DE, offset: 0x399DE, size: 0x8, addend: 0x0, symName: __ZNKSt3__117__compressed_pairIPNS_4pairImPKcEENS_9allocatorIS4_EEE6secondB8ue170006Ev, symObjAddr: 0x1C6BC, symBinAddr: 0x10001F830, symSize: 0x24 }
  - { offsetInCU: 0x39A04, offset: 0x39A04, size: 0x8, addend: 0x0, symName: __ZNKSt3__122__compressed_pair_elemINS_9allocatorINS_4pairImPKcEEEELi1ELb1EE5__getB8ue170006Ev, symObjAddr: 0x1C6E0, symBinAddr: 0x10001F854, symSize: 0x14 }
  - { offsetInCU: 0x39A2A, offset: 0x39A2A, size: 0x8, addend: 0x0, symName: __ZNSt3__114__split_bufferINS_4pairImPKcEERNS_9allocatorIS4_EEEC2EmmS7_, symObjAddr: 0x1C6F4, symBinAddr: 0x10001F868, symSize: 0xD4 }
  - { offsetInCU: 0x39A9D, offset: 0x39A9D, size: 0x8, addend: 0x0, symName: __ZNSt3__117__compressed_pairIPNS_4pairImPKcEERNS_9allocatorIS4_EEEC1B8ue170006IDnS8_EEOT_OT0_, symObjAddr: 0x1C7C8, symBinAddr: 0x10001F93C, symSize: 0x3C }
  - { offsetInCU: 0x39AF5, offset: 0x39AF5, size: 0x8, addend: 0x0, symName: __ZNSt3__114__split_bufferINS_4pairImPKcEERNS_9allocatorIS4_EEE7__allocB8ue170006Ev, symObjAddr: 0x1C844, symBinAddr: 0x10001F9B8, symSize: 0x28 }
  - { offsetInCU: 0x39B1B, offset: 0x39B1B, size: 0x8, addend: 0x0, symName: __ZNSt3__114__split_bufferINS_4pairImPKcEERNS_9allocatorIS4_EEE9__end_capB8ue170006Ev, symObjAddr: 0x1C86C, symBinAddr: 0x10001F9E0, symSize: 0x28 }
  - { offsetInCU: 0x39B41, offset: 0x39B41, size: 0x8, addend: 0x0, symName: __ZNSt3__117__compressed_pairIPNS_4pairImPKcEERNS_9allocatorIS4_EEEC2B8ue170006IDnS8_EEOT_OT0_, symObjAddr: 0x1C894, symBinAddr: 0x10001FA08, symSize: 0x48 }
  - { offsetInCU: 0x39B99, offset: 0x39B99, size: 0x8, addend: 0x0, symName: __ZNSt3__122__compressed_pair_elemIRNS_9allocatorINS_4pairImPKcEEEELi1ELb0EEC2B8ue170006IS7_vEEOT_, symObjAddr: 0x1C8DC, symBinAddr: 0x10001FA50, symSize: 0x20 }
  - { offsetInCU: 0x39BDB, offset: 0x39BDB, size: 0x8, addend: 0x0, symName: __ZNSt3__19allocatorINS_4pairImPKcEEE8allocateB8ue170006Em, symObjAddr: 0x1C8FC, symBinAddr: 0x10001FA70, symSize: 0x58 }
  - { offsetInCU: 0x39C0F, offset: 0x39C0F, size: 0x8, addend: 0x0, symName: __ZNSt3__117__compressed_pairIPNS_4pairImPKcEERNS_9allocatorIS4_EEE6secondB8ue170006Ev, symObjAddr: 0x1C954, symBinAddr: 0x10001FAC8, symSize: 0x28 }
  - { offsetInCU: 0x39C35, offset: 0x39C35, size: 0x8, addend: 0x0, symName: __ZNSt3__122__compressed_pair_elemIRNS_9allocatorINS_4pairImPKcEEEELi1ELb0EE5__getB8ue170006Ev, symObjAddr: 0x1C97C, symBinAddr: 0x10001FAF0, symSize: 0x18 }
  - { offsetInCU: 0x39C5B, offset: 0x39C5B, size: 0x8, addend: 0x0, symName: __ZNSt3__117__compressed_pairIPNS_4pairImPKcEERNS_9allocatorIS4_EEE5firstB8ue170006Ev, symObjAddr: 0x1C994, symBinAddr: 0x10001FB08, symSize: 0x24 }
  - { offsetInCU: 0x39C8B, offset: 0x39C8B, size: 0x8, addend: 0x0, symName: __ZNSt3__114__split_bufferINS_4pairImPKcEERNS_9allocatorIS4_EEE21_ConstructTransactionC1B8ue170006EPPS4_m, symObjAddr: 0x1C9B8, symBinAddr: 0x10001FB2C, symSize: 0x3C }
  - { offsetInCU: 0x39CD1, offset: 0x39CD1, size: 0x8, addend: 0x0, symName: __ZNSt3__114__split_bufferINS_4pairImPKcEERNS_9allocatorIS4_EEE21_ConstructTransactionD1B8ue170006Ev, symObjAddr: 0x1C9F4, symBinAddr: 0x10001FB68, symSize: 0x2C }
  - { offsetInCU: 0x39CFB, offset: 0x39CFB, size: 0x8, addend: 0x0, symName: __ZNSt3__114__split_bufferINS_4pairImPKcEERNS_9allocatorIS4_EEE21_ConstructTransactionC2B8ue170006EPPS4_m, symObjAddr: 0x1CA20, symBinAddr: 0x10001FB94, symSize: 0x44 }
  - { offsetInCU: 0x39D41, offset: 0x39D41, size: 0x8, addend: 0x0, symName: __ZNSt3__114__split_bufferINS_4pairImPKcEERNS_9allocatorIS4_EEE21_ConstructTransactionD2B8ue170006Ev, symObjAddr: 0x1CA64, symBinAddr: 0x10001FBD8, symSize: 0x20 }
  - { offsetInCU: 0x39D6B, offset: 0x39D6B, size: 0x8, addend: 0x0, symName: __ZNSt3__116reverse_iteratorIPNS_4pairImPKcEEEC1B8ue170006ES5_, symObjAddr: 0x1CBB0, symBinAddr: 0x10001FD24, symSize: 0x34 }
  - { offsetInCU: 0x39DA3, offset: 0x39DA3, size: 0x8, addend: 0x0, symName: __ZNKSt3__116reverse_iteratorIPNS_4pairImPKcEEE4baseB8ue170006Ev, symObjAddr: 0x1CBE4, symBinAddr: 0x10001FD58, symSize: 0x18 }
  - { offsetInCU: 0x39DC9, offset: 0x39DC9, size: 0x8, addend: 0x0, symName: __ZNKSt3__16vectorINS_4pairImPKcEENS_9allocatorIS4_EEE14__annotate_newB8ue170006Em, symObjAddr: 0x1CC38, symBinAddr: 0x10001FDAC, symSize: 0xAC }
  - { offsetInCU: 0x39DFE, offset: 0x39DFE, size: 0x8, addend: 0x0, symName: __ZNSt3__129_AllocatorDestroyRangeReverseINS_9allocatorINS_4pairImPKcEEEENS_16reverse_iteratorIPS5_EEEC1B8ue170006ERS6_RS9_SC_, symObjAddr: 0x1CD30, symBinAddr: 0x10001FEA4, symSize: 0x44 }
  - { offsetInCU: 0x39E55, offset: 0x39E55, size: 0x8, addend: 0x0, symName: __ZNSt3__116allocator_traitsINS_9allocatorINS_4pairImPKcEEEEE9constructB8ue170006IS5_JS5_EvEEvRS6_PT_DpOT0_, symObjAddr: 0x1CDBC, symBinAddr: 0x10001FF30, symSize: 0x34 }
  - { offsetInCU: 0x39EAC, offset: 0x39EAC, size: 0x8, addend: 0x0, symName: __ZNKSt3__116reverse_iteratorIPNS_4pairImPKcEEEdeB8ue170006Ev, symObjAddr: 0x1CE14, symBinAddr: 0x10001FF88, symSize: 0x28 }
  - { offsetInCU: 0x39EE0, offset: 0x39EE0, size: 0x8, addend: 0x0, symName: __ZNSt3__116reverse_iteratorIPNS_4pairImPKcEEEppB8ue170006Ev, symObjAddr: 0x1CE3C, symBinAddr: 0x10001FFB0, symSize: 0x20 }
  - { offsetInCU: 0x39F06, offset: 0x39F06, size: 0x8, addend: 0x0, symName: __ZNSt3__128__exception_guard_exceptionsINS_29_AllocatorDestroyRangeReverseINS_9allocatorINS_4pairImPKcEEEENS_16reverse_iteratorIPS6_EEEEE10__completeB8ue170006Ev, symObjAddr: 0x1CE5C, symBinAddr: 0x10001FFD0, symSize: 0x1C }
  - { offsetInCU: 0x39F2C, offset: 0x39F2C, size: 0x8, addend: 0x0, symName: __ZNSt3__128__exception_guard_exceptionsINS_29_AllocatorDestroyRangeReverseINS_9allocatorINS_4pairImPKcEEEENS_16reverse_iteratorIPS6_EEEEED1B8ue170006Ev, symObjAddr: 0x1CE78, symBinAddr: 0x10001FFEC, symSize: 0x2C }
  - { offsetInCU: 0x39F56, offset: 0x39F56, size: 0x8, addend: 0x0, symName: __ZNSt3__128__exception_guard_exceptionsINS_29_AllocatorDestroyRangeReverseINS_9allocatorINS_4pairImPKcEEEENS_16reverse_iteratorIPS6_EEEEEC1B8ue170006ESB_, symObjAddr: 0x1CEA4, symBinAddr: 0x100020018, symSize: 0x34 }
  - { offsetInCU: 0x39F8F, offset: 0x39F8F, size: 0x8, addend: 0x0, symName: __ZNSt3__128__exception_guard_exceptionsINS_29_AllocatorDestroyRangeReverseINS_9allocatorINS_4pairImPKcEEEENS_16reverse_iteratorIPS6_EEEEEC2B8ue170006ESB_, symObjAddr: 0x1CED8, symBinAddr: 0x10002004C, symSize: 0x30 }
  - { offsetInCU: 0x39FC8, offset: 0x39FC8, size: 0x8, addend: 0x0, symName: __ZNSt3__129_AllocatorDestroyRangeReverseINS_9allocatorINS_4pairImPKcEEEENS_16reverse_iteratorIPS5_EEEC2B8ue170006ERS6_RS9_SC_, symObjAddr: 0x1CF08, symBinAddr: 0x10002007C, symSize: 0x38 }
  - { offsetInCU: 0x3A01F, offset: 0x3A01F, size: 0x8, addend: 0x0, symName: __ZNSt3__19allocatorINS_4pairImPKcEEE9constructB8ue170006IS4_JS4_EEEvPT_DpOT0_, symObjAddr: 0x1CF40, symBinAddr: 0x1000200B4, symSize: 0x28 }
  - { offsetInCU: 0x3A07B, offset: 0x3A07B, size: 0x8, addend: 0x0, symName: __ZNSt3__119__to_address_helperINS_16reverse_iteratorIPNS_4pairImPKcEEEEvE6__callB8ue170006ERKS7_, symObjAddr: 0x1CF68, symBinAddr: 0x1000200DC, symSize: 0x38 }
  - { offsetInCU: 0x3A09E, offset: 0x3A09E, size: 0x8, addend: 0x0, symName: __ZNKSt3__116reverse_iteratorIPNS_4pairImPKcEEEptB8ue170006Ev, symObjAddr: 0x1CFA0, symBinAddr: 0x100020114, symSize: 0x24 }
  - { offsetInCU: 0x3A0C4, offset: 0x3A0C4, size: 0x8, addend: 0x0, symName: __ZNSt3__128__exception_guard_exceptionsINS_29_AllocatorDestroyRangeReverseINS_9allocatorINS_4pairImPKcEEEENS_16reverse_iteratorIPS6_EEEEED2B8ue170006Ev, symObjAddr: 0x1CFC4, symBinAddr: 0x100020138, symSize: 0x50 }
  - { offsetInCU: 0x3A0EE, offset: 0x3A0EE, size: 0x8, addend: 0x0, symName: __ZNKSt3__129_AllocatorDestroyRangeReverseINS_9allocatorINS_4pairImPKcEEEENS_16reverse_iteratorIPS5_EEEclB8ue170006Ev, symObjAddr: 0x1D014, symBinAddr: 0x100020188, symSize: 0xB4 }
  - { offsetInCU: 0x3A115, offset: 0x3A115, size: 0x8, addend: 0x0, symName: __ZNSt3__116reverse_iteratorINS0_IPNS_4pairImPKcEEEEEC1B8ue170006ES6_, symObjAddr: 0x1D138, symBinAddr: 0x1000202AC, symSize: 0x3C }
  - { offsetInCU: 0x3A14D, offset: 0x3A14D, size: 0x8, addend: 0x0, symName: __ZNSt3__116reverse_iteratorINS0_IPNS_4pairImPKcEEEEEppB8ue170006Ev, symObjAddr: 0x1D1F8, symBinAddr: 0x10002036C, symSize: 0x30 }
  - { offsetInCU: 0x3A173, offset: 0x3A173, size: 0x8, addend: 0x0, symName: __ZNKSt3__116reverse_iteratorINS0_IPNS_4pairImPKcEEEEE4baseB8ue170006Ev, symObjAddr: 0x1D228, symBinAddr: 0x10002039C, symSize: 0x24 }
  - { offsetInCU: 0x3A19F, offset: 0x3A19F, size: 0x8, addend: 0x0, symName: __ZNSt3__119__to_address_helperINS_16reverse_iteratorINS1_IPNS_4pairImPKcEEEEEEvE6__callB8ue170006ERKS8_, symObjAddr: 0x1D24C, symBinAddr: 0x1000203C0, symSize: 0x38 }
  - { offsetInCU: 0x3A1C2, offset: 0x3A1C2, size: 0x8, addend: 0x0, symName: __ZNKSt3__116reverse_iteratorINS0_IPNS_4pairImPKcEEEEEptB8ue170006Ev, symObjAddr: 0x1D284, symBinAddr: 0x1000203F8, symSize: 0x24 }
  - { offsetInCU: 0x3A1E8, offset: 0x3A1E8, size: 0x8, addend: 0x0, symName: __ZNKSt3__116reverse_iteratorINS0_IPNS_4pairImPKcEEEEEdeB8ue170006Ev, symObjAddr: 0x1D2A8, symBinAddr: 0x10002041C, symSize: 0x34 }
  - { offsetInCU: 0x3A21C, offset: 0x3A21C, size: 0x8, addend: 0x0, symName: __ZNSt3__116reverse_iteratorIPNS_4pairImPKcEEEmmB8ue170006Ev, symObjAddr: 0x1D2DC, symBinAddr: 0x100020450, symSize: 0x20 }
  - { offsetInCU: 0x3A242, offset: 0x3A242, size: 0x8, addend: 0x0, symName: __ZNSt3__116reverse_iteratorINS0_IPNS_4pairImPKcEEEEEC2B8ue170006ES6_, symObjAddr: 0x1D2FC, symBinAddr: 0x100020470, symSize: 0x2C }
  - { offsetInCU: 0x3A27A, offset: 0x3A27A, size: 0x8, addend: 0x0, symName: __ZNSt3__116reverse_iteratorIPNS_4pairImPKcEEEC2B8ue170006ES5_, symObjAddr: 0x1D328, symBinAddr: 0x10002049C, symSize: 0x28 }
  - { offsetInCU: 0x3A2B2, offset: 0x3A2B2, size: 0x8, addend: 0x0, symName: __ZNSt3__114__split_bufferINS_4pairImPKcEERNS_9allocatorIS4_EEED2Ev, symObjAddr: 0x1D350, symBinAddr: 0x1000204C4, symSize: 0x8C }
  - { offsetInCU: 0x3A2DE, offset: 0x3A2DE, size: 0x8, addend: 0x0, symName: __ZNSt3__114__split_bufferINS_4pairImPKcEERNS_9allocatorIS4_EEE5clearB8ue170006Ev, symObjAddr: 0x1D3DC, symBinAddr: 0x100020550, symSize: 0x28 }
  - { offsetInCU: 0x3A304, offset: 0x3A304, size: 0x8, addend: 0x0, symName: __ZNKSt3__114__split_bufferINS_4pairImPKcEERNS_9allocatorIS4_EEE8capacityB8ue170006Ev, symObjAddr: 0x1D404, symBinAddr: 0x100020578, symSize: 0x40 }
  - { offsetInCU: 0x3A32A, offset: 0x3A32A, size: 0x8, addend: 0x0, symName: __ZNSt3__114__split_bufferINS_4pairImPKcEERNS_9allocatorIS4_EEE17__destruct_at_endB8ue170006EPS4_, symObjAddr: 0x1D444, symBinAddr: 0x1000205B8, symSize: 0x2C }
  - { offsetInCU: 0x3A35E, offset: 0x3A35E, size: 0x8, addend: 0x0, symName: __ZNSt3__114__split_bufferINS_4pairImPKcEERNS_9allocatorIS4_EEE17__destruct_at_endB8ue170006EPS4_NS_17integral_constantIbLb0EEE, symObjAddr: 0x1D470, symBinAddr: 0x1000205E4, symSize: 0x80 }
  - { offsetInCU: 0x3A39E, offset: 0x3A39E, size: 0x8, addend: 0x0, symName: __ZNKSt3__114__split_bufferINS_4pairImPKcEERNS_9allocatorIS4_EEE9__end_capB8ue170006Ev, symObjAddr: 0x1D4F0, symBinAddr: 0x100020664, symSize: 0x28 }
  - { offsetInCU: 0x3A3C4, offset: 0x3A3C4, size: 0x8, addend: 0x0, symName: __ZNKSt3__117__compressed_pairIPNS_4pairImPKcEERNS_9allocatorIS4_EEE5firstB8ue170006Ev, symObjAddr: 0x1D518, symBinAddr: 0x10002068C, symSize: 0x24 }
  - { offsetInCU: 0x3A3EA, offset: 0x3A3EA, size: 0x8, addend: 0x0, symName: __ZNKSt3__16vectorINS_4pairImPKcEENS_9allocatorIS4_EEE17__annotate_shrinkB8ue170006Em, symObjAddr: 0x1D53C, symBinAddr: 0x1000206B0, symSize: 0xB4 }
  - { offsetInCU: 0x3A41F, offset: 0x3A41F, size: 0x8, addend: 0x0, symName: __ZNSt3__16vectorINS_7__stateIcEENS_9allocatorIS2_EEE17__destruct_at_endB8ue170006EPS2_, symObjAddr: 0x1D5F0, symBinAddr: 0x100020764, symSize: 0x4C }
  - { offsetInCU: 0x3A463, offset: 0x3A463, size: 0x8, addend: 0x0, symName: __ZNSt3__16vectorINS_7__stateIcEENS_9allocatorIS2_EEE22__base_destruct_at_endB8ue170006EPS2_, symObjAddr: 0x1D63C, symBinAddr: 0x1000207B0, symSize: 0x8C }
  - { offsetInCU: 0x3A4A7, offset: 0x3A4A7, size: 0x8, addend: 0x0, symName: __ZNKSt3__16vectorINS_7__stateIcEENS_9allocatorIS2_EEE17__annotate_shrinkB8ue170006Em, symObjAddr: 0x1D6C8, symBinAddr: 0x10002083C, symSize: 0xD0 }
  - { offsetInCU: 0x3A4DC, offset: 0x3A4DC, size: 0x8, addend: 0x0, symName: __ZNSt3__17__stateIcEC2ERKS1_, symObjAddr: 0x1D798, symBinAddr: 0x10002090C, symSize: 0xA4 }
  - { offsetInCU: 0x3A512, offset: 0x3A512, size: 0x8, addend: 0x0, symName: __ZNSt3__16vectorINS_9sub_matchIPKcEENS_9allocatorIS4_EEEC1ERKS7_, symObjAddr: 0x1D83C, symBinAddr: 0x1000209B0, symSize: 0x34 }
  - { offsetInCU: 0x3A54D, offset: 0x3A54D, size: 0x8, addend: 0x0, symName: __ZNSt3__16vectorINS_4pairImPKcEENS_9allocatorIS4_EEEC1ERKS7_, symObjAddr: 0x1D870, symBinAddr: 0x1000209E4, symSize: 0x34 }
  - { offsetInCU: 0x3A588, offset: 0x3A588, size: 0x8, addend: 0x0, symName: __ZNSt3__16vectorINS_9sub_matchIPKcEENS_9allocatorIS4_EEEC2ERKS7_, symObjAddr: 0x1D8A4, symBinAddr: 0x100020A18, symSize: 0x94 }
  - { offsetInCU: 0x3A5C3, offset: 0x3A5C3, size: 0x8, addend: 0x0, symName: __ZNSt3__116allocator_traitsINS_9allocatorINS_9sub_matchIPKcEEEEE37select_on_container_copy_constructionB8ue170006IS6_vvEES6_RKS6_, symObjAddr: 0x1D938, symBinAddr: 0x100020AAC, symSize: 0x10 }
  - { offsetInCU: 0x3A5F2, offset: 0x3A5F2, size: 0x8, addend: 0x0, symName: __ZNSt3__16vectorINS_9sub_matchIPKcEENS_9allocatorIS4_EEE16__init_with_sizeB8ue170006IPS4_S9_EEvT_T0_m, symObjAddr: 0x1D948, symBinAddr: 0x100020ABC, symSize: 0xB8 }
  - { offsetInCU: 0x3A666, offset: 0x3A666, size: 0x8, addend: 0x0, symName: __ZNSt3__16vectorINS_9sub_matchIPKcEENS_9allocatorIS4_EEE18__construct_at_endIPS4_S9_EEvT_T0_m, symObjAddr: 0x1DA40, symBinAddr: 0x100020BB4, symSize: 0x8C }
  - { offsetInCU: 0x3A6DC, offset: 0x3A6DC, size: 0x8, addend: 0x0, symName: __ZNSt3__128__exception_guard_exceptionsINS_6vectorINS_9sub_matchIPKcEENS_9allocatorIS5_EEE16__destroy_vectorEE10__completeB8ue170006Ev, symObjAddr: 0x1DACC, symBinAddr: 0x100020C40, symSize: 0x1C }
  - { offsetInCU: 0x3A702, offset: 0x3A702, size: 0x8, addend: 0x0, symName: __ZNSt3__128__exception_guard_exceptionsINS_6vectorINS_9sub_matchIPKcEENS_9allocatorIS5_EEE16__destroy_vectorEED1B8ue170006Ev, symObjAddr: 0x1DAE8, symBinAddr: 0x100020C5C, symSize: 0x2C }
  - { offsetInCU: 0x3A72C, offset: 0x3A72C, size: 0x8, addend: 0x0, symName: __ZNSt3__128__exception_guard_exceptionsINS_6vectorINS_9sub_matchIPKcEENS_9allocatorIS5_EEE16__destroy_vectorEEC1B8ue170006ES9_, symObjAddr: 0x1DB14, symBinAddr: 0x100020C88, symSize: 0x34 }
  - { offsetInCU: 0x3A764, offset: 0x3A764, size: 0x8, addend: 0x0, symName: __ZNSt3__128__exception_guard_exceptionsINS_6vectorINS_9sub_matchIPKcEENS_9allocatorIS5_EEE16__destroy_vectorEEC2B8ue170006ES9_, symObjAddr: 0x1DB48, symBinAddr: 0x100020CBC, symSize: 0x24 }
  - { offsetInCU: 0x3A7BE, offset: 0x3A7BE, size: 0x8, addend: 0x0, symName: __ZNSt3__14pairIPNS_9sub_matchIPKcEES5_EC1B8ue170006IS5_S5_LPv0EEEOT_OT0_, symObjAddr: 0x1DDD8, symBinAddr: 0x100020F4C, symSize: 0x3C }
  - { offsetInCU: 0x3A81C, offset: 0x3A81C, size: 0x8, addend: 0x0, symName: __ZNSt3__14pairIPNS_9sub_matchIPKcEES5_EC2B8ue170006IS5_S5_LPv0EEEOT_OT0_, symObjAddr: 0x1DE14, symBinAddr: 0x100020F88, symSize: 0x34 }
  - { offsetInCU: 0x3A87A, offset: 0x3A87A, size: 0x8, addend: 0x0, symName: __ZNSt3__129_AllocatorDestroyRangeReverseINS_9allocatorINS_9sub_matchIPKcEEEEPS5_EC1B8ue170006ERS6_RS7_SA_, symObjAddr: 0x1DE94, symBinAddr: 0x100021008, symSize: 0x44 }
  - { offsetInCU: 0x3A8D1, offset: 0x3A8D1, size: 0x8, addend: 0x0, symName: __ZNSt3__116allocator_traitsINS_9allocatorINS_9sub_matchIPKcEEEEE9constructB8ue170006IS5_JRS5_EvEEvRS6_PT_DpOT0_, symObjAddr: 0x1DED8, symBinAddr: 0x10002104C, symSize: 0x34 }
  - { offsetInCU: 0x3A928, offset: 0x3A928, size: 0x8, addend: 0x0, symName: __ZNSt3__128__exception_guard_exceptionsINS_29_AllocatorDestroyRangeReverseINS_9allocatorINS_9sub_matchIPKcEEEEPS6_EEE10__completeB8ue170006Ev, symObjAddr: 0x1DF0C, symBinAddr: 0x100021080, symSize: 0x1C }
  - { offsetInCU: 0x3A94E, offset: 0x3A94E, size: 0x8, addend: 0x0, symName: __ZNSt3__128__exception_guard_exceptionsINS_29_AllocatorDestroyRangeReverseINS_9allocatorINS_9sub_matchIPKcEEEEPS6_EEED1B8ue170006Ev, symObjAddr: 0x1DF28, symBinAddr: 0x10002109C, symSize: 0x2C }
  - { offsetInCU: 0x3A978, offset: 0x3A978, size: 0x8, addend: 0x0, symName: __ZNSt3__128__exception_guard_exceptionsINS_29_AllocatorDestroyRangeReverseINS_9allocatorINS_9sub_matchIPKcEEEEPS6_EEEC1B8ue170006ES9_, symObjAddr: 0x1DF54, symBinAddr: 0x1000210C8, symSize: 0x34 }
  - { offsetInCU: 0x3A9B1, offset: 0x3A9B1, size: 0x8, addend: 0x0, symName: __ZNSt3__128__exception_guard_exceptionsINS_29_AllocatorDestroyRangeReverseINS_9allocatorINS_9sub_matchIPKcEEEEPS6_EEEC2B8ue170006ES9_, symObjAddr: 0x1DF88, symBinAddr: 0x1000210FC, symSize: 0x30 }
  - { offsetInCU: 0x3A9EA, offset: 0x3A9EA, size: 0x8, addend: 0x0, symName: __ZNSt3__129_AllocatorDestroyRangeReverseINS_9allocatorINS_9sub_matchIPKcEEEEPS5_EC2B8ue170006ERS6_RS7_SA_, symObjAddr: 0x1DFB8, symBinAddr: 0x10002112C, symSize: 0x38 }
  - { offsetInCU: 0x3AA41, offset: 0x3AA41, size: 0x8, addend: 0x0, symName: __ZNSt3__19allocatorINS_9sub_matchIPKcEEE9constructB8ue170006IS4_JRS4_EEEvPT_DpOT0_, symObjAddr: 0x1DFF0, symBinAddr: 0x100021164, symSize: 0x30 }
  - { offsetInCU: 0x3AA97, offset: 0x3AA97, size: 0x8, addend: 0x0, symName: __ZNSt3__128__exception_guard_exceptionsINS_29_AllocatorDestroyRangeReverseINS_9allocatorINS_9sub_matchIPKcEEEEPS6_EEED2B8ue170006Ev, symObjAddr: 0x1E020, symBinAddr: 0x100021194, symSize: 0x50 }
  - { offsetInCU: 0x3AAC1, offset: 0x3AAC1, size: 0x8, addend: 0x0, symName: __ZNKSt3__129_AllocatorDestroyRangeReverseINS_9allocatorINS_9sub_matchIPKcEEEEPS5_EclB8ue170006Ev, symObjAddr: 0x1E070, symBinAddr: 0x1000211E4, symSize: 0x68 }
  - { offsetInCU: 0x3AAE7, offset: 0x3AAE7, size: 0x8, addend: 0x0, symName: __ZNSt3__118__unwrap_iter_implIPNS_9sub_matchIPKcEELb1EE8__unwrapB8ue170006ES5_, symObjAddr: 0x1E148, symBinAddr: 0x1000212BC, symSize: 0x24 }
  - { offsetInCU: 0x3AB0A, offset: 0x3AB0A, size: 0x8, addend: 0x0, symName: __ZNSt3__118__unwrap_iter_implIPNS_9sub_matchIPKcEELb1EE8__rewrapB8ue170006ES5_S5_, symObjAddr: 0x1E16C, symBinAddr: 0x1000212E0, symSize: 0x58 }
  - { offsetInCU: 0x3AB3B, offset: 0x3AB3B, size: 0x8, addend: 0x0, symName: __ZNSt3__128__exception_guard_exceptionsINS_6vectorINS_9sub_matchIPKcEENS_9allocatorIS5_EEE16__destroy_vectorEED2B8ue170006Ev, symObjAddr: 0x1E1C4, symBinAddr: 0x100021338, symSize: 0x48 }
  - { offsetInCU: 0x3AB65, offset: 0x3AB65, size: 0x8, addend: 0x0, symName: __ZNSt3__16vectorINS_4pairImPKcEENS_9allocatorIS4_EEEC2ERKS7_, symObjAddr: 0x1E20C, symBinAddr: 0x100021380, symSize: 0x94 }
  - { offsetInCU: 0x3ABA0, offset: 0x3ABA0, size: 0x8, addend: 0x0, symName: __ZNSt3__116allocator_traitsINS_9allocatorINS_4pairImPKcEEEEE37select_on_container_copy_constructionB8ue170006IS6_vvEES6_RKS6_, symObjAddr: 0x1E2A0, symBinAddr: 0x100021414, symSize: 0x10 }
  - { offsetInCU: 0x3ABCF, offset: 0x3ABCF, size: 0x8, addend: 0x0, symName: __ZNSt3__16vectorINS_4pairImPKcEENS_9allocatorIS4_EEE16__init_with_sizeB8ue170006IPS4_S9_EEvT_T0_m, symObjAddr: 0x1E2B0, symBinAddr: 0x100021424, symSize: 0xB8 }
  - { offsetInCU: 0x3AC43, offset: 0x3AC43, size: 0x8, addend: 0x0, symName: __ZNSt3__16vectorINS_4pairImPKcEENS_9allocatorIS4_EEE11__vallocateB8ue170006Em, symObjAddr: 0x1E3A8, symBinAddr: 0x10002151C, symSize: 0xAC }
  - { offsetInCU: 0x3AC87, offset: 0x3AC87, size: 0x8, addend: 0x0, symName: __ZNSt3__16vectorINS_4pairImPKcEENS_9allocatorIS4_EEE18__construct_at_endIPS4_S9_EEvT_T0_m, symObjAddr: 0x1E454, symBinAddr: 0x1000215C8, symSize: 0x8C }
  - { offsetInCU: 0x3ACFD, offset: 0x3ACFD, size: 0x8, addend: 0x0, symName: __ZNSt3__128__exception_guard_exceptionsINS_6vectorINS_4pairImPKcEENS_9allocatorIS5_EEE16__destroy_vectorEE10__completeB8ue170006Ev, symObjAddr: 0x1E4E0, symBinAddr: 0x100021654, symSize: 0x1C }
  - { offsetInCU: 0x3AD23, offset: 0x3AD23, size: 0x8, addend: 0x0, symName: __ZNSt3__128__exception_guard_exceptionsINS_6vectorINS_4pairImPKcEENS_9allocatorIS5_EEE16__destroy_vectorEED1B8ue170006Ev, symObjAddr: 0x1E4FC, symBinAddr: 0x100021670, symSize: 0x2C }
  - { offsetInCU: 0x3AD4D, offset: 0x3AD4D, size: 0x8, addend: 0x0, symName: __ZNSt3__128__exception_guard_exceptionsINS_6vectorINS_4pairImPKcEENS_9allocatorIS5_EEE16__destroy_vectorEEC1B8ue170006ES9_, symObjAddr: 0x1E528, symBinAddr: 0x10002169C, symSize: 0x34 }
  - { offsetInCU: 0x3AD85, offset: 0x3AD85, size: 0x8, addend: 0x0, symName: __ZNSt3__128__exception_guard_exceptionsINS_6vectorINS_4pairImPKcEENS_9allocatorIS5_EEE16__destroy_vectorEEC2B8ue170006ES9_, symObjAddr: 0x1E55C, symBinAddr: 0x1000216D0, symSize: 0x24 }
  - { offsetInCU: 0x3ADDF, offset: 0x3ADDF, size: 0x8, addend: 0x0, symName: __ZNSt3__14pairIPNS0_ImPKcEES4_EC1B8ue170006IS4_S4_LPv0EEEOT_OT0_, symObjAddr: 0x1E7EC, symBinAddr: 0x100021960, symSize: 0x3C }
  - { offsetInCU: 0x3AE3D, offset: 0x3AE3D, size: 0x8, addend: 0x0, symName: __ZNSt3__14pairIPNS0_ImPKcEES4_EC2B8ue170006IS4_S4_LPv0EEEOT_OT0_, symObjAddr: 0x1E828, symBinAddr: 0x10002199C, symSize: 0x34 }
  - { offsetInCU: 0x3AE9B, offset: 0x3AE9B, size: 0x8, addend: 0x0, symName: __ZNSt3__129_AllocatorDestroyRangeReverseINS_9allocatorINS_4pairImPKcEEEEPS5_EC1B8ue170006ERS6_RS7_SA_, symObjAddr: 0x1E8A8, symBinAddr: 0x100021A1C, symSize: 0x44 }
  - { offsetInCU: 0x3AEF2, offset: 0x3AEF2, size: 0x8, addend: 0x0, symName: __ZNSt3__116allocator_traitsINS_9allocatorINS_4pairImPKcEEEEE9constructB8ue170006IS5_JRS5_EvEEvRS6_PT_DpOT0_, symObjAddr: 0x1E8EC, symBinAddr: 0x100021A60, symSize: 0x34 }
  - { offsetInCU: 0x3AF49, offset: 0x3AF49, size: 0x8, addend: 0x0, symName: __ZNSt3__128__exception_guard_exceptionsINS_29_AllocatorDestroyRangeReverseINS_9allocatorINS_4pairImPKcEEEEPS6_EEE10__completeB8ue170006Ev, symObjAddr: 0x1E920, symBinAddr: 0x100021A94, symSize: 0x1C }
  - { offsetInCU: 0x3AF6F, offset: 0x3AF6F, size: 0x8, addend: 0x0, symName: __ZNSt3__128__exception_guard_exceptionsINS_29_AllocatorDestroyRangeReverseINS_9allocatorINS_4pairImPKcEEEEPS6_EEED1B8ue170006Ev, symObjAddr: 0x1E93C, symBinAddr: 0x100021AB0, symSize: 0x2C }
  - { offsetInCU: 0x3AF99, offset: 0x3AF99, size: 0x8, addend: 0x0, symName: __ZNSt3__128__exception_guard_exceptionsINS_29_AllocatorDestroyRangeReverseINS_9allocatorINS_4pairImPKcEEEEPS6_EEEC1B8ue170006ES9_, symObjAddr: 0x1E968, symBinAddr: 0x100021ADC, symSize: 0x34 }
  - { offsetInCU: 0x3AFD2, offset: 0x3AFD2, size: 0x8, addend: 0x0, symName: __ZNSt3__128__exception_guard_exceptionsINS_29_AllocatorDestroyRangeReverseINS_9allocatorINS_4pairImPKcEEEEPS6_EEEC2B8ue170006ES9_, symObjAddr: 0x1E99C, symBinAddr: 0x100021B10, symSize: 0x30 }
  - { offsetInCU: 0x3B00B, offset: 0x3B00B, size: 0x8, addend: 0x0, symName: __ZNSt3__129_AllocatorDestroyRangeReverseINS_9allocatorINS_4pairImPKcEEEEPS5_EC2B8ue170006ERS6_RS7_SA_, symObjAddr: 0x1E9CC, symBinAddr: 0x100021B40, symSize: 0x38 }
  - { offsetInCU: 0x3B062, offset: 0x3B062, size: 0x8, addend: 0x0, symName: __ZNSt3__19allocatorINS_4pairImPKcEEE9constructB8ue170006IS4_JRS4_EEEvPT_DpOT0_, symObjAddr: 0x1EA04, symBinAddr: 0x100021B78, symSize: 0x28 }
  - { offsetInCU: 0x3B0B8, offset: 0x3B0B8, size: 0x8, addend: 0x0, symName: __ZNSt3__128__exception_guard_exceptionsINS_29_AllocatorDestroyRangeReverseINS_9allocatorINS_4pairImPKcEEEEPS6_EEED2B8ue170006Ev, symObjAddr: 0x1EA2C, symBinAddr: 0x100021BA0, symSize: 0x50 }
  - { offsetInCU: 0x3B0E2, offset: 0x3B0E2, size: 0x8, addend: 0x0, symName: __ZNKSt3__129_AllocatorDestroyRangeReverseINS_9allocatorINS_4pairImPKcEEEEPS5_EclB8ue170006Ev, symObjAddr: 0x1EA7C, symBinAddr: 0x100021BF0, symSize: 0x68 }
  - { offsetInCU: 0x3B108, offset: 0x3B108, size: 0x8, addend: 0x0, symName: __ZNSt3__118__unwrap_iter_implIPNS_4pairImPKcEELb1EE8__unwrapB8ue170006ES5_, symObjAddr: 0x1EB54, symBinAddr: 0x100021CC8, symSize: 0x24 }
  - { offsetInCU: 0x3B12B, offset: 0x3B12B, size: 0x8, addend: 0x0, symName: __ZNSt3__118__unwrap_iter_implIPNS_4pairImPKcEELb1EE8__rewrapB8ue170006ES5_S5_, symObjAddr: 0x1EB78, symBinAddr: 0x100021CEC, symSize: 0x50 }
  - { offsetInCU: 0x3B15C, offset: 0x3B15C, size: 0x8, addend: 0x0, symName: __ZNSt3__128__exception_guard_exceptionsINS_6vectorINS_4pairImPKcEENS_9allocatorIS5_EEE16__destroy_vectorEED2B8ue170006Ev, symObjAddr: 0x1EBC8, symBinAddr: 0x100021D3C, symSize: 0x48 }
  - { offsetInCU: 0x3B186, offset: 0x3B186, size: 0x8, addend: 0x0, symName: __ZNSt3__16vectorINS_7__stateIcEENS_9allocatorIS2_EEED2B8ue170006Ev, symObjAddr: 0x1EC10, symBinAddr: 0x100021D84, symSize: 0x44 }
  - { offsetInCU: 0x3B1B0, offset: 0x3B1B0, size: 0x8, addend: 0x0, symName: __ZNSt3__16vectorINS_7__stateIcEENS_9allocatorIS2_EEE16__destroy_vectorC1B8ue170006ERS5_, symObjAddr: 0x1EC54, symBinAddr: 0x100021DC8, symSize: 0x34 }
  - { offsetInCU: 0x3B1E9, offset: 0x3B1E9, size: 0x8, addend: 0x0, symName: __ZNSt3__16vectorINS_7__stateIcEENS_9allocatorIS2_EEE16__destroy_vectorclB8ue170006Ev, symObjAddr: 0x1EC88, symBinAddr: 0x100021DFC, symSize: 0x90 }
  - { offsetInCU: 0x3B20F, offset: 0x3B20F, size: 0x8, addend: 0x0, symName: __ZNSt3__16vectorINS_7__stateIcEENS_9allocatorIS2_EEE16__destroy_vectorC2B8ue170006ERS5_, symObjAddr: 0x1ED18, symBinAddr: 0x100021E8C, symSize: 0x20 }
  - { offsetInCU: 0x3B248, offset: 0x3B248, size: 0x8, addend: 0x0, symName: __ZNSt3__16vectorINS_7__stateIcEENS_9allocatorIS2_EEE7__clearB8ue170006Ev, symObjAddr: 0x1ED38, symBinAddr: 0x100021EAC, symSize: 0x28 }
  - { offsetInCU: 0x3B26E, offset: 0x3B26E, size: 0x8, addend: 0x0, symName: __ZNSt3__14pairIPKcS2_EaSB8ue170006ERKS3_, symObjAddr: 0x1ED60, symBinAddr: 0x100021ED4, symSize: 0x30 }
  - { offsetInCU: 0x3B2A3, offset: 0x3B2A3, size: 0x8, addend: 0x0, symName: __ZNSt3__113match_resultsIPKcNS_9allocatorINS_9sub_matchIS2_EEEEED2Ev, symObjAddr: 0x1ED90, symBinAddr: 0x100021F04, symSize: 0x2C }
  - { offsetInCU: 0x3B2D0, offset: 0x3B2D0, size: 0x8, addend: 0x0, symName: __ZNSt3__111basic_regexIcNS_12regex_traitsIcEEE28__push_match_any_but_newlineEv, symObjAddr: 0x1EDBC, symBinAddr: 0x100021F30, symSize: 0xA0 }
  - { offsetInCU: 0x3B2F8, offset: 0x3B2F8, size: 0x8, addend: 0x0, symName: __ZNSt3__111basic_regexIcNS_12regex_traitsIcEEE19__parse_atom_escapeIPKcEET_S7_S7_, symObjAddr: 0x1EE5C, symBinAddr: 0x100021FD0, symSize: 0x144 }
  - { offsetInCU: 0x3B373, offset: 0x3B373, size: 0x8, addend: 0x0, symName: __ZNSt3__111basic_regexIcNS_12regex_traitsIcEEE26__parse_bracket_expressionIPKcEET_S7_S7_, symObjAddr: 0x1EFA0, symBinAddr: 0x100022114, symSize: 0x1E8 }
  - { offsetInCU: 0x3B3EE, offset: 0x3B3EE, size: 0x8, addend: 0x0, symName: __ZNSt3__111basic_regexIcNS_12regex_traitsIcEEE33__push_begin_marked_subexpressionEv, symObjAddr: 0x1F188, symBinAddr: 0x1000222FC, symSize: 0xD4 }
  - { offsetInCU: 0x3B416, offset: 0x3B416, size: 0x8, addend: 0x0, symName: __ZNSt3__111basic_regexIcNS_12regex_traitsIcEEE31__push_end_marked_subexpressionEj, symObjAddr: 0x1F25C, symBinAddr: 0x1000223D0, symSize: 0xD0 }
  - { offsetInCU: 0x3B44D, offset: 0x3B44D, size: 0x8, addend: 0x0, symName: __ZNSt3__111basic_regexIcNS_12regex_traitsIcEEE25__parse_pattern_characterIPKcEET_S7_S7_, symObjAddr: 0x1F38C, symBinAddr: 0x100022500, symSize: 0xA8 }
  - { offsetInCU: 0x3B4B1, offset: 0x3B4B1, size: 0x8, addend: 0x0, symName: __ZNSt3__123__match_any_but_newlineIcEC1B8ue170006EPNS_6__nodeIcEE, symObjAddr: 0x1F59C, symBinAddr: 0x100022710, symSize: 0x34 }
  - { offsetInCU: 0x3B4EA, offset: 0x3B4EA, size: 0x8, addend: 0x0, symName: __ZNSt3__123__match_any_but_newlineIcEC2B8ue170006EPNS_6__nodeIcEE, symObjAddr: 0x1F5D0, symBinAddr: 0x100022744, symSize: 0x4C }
  - { offsetInCU: 0x3B523, offset: 0x3B523, size: 0x8, addend: 0x0, symName: __ZNSt3__123__match_any_but_newlineIcED1Ev, symObjAddr: 0x1F61C, symBinAddr: 0x100022790, symSize: 0x2C }
  - { offsetInCU: 0x3B550, offset: 0x3B550, size: 0x8, addend: 0x0, symName: __ZNSt3__123__match_any_but_newlineIcED0Ev, symObjAddr: 0x1F648, symBinAddr: 0x1000227BC, symSize: 0x30 }
  - { offsetInCU: 0x3B57D, offset: 0x3B57D, size: 0x8, addend: 0x0, symName: __ZNSt3__123__match_any_but_newlineIcED2Ev, symObjAddr: 0x1F678, symBinAddr: 0x1000227EC, symSize: 0x2C }
  - { offsetInCU: 0x3B5AA, offset: 0x3B5AA, size: 0x8, addend: 0x0, symName: __ZNSt3__111basic_regexIcNS_12regex_traitsIcEEE22__parse_decimal_escapeIPKcEET_S7_S7_, symObjAddr: 0x1F704, symBinAddr: 0x100022878, symSize: 0x1EC }
  - { offsetInCU: 0x3B616, offset: 0x3B616, size: 0x8, addend: 0x0, symName: __ZNSt3__111basic_regexIcNS_12regex_traitsIcEEE30__parse_character_class_escapeIPKcEET_S7_S7_, symObjAddr: 0x1F8F0, symBinAddr: 0x100022A64, symSize: 0x1BC }
  - { offsetInCU: 0x3B682, offset: 0x3B682, size: 0x8, addend: 0x0, symName: __ZNSt3__111basic_regexIcNS_12regex_traitsIcEEE24__parse_character_escapeIPKcEET_S7_S7_PNS_12basic_stringIcNS_11char_traitsIcEENS_9allocatorIcEEEE, symObjAddr: 0x1FB7C, symBinAddr: 0x100022CF0, symSize: 0x5D4 }
  - { offsetInCU: 0x3B71B, offset: 0x3B71B, size: 0x8, addend: 0x0, symName: __ZNSt3__111basic_regexIcNS_12regex_traitsIcEEE11__push_charEc, symObjAddr: 0x20274, symBinAddr: 0x1000233E8, symSize: 0x1D4 }
  - { offsetInCU: 0x3B752, offset: 0x3B752, size: 0x8, addend: 0x0, symName: __ZNSt3__114numeric_limitsIjE3maxB8ue170006Ev, symObjAddr: 0x20448, symBinAddr: 0x1000235BC, symSize: 0x14 }
  - { offsetInCU: 0x3B766, offset: 0x3B766, size: 0x8, addend: 0x0, symName: __ZNSt3__111basic_regexIcNS_12regex_traitsIcEEE15__push_back_refEi, symObjAddr: 0x204BC, symBinAddr: 0x100023630, symSize: 0x1D4 }
  - { offsetInCU: 0x3B79D, offset: 0x3B79D, size: 0x8, addend: 0x0, symName: __ZNKSt3__111basic_regexIcNS_12regex_traitsIcEEE5flagsB8ue170006Ev, symObjAddr: 0x20690, symBinAddr: 0x100023804, symSize: 0x18 }
  - { offsetInCU: 0x3B7E4, offset: 0x3B7E4, size: 0x8, addend: 0x0, symName: __ZNSt3__118__match_char_icaseIcNS_12regex_traitsIcEEEC1B8ue170006ERKS2_cPNS_6__nodeIcEE, symObjAddr: 0x206A8, symBinAddr: 0x10002381C, symSize: 0x44 }
  - { offsetInCU: 0x3B85C, offset: 0x3B85C, size: 0x8, addend: 0x0, symName: __ZNSt3__120__match_char_collateIcNS_12regex_traitsIcEEEC1B8ue170006ERKS2_cPNS_6__nodeIcEE, symObjAddr: 0x206EC, symBinAddr: 0x100023860, symSize: 0x44 }
  - { offsetInCU: 0x3B8D4, offset: 0x3B8D4, size: 0x8, addend: 0x0, symName: __ZNSt3__112__match_charIcEC1B8ue170006EcPNS_6__nodeIcEE, symObjAddr: 0x20730, symBinAddr: 0x1000238A4, symSize: 0x3C }
  - { offsetInCU: 0x3B91C, offset: 0x3B91C, size: 0x8, addend: 0x0, symName: __ZNSt3__118__match_char_icaseIcNS_12regex_traitsIcEEEC2B8ue170006ERKS2_cPNS_6__nodeIcEE, symObjAddr: 0x2076C, symBinAddr: 0x1000238E0, symSize: 0xB0 }
  - { offsetInCU: 0x3B973, offset: 0x3B973, size: 0x8, addend: 0x0, symName: __ZNKSt3__112regex_traitsIcE16translate_nocaseEc, symObjAddr: 0x2081C, symBinAddr: 0x100023990, symSize: 0x34 }
  - { offsetInCU: 0x3B9AA, offset: 0x3B9AA, size: 0x8, addend: 0x0, symName: __ZNSt3__118__match_char_icaseIcNS_12regex_traitsIcEEED1Ev, symObjAddr: 0x20850, symBinAddr: 0x1000239C4, symSize: 0x2C }
  - { offsetInCU: 0x3B9D7, offset: 0x3B9D7, size: 0x8, addend: 0x0, symName: __ZNSt3__118__match_char_icaseIcNS_12regex_traitsIcEEED0Ev, symObjAddr: 0x2087C, symBinAddr: 0x1000239F0, symSize: 0x30 }
  - { offsetInCU: 0x3BA04, offset: 0x3BA04, size: 0x8, addend: 0x0, symName: __ZNKSt3__118__match_char_icaseIcNS_12regex_traitsIcEEE6__execERNS_7__stateIcEE, symObjAddr: 0x208AC, symBinAddr: 0x100023A20, symSize: 0xC0 }
  - { offsetInCU: 0x3BA3B, offset: 0x3BA3B, size: 0x8, addend: 0x0, symName: __ZNKSt3__15ctypeIcE7tolowerB8ue170006Ec, symObjAddr: 0x2096C, symBinAddr: 0x100023AE0, symSize: 0x38 }
  - { offsetInCU: 0x3BA70, offset: 0x3BA70, size: 0x8, addend: 0x0, symName: __ZNSt3__118__match_char_icaseIcNS_12regex_traitsIcEEED2Ev, symObjAddr: 0x209A4, symBinAddr: 0x100023B18, symSize: 0x48 }
  - { offsetInCU: 0x3BA9D, offset: 0x3BA9D, size: 0x8, addend: 0x0, symName: __ZNSt3__120__match_char_collateIcNS_12regex_traitsIcEEEC2B8ue170006ERKS2_cPNS_6__nodeIcEE, symObjAddr: 0x209EC, symBinAddr: 0x100023B60, symSize: 0xB0 }
  - { offsetInCU: 0x3BAF4, offset: 0x3BAF4, size: 0x8, addend: 0x0, symName: __ZNKSt3__112regex_traitsIcE9translateB8ue170006Ec, symObjAddr: 0x20A9C, symBinAddr: 0x100023C10, symSize: 0x18 }
  - { offsetInCU: 0x3BB29, offset: 0x3BB29, size: 0x8, addend: 0x0, symName: __ZNSt3__120__match_char_collateIcNS_12regex_traitsIcEEED1Ev, symObjAddr: 0x20AB4, symBinAddr: 0x100023C28, symSize: 0x2C }
  - { offsetInCU: 0x3BB56, offset: 0x3BB56, size: 0x8, addend: 0x0, symName: __ZNSt3__120__match_char_collateIcNS_12regex_traitsIcEEED0Ev, symObjAddr: 0x20AE0, symBinAddr: 0x100023C54, symSize: 0x30 }
  - { offsetInCU: 0x3BB83, offset: 0x3BB83, size: 0x8, addend: 0x0, symName: __ZNKSt3__120__match_char_collateIcNS_12regex_traitsIcEEE6__execERNS_7__stateIcEE, symObjAddr: 0x20B10, symBinAddr: 0x100023C84, symSize: 0xC0 }
  - { offsetInCU: 0x3BBBA, offset: 0x3BBBA, size: 0x8, addend: 0x0, symName: __ZNSt3__120__match_char_collateIcNS_12regex_traitsIcEEED2Ev, symObjAddr: 0x20BD0, symBinAddr: 0x100023D44, symSize: 0x48 }
  - { offsetInCU: 0x3BBE7, offset: 0x3BBE7, size: 0x8, addend: 0x0, symName: __ZNSt3__112__match_charIcEC2B8ue170006EcPNS_6__nodeIcEE, symObjAddr: 0x20C18, symBinAddr: 0x100023D8C, symSize: 0x58 }
  - { offsetInCU: 0x3BC2F, offset: 0x3BC2F, size: 0x8, addend: 0x0, symName: __ZNSt3__112__match_charIcED1Ev, symObjAddr: 0x20C70, symBinAddr: 0x100023DE4, symSize: 0x2C }
  - { offsetInCU: 0x3BC5C, offset: 0x3BC5C, size: 0x8, addend: 0x0, symName: __ZNSt3__112__match_charIcED0Ev, symObjAddr: 0x20C9C, symBinAddr: 0x100023E10, symSize: 0x30 }
  - { offsetInCU: 0x3BC89, offset: 0x3BC89, size: 0x8, addend: 0x0, symName: __ZNKSt3__112__match_charIcE6__execERNS_7__stateIcEE, symObjAddr: 0x20CCC, symBinAddr: 0x100023E40, symSize: 0xB4 }
  - { offsetInCU: 0x3BCC0, offset: 0x3BCC0, size: 0x8, addend: 0x0, symName: __ZNSt3__112__match_charIcED2Ev, symObjAddr: 0x20D80, symBinAddr: 0x100023EF4, symSize: 0x2C }
  - { offsetInCU: 0x3BCED, offset: 0x3BCED, size: 0x8, addend: 0x0, symName: __ZNSt3__123__libcpp_numeric_limitsIjLb1EE3maxB8ue170006Ev, symObjAddr: 0x20DAC, symBinAddr: 0x100023F20, symSize: 0x8 }
  - { offsetInCU: 0x3BD16, offset: 0x3BD16, size: 0x8, addend: 0x0, symName: __ZNSt3__116__back_ref_icaseIcNS_12regex_traitsIcEEEC1B8ue170006ERKS2_jPNS_6__nodeIcEE, symObjAddr: 0x20DB4, symBinAddr: 0x100023F28, symSize: 0x44 }
  - { offsetInCU: 0x3BD82, offset: 0x3BD82, size: 0x8, addend: 0x0, symName: __ZNSt3__118__back_ref_collateIcNS_12regex_traitsIcEEEC1B8ue170006ERKS2_jPNS_6__nodeIcEE, symObjAddr: 0x20DF8, symBinAddr: 0x100023F6C, symSize: 0x44 }
  - { offsetInCU: 0x3BDEE, offset: 0x3BDEE, size: 0x8, addend: 0x0, symName: __ZNSt3__110__back_refIcEC1B8ue170006EjPNS_6__nodeIcEE, symObjAddr: 0x20E3C, symBinAddr: 0x100023FB0, symSize: 0x3C }
  - { offsetInCU: 0x3BE36, offset: 0x3BE36, size: 0x8, addend: 0x0, symName: __ZNSt3__116__back_ref_icaseIcNS_12regex_traitsIcEEEC2B8ue170006ERKS2_jPNS_6__nodeIcEE, symObjAddr: 0x20E78, symBinAddr: 0x100023FEC, symSize: 0x6C }
  - { offsetInCU: 0x3BE8D, offset: 0x3BE8D, size: 0x8, addend: 0x0, symName: __ZNSt3__116__back_ref_icaseIcNS_12regex_traitsIcEEED1Ev, symObjAddr: 0x20EE4, symBinAddr: 0x100024058, symSize: 0x2C }
  - { offsetInCU: 0x3BEBA, offset: 0x3BEBA, size: 0x8, addend: 0x0, symName: __ZNSt3__116__back_ref_icaseIcNS_12regex_traitsIcEEED0Ev, symObjAddr: 0x20F10, symBinAddr: 0x100024084, symSize: 0x30 }
  - { offsetInCU: 0x3BEE7, offset: 0x3BEE7, size: 0x8, addend: 0x0, symName: __ZNKSt3__116__back_ref_icaseIcNS_12regex_traitsIcEEE6__execERNS_7__stateIcEE, symObjAddr: 0x20F40, symBinAddr: 0x1000240B4, symSize: 0x18C }
  - { offsetInCU: 0x3BF78, offset: 0x3BF78, size: 0x8, addend: 0x0, symName: __ZNSt3__116__back_ref_icaseIcNS_12regex_traitsIcEEED2Ev, symObjAddr: 0x210CC, symBinAddr: 0x100024240, symSize: 0x48 }
  - { offsetInCU: 0x3BFA5, offset: 0x3BFA5, size: 0x8, addend: 0x0, symName: __ZNSt3__118__back_ref_collateIcNS_12regex_traitsIcEEEC2B8ue170006ERKS2_jPNS_6__nodeIcEE, symObjAddr: 0x21114, symBinAddr: 0x100024288, symSize: 0x6C }
  - { offsetInCU: 0x3BFFC, offset: 0x3BFFC, size: 0x8, addend: 0x0, symName: __ZNSt3__118__back_ref_collateIcNS_12regex_traitsIcEEED1Ev, symObjAddr: 0x21180, symBinAddr: 0x1000242F4, symSize: 0x2C }
  - { offsetInCU: 0x3C029, offset: 0x3C029, size: 0x8, addend: 0x0, symName: __ZNSt3__118__back_ref_collateIcNS_12regex_traitsIcEEED0Ev, symObjAddr: 0x211AC, symBinAddr: 0x100024320, symSize: 0x30 }
  - { offsetInCU: 0x3C056, offset: 0x3C056, size: 0x8, addend: 0x0, symName: __ZNKSt3__118__back_ref_collateIcNS_12regex_traitsIcEEE6__execERNS_7__stateIcEE, symObjAddr: 0x211DC, symBinAddr: 0x100024350, symSize: 0x18C }
  - { offsetInCU: 0x3C0E7, offset: 0x3C0E7, size: 0x8, addend: 0x0, symName: __ZNSt3__118__back_ref_collateIcNS_12regex_traitsIcEEED2Ev, symObjAddr: 0x21368, symBinAddr: 0x1000244DC, symSize: 0x48 }
  - { offsetInCU: 0x3C114, offset: 0x3C114, size: 0x8, addend: 0x0, symName: __ZNSt3__110__back_refIcEC2B8ue170006EjPNS_6__nodeIcEE, symObjAddr: 0x213B0, symBinAddr: 0x100024524, symSize: 0x58 }
  - { offsetInCU: 0x3C15C, offset: 0x3C15C, size: 0x8, addend: 0x0, symName: __ZNSt3__110__back_refIcED1Ev, symObjAddr: 0x21408, symBinAddr: 0x10002457C, symSize: 0x2C }
  - { offsetInCU: 0x3C189, offset: 0x3C189, size: 0x8, addend: 0x0, symName: __ZNSt3__110__back_refIcED0Ev, symObjAddr: 0x21434, symBinAddr: 0x1000245A8, symSize: 0x30 }
  - { offsetInCU: 0x3C1B6, offset: 0x3C1B6, size: 0x8, addend: 0x0, symName: __ZNKSt3__110__back_refIcE6__execERNS_7__stateIcEE, symObjAddr: 0x21464, symBinAddr: 0x1000245D8, symSize: 0x150 }
  - { offsetInCU: 0x3C219, offset: 0x3C219, size: 0x8, addend: 0x0, symName: __ZNSt3__110__back_refIcED2Ev, symObjAddr: 0x215B4, symBinAddr: 0x100024728, symSize: 0x2C }
  - { offsetInCU: 0x3C246, offset: 0x3C246, size: 0x8, addend: 0x0, symName: __ZNSt3__111basic_regexIcNS_12regex_traitsIcEEE21__start_matching_listEb, symObjAddr: 0x21704, symBinAddr: 0x100024878, symSize: 0x114 }
  - { offsetInCU: 0x3C28C, offset: 0x3C28C, size: 0x8, addend: 0x0, symName: __ZNSt3__120__bracket_expressionIcNS_12regex_traitsIcEEE11__add_classB8ue170006Ej, symObjAddr: 0x21818, symBinAddr: 0x10002498C, symSize: 0x28 }
  - { offsetInCU: 0x3C2C1, offset: 0x3C2C1, size: 0x8, addend: 0x0, symName: __ZNSt3__120__bracket_expressionIcNS_12regex_traitsIcEEE10__add_charB8ue170006Ec, symObjAddr: 0x21840, symBinAddr: 0x1000249B4, symSize: 0xBC }
  - { offsetInCU: 0x3C2F6, offset: 0x3C2F6, size: 0x8, addend: 0x0, symName: __ZNSt3__120__bracket_expressionIcNS_12regex_traitsIcEEEC1B8ue170006ERKS2_PNS_6__nodeIcEEbbb, symObjAddr: 0x218FC, symBinAddr: 0x100024A70, symSize: 0x70 }
  - { offsetInCU: 0x3C36B, offset: 0x3C36B, size: 0x8, addend: 0x0, symName: __ZNSt3__120__bracket_expressionIcNS_12regex_traitsIcEEEC2B8ue170006ERKS2_PNS_6__nodeIcEEbbb, symObjAddr: 0x2196C, symBinAddr: 0x100024AE0, symSize: 0x1CC }
  - { offsetInCU: 0x3C3E0, offset: 0x3C3E0, size: 0x8, addend: 0x0, symName: __ZNSt3__16vectorIcNS_9allocatorIcEEEC1B8ue170006Ev, symObjAddr: 0x21B38, symBinAddr: 0x100024CAC, symSize: 0x2C }
  - { offsetInCU: 0x3C40A, offset: 0x3C40A, size: 0x8, addend: 0x0, symName: __ZNSt3__16vectorINS_4pairINS_12basic_stringIcNS_11char_traitsIcEENS_9allocatorIcEEEES7_EENS5_IS8_EEEC1B8ue170006Ev, symObjAddr: 0x21B64, symBinAddr: 0x100024CD8, symSize: 0x2C }
  - { offsetInCU: 0x3C434, offset: 0x3C434, size: 0x8, addend: 0x0, symName: __ZNSt3__16vectorINS_4pairIccEENS_9allocatorIS2_EEEC1B8ue170006Ev, symObjAddr: 0x21B90, symBinAddr: 0x100024D04, symSize: 0x2C }
  - { offsetInCU: 0x3C45E, offset: 0x3C45E, size: 0x8, addend: 0x0, symName: __ZNKSt3__112regex_traitsIcE6getlocB8ue170006Ev, symObjAddr: 0x21BBC, symBinAddr: 0x100024D30, symSize: 0x38 }
  - { offsetInCU: 0x3C484, offset: 0x3C484, size: 0x8, addend: 0x0, symName: __ZNSt3__16vectorINS_4pairIccEENS_9allocatorIS2_EEED1B8ue170006Ev, symObjAddr: 0x21BF4, symBinAddr: 0x100024D68, symSize: 0x2C }
  - { offsetInCU: 0x3C4AE, offset: 0x3C4AE, size: 0x8, addend: 0x0, symName: __ZNSt3__16vectorINS_4pairINS_12basic_stringIcNS_11char_traitsIcEENS_9allocatorIcEEEES7_EENS5_IS8_EEED1B8ue170006Ev, symObjAddr: 0x21C20, symBinAddr: 0x100024D94, symSize: 0x2C }
  - { offsetInCU: 0x3C4D8, offset: 0x3C4D8, size: 0x8, addend: 0x0, symName: __ZNSt3__16vectorIcNS_9allocatorIcEEED1B8ue170006Ev, symObjAddr: 0x21C4C, symBinAddr: 0x100024DC0, symSize: 0x2C }
  - { offsetInCU: 0x3C502, offset: 0x3C502, size: 0x8, addend: 0x0, symName: __ZNSt3__120__bracket_expressionIcNS_12regex_traitsIcEEED1Ev, symObjAddr: 0x21C78, symBinAddr: 0x100024DEC, symSize: 0x2C }
  - { offsetInCU: 0x3C52F, offset: 0x3C52F, size: 0x8, addend: 0x0, symName: __ZNSt3__120__bracket_expressionIcNS_12regex_traitsIcEEED0Ev, symObjAddr: 0x21CA4, symBinAddr: 0x100024E18, symSize: 0x30 }
  - { offsetInCU: 0x3C55C, offset: 0x3C55C, size: 0x8, addend: 0x0, symName: __ZNKSt3__120__bracket_expressionIcNS_12regex_traitsIcEEE6__execERNS_7__stateIcEE, symObjAddr: 0x21CD4, symBinAddr: 0x100024E48, symSize: 0x8D4 }
  - { offsetInCU: 0x3C754, offset: 0x3C754, size: 0x8, addend: 0x0, symName: __ZNSt3__16vectorIcNS_9allocatorIcEEEC2B8ue170006Ev, symObjAddr: 0x225A8, symBinAddr: 0x10002571C, symSize: 0x4C }
  - { offsetInCU: 0x3C77E, offset: 0x3C77E, size: 0x8, addend: 0x0, symName: __ZNSt3__117__compressed_pairIPcNS_9allocatorIcEEEC1B8ue170006IDnNS_18__default_init_tagEEEOT_OT0_, symObjAddr: 0x225F4, symBinAddr: 0x100025768, symSize: 0x3C }
  - { offsetInCU: 0x3C7D6, offset: 0x3C7D6, size: 0x8, addend: 0x0, symName: __ZNSt3__117__compressed_pairIPcNS_9allocatorIcEEEC2B8ue170006IDnNS_18__default_init_tagEEEOT_OT0_, symObjAddr: 0x22630, symBinAddr: 0x1000257A4, symSize: 0x40 }
  - { offsetInCU: 0x3C82E, offset: 0x3C82E, size: 0x8, addend: 0x0, symName: __ZNSt3__122__compressed_pair_elemIPcLi0ELb0EEC2B8ue170006IDnvEEOT_, symObjAddr: 0x22670, symBinAddr: 0x1000257E4, symSize: 0x1C }
  - { offsetInCU: 0x3C870, offset: 0x3C870, size: 0x8, addend: 0x0, symName: __ZNSt3__16vectorINS_4pairINS_12basic_stringIcNS_11char_traitsIcEENS_9allocatorIcEEEES7_EENS5_IS8_EEEC2B8ue170006Ev, symObjAddr: 0x2268C, symBinAddr: 0x100025800, symSize: 0x4C }
  - { offsetInCU: 0x3C89A, offset: 0x3C89A, size: 0x8, addend: 0x0, symName: __ZNSt3__117__compressed_pairIPNS_4pairINS_12basic_stringIcNS_11char_traitsIcEENS_9allocatorIcEEEES7_EENS5_IS8_EEEC1B8ue170006IDnNS_18__default_init_tagEEEOT_OT0_, symObjAddr: 0x226D8, symBinAddr: 0x10002584C, symSize: 0x3C }
  - { offsetInCU: 0x3C8F2, offset: 0x3C8F2, size: 0x8, addend: 0x0, symName: __ZNSt3__117__compressed_pairIPNS_4pairINS_12basic_stringIcNS_11char_traitsIcEENS_9allocatorIcEEEES7_EENS5_IS8_EEEC2B8ue170006IDnNS_18__default_init_tagEEEOT_OT0_, symObjAddr: 0x22714, symBinAddr: 0x100025888, symSize: 0x40 }
  - { offsetInCU: 0x3C94A, offset: 0x3C94A, size: 0x8, addend: 0x0, symName: __ZNSt3__122__compressed_pair_elemIPNS_4pairINS_12basic_stringIcNS_11char_traitsIcEENS_9allocatorIcEEEES7_EELi0ELb0EEC2B8ue170006IDnvEEOT_, symObjAddr: 0x22754, symBinAddr: 0x1000258C8, symSize: 0x1C }
  - { offsetInCU: 0x3C98C, offset: 0x3C98C, size: 0x8, addend: 0x0, symName: __ZNSt3__122__compressed_pair_elemINS_9allocatorINS_4pairINS_12basic_stringIcNS_11char_traitsIcEENS1_IcEEEES7_EEEELi1ELb1EEC2B8ue170006ENS_18__default_init_tagE, symObjAddr: 0x22770, symBinAddr: 0x1000258E4, symSize: 0x2C }
  - { offsetInCU: 0x3C9C0, offset: 0x3C9C0, size: 0x8, addend: 0x0, symName: __ZNSt3__19allocatorINS_4pairINS_12basic_stringIcNS_11char_traitsIcEENS0_IcEEEES6_EEEC2B8ue170006Ev, symObjAddr: 0x2279C, symBinAddr: 0x100025910, symSize: 0x2C }
  - { offsetInCU: 0x3C9EA, offset: 0x3C9EA, size: 0x8, addend: 0x0, symName: __ZNSt3__116__non_trivial_ifILb1ENS_9allocatorINS_4pairINS_12basic_stringIcNS_11char_traitsIcEENS1_IcEEEES7_EEEEEC2B8ue170006Ev, symObjAddr: 0x227C8, symBinAddr: 0x10002593C, symSize: 0x14 }
  - { offsetInCU: 0x3CA14, offset: 0x3CA14, size: 0x8, addend: 0x0, symName: __ZNSt3__16vectorINS_4pairIccEENS_9allocatorIS2_EEEC2B8ue170006Ev, symObjAddr: 0x227DC, symBinAddr: 0x100025950, symSize: 0x4C }
  - { offsetInCU: 0x3CA3E, offset: 0x3CA3E, size: 0x8, addend: 0x0, symName: __ZNSt3__117__compressed_pairIPNS_4pairIccEENS_9allocatorIS2_EEEC1B8ue170006IDnNS_18__default_init_tagEEEOT_OT0_, symObjAddr: 0x22828, symBinAddr: 0x10002599C, symSize: 0x3C }
  - { offsetInCU: 0x3CA96, offset: 0x3CA96, size: 0x8, addend: 0x0, symName: __ZNSt3__117__compressed_pairIPNS_4pairIccEENS_9allocatorIS2_EEEC2B8ue170006IDnNS_18__default_init_tagEEEOT_OT0_, symObjAddr: 0x22864, symBinAddr: 0x1000259D8, symSize: 0x40 }
  - { offsetInCU: 0x3CAEE, offset: 0x3CAEE, size: 0x8, addend: 0x0, symName: __ZNSt3__122__compressed_pair_elemIPNS_4pairIccEELi0ELb0EEC2B8ue170006IDnvEEOT_, symObjAddr: 0x228A4, symBinAddr: 0x100025A18, symSize: 0x1C }
  - { offsetInCU: 0x3CB30, offset: 0x3CB30, size: 0x8, addend: 0x0, symName: __ZNSt3__122__compressed_pair_elemINS_9allocatorINS_4pairIccEEEELi1ELb1EEC2B8ue170006ENS_18__default_init_tagE, symObjAddr: 0x228C0, symBinAddr: 0x100025A34, symSize: 0x2C }
  - { offsetInCU: 0x3CB64, offset: 0x3CB64, size: 0x8, addend: 0x0, symName: __ZNSt3__19allocatorINS_4pairIccEEEC2B8ue170006Ev, symObjAddr: 0x228EC, symBinAddr: 0x100025A60, symSize: 0x2C }
  - { offsetInCU: 0x3CB8E, offset: 0x3CB8E, size: 0x8, addend: 0x0, symName: __ZNSt3__116__non_trivial_ifILb1ENS_9allocatorINS_4pairIccEEEEEC2B8ue170006Ev, symObjAddr: 0x22918, symBinAddr: 0x100025A8C, symSize: 0x14 }
  - { offsetInCU: 0x3CBB8, offset: 0x3CBB8, size: 0x8, addend: 0x0, symName: __ZNSt3__16vectorINS_4pairIccEENS_9allocatorIS2_EEED2B8ue170006Ev, symObjAddr: 0x2292C, symBinAddr: 0x100025AA0, symSize: 0x44 }
  - { offsetInCU: 0x3CBE2, offset: 0x3CBE2, size: 0x8, addend: 0x0, symName: __ZNSt3__16vectorINS_4pairIccEENS_9allocatorIS2_EEE16__destroy_vectorC1B8ue170006ERS5_, symObjAddr: 0x22970, symBinAddr: 0x100025AE4, symSize: 0x34 }
  - { offsetInCU: 0x3CC1B, offset: 0x3CC1B, size: 0x8, addend: 0x0, symName: __ZNSt3__16vectorINS_4pairIccEENS_9allocatorIS2_EEE16__destroy_vectorclB8ue170006Ev, symObjAddr: 0x229A4, symBinAddr: 0x100025B18, symSize: 0x90 }
  - { offsetInCU: 0x3CC41, offset: 0x3CC41, size: 0x8, addend: 0x0, symName: __ZNSt3__16vectorINS_4pairIccEENS_9allocatorIS2_EEE16__destroy_vectorC2B8ue170006ERS5_, symObjAddr: 0x22A34, symBinAddr: 0x100025BA8, symSize: 0x20 }
  - { offsetInCU: 0x3CC7A, offset: 0x3CC7A, size: 0x8, addend: 0x0, symName: __ZNSt3__16vectorINS_4pairIccEENS_9allocatorIS2_EEE7__clearB8ue170006Ev, symObjAddr: 0x22A54, symBinAddr: 0x100025BC8, symSize: 0x28 }
  - { offsetInCU: 0x3CCA0, offset: 0x3CCA0, size: 0x8, addend: 0x0, symName: __ZNKSt3__16vectorINS_4pairIccEENS_9allocatorIS2_EEE17__annotate_deleteB8ue170006Ev, symObjAddr: 0x22A7C, symBinAddr: 0x100025BF0, symSize: 0xB8 }
  - { offsetInCU: 0x3CCC6, offset: 0x3CCC6, size: 0x8, addend: 0x0, symName: __ZNSt3__116allocator_traitsINS_9allocatorINS_4pairIccEEEEE10deallocateB8ue170006ERS4_PS3_m, symObjAddr: 0x22B34, symBinAddr: 0x100025CA8, symSize: 0x34 }
  - { offsetInCU: 0x3CD08, offset: 0x3CD08, size: 0x8, addend: 0x0, symName: __ZNSt3__16vectorINS_4pairIccEENS_9allocatorIS2_EEE7__allocB8ue170006Ev, symObjAddr: 0x22B68, symBinAddr: 0x100025CDC, symSize: 0x28 }
  - { offsetInCU: 0x3CD2E, offset: 0x3CD2E, size: 0x8, addend: 0x0, symName: __ZNKSt3__16vectorINS_4pairIccEENS_9allocatorIS2_EEE8capacityB8ue170006Ev, symObjAddr: 0x22B90, symBinAddr: 0x100025D04, symSize: 0x40 }
  - { offsetInCU: 0x3CD54, offset: 0x3CD54, size: 0x8, addend: 0x0, symName: __ZNSt3__16vectorINS_4pairIccEENS_9allocatorIS2_EEE22__base_destruct_at_endB8ue170006EPS2_, symObjAddr: 0x22BD0, symBinAddr: 0x100025D44, symSize: 0x8C }
  - { offsetInCU: 0x3CD98, offset: 0x3CD98, size: 0x8, addend: 0x0, symName: __ZNSt3__116allocator_traitsINS_9allocatorINS_4pairIccEEEEE7destroyB8ue170006IS3_vEEvRS4_PT_, symObjAddr: 0x22C5C, symBinAddr: 0x100025DD0, symSize: 0x2C }
  - { offsetInCU: 0x3CDD5, offset: 0x3CDD5, size: 0x8, addend: 0x0, symName: __ZNSt3__19allocatorINS_4pairIccEEE7destroyB8ue170006EPS2_, symObjAddr: 0x22C9C, symBinAddr: 0x100025E10, symSize: 0x14 }
  - { offsetInCU: 0x3CE09, offset: 0x3CE09, size: 0x8, addend: 0x0, symName: __ZNKSt3__16vectorINS_4pairIccEENS_9allocatorIS2_EEE31__annotate_contiguous_containerB8ue170006EPKvS7_S7_S7_, symObjAddr: 0x22CB0, symBinAddr: 0x100025E24, symSize: 0x20 }
  - { offsetInCU: 0x3CE5B, offset: 0x3CE5B, size: 0x8, addend: 0x0, symName: __ZNKSt3__16vectorINS_4pairIccEENS_9allocatorIS2_EEE4dataB8ue170006Ev, symObjAddr: 0x22CD0, symBinAddr: 0x100025E44, symSize: 0x28 }
  - { offsetInCU: 0x3CE81, offset: 0x3CE81, size: 0x8, addend: 0x0, symName: __ZNKSt3__16vectorINS_4pairIccEENS_9allocatorIS2_EEE4sizeB8ue170006Ev, symObjAddr: 0x22CF8, symBinAddr: 0x100025E6C, symSize: 0x28 }
  - { offsetInCU: 0x3CEA7, offset: 0x3CEA7, size: 0x8, addend: 0x0, symName: __ZNSt3__19allocatorINS_4pairIccEEE10deallocateB8ue170006EPS2_m, symObjAddr: 0x22D20, symBinAddr: 0x100025E94, symSize: 0x40 }
  - { offsetInCU: 0x3CEE9, offset: 0x3CEE9, size: 0x8, addend: 0x0, symName: __ZNSt3__117__compressed_pairIPNS_4pairIccEENS_9allocatorIS2_EEE6secondB8ue170006Ev, symObjAddr: 0x22D60, symBinAddr: 0x100025ED4, symSize: 0x24 }
  - { offsetInCU: 0x3CF0F, offset: 0x3CF0F, size: 0x8, addend: 0x0, symName: __ZNSt3__122__compressed_pair_elemINS_9allocatorINS_4pairIccEEEELi1ELb1EE5__getB8ue170006Ev, symObjAddr: 0x22D84, symBinAddr: 0x100025EF8, symSize: 0x14 }
  - { offsetInCU: 0x3CF35, offset: 0x3CF35, size: 0x8, addend: 0x0, symName: __ZNKSt3__16vectorINS_4pairIccEENS_9allocatorIS2_EEE9__end_capB8ue170006Ev, symObjAddr: 0x22D98, symBinAddr: 0x100025F0C, symSize: 0x28 }
  - { offsetInCU: 0x3CF5B, offset: 0x3CF5B, size: 0x8, addend: 0x0, symName: __ZNKSt3__117__compressed_pairIPNS_4pairIccEENS_9allocatorIS2_EEE5firstB8ue170006Ev, symObjAddr: 0x22DC0, symBinAddr: 0x100025F34, symSize: 0x24 }
  - { offsetInCU: 0x3CF81, offset: 0x3CF81, size: 0x8, addend: 0x0, symName: __ZNKSt3__122__compressed_pair_elemIPNS_4pairIccEELi0ELb0EE5__getB8ue170006Ev, symObjAddr: 0x22DE4, symBinAddr: 0x100025F58, symSize: 0x14 }
  - { offsetInCU: 0x3CFA7, offset: 0x3CFA7, size: 0x8, addend: 0x0, symName: __ZNSt3__16vectorINS_4pairINS_12basic_stringIcNS_11char_traitsIcEENS_9allocatorIcEEEES7_EENS5_IS8_EEED2B8ue170006Ev, symObjAddr: 0x22DF8, symBinAddr: 0x100025F6C, symSize: 0x44 }
  - { offsetInCU: 0x3CFD1, offset: 0x3CFD1, size: 0x8, addend: 0x0, symName: __ZNSt3__16vectorINS_4pairINS_12basic_stringIcNS_11char_traitsIcEENS_9allocatorIcEEEES7_EENS5_IS8_EEE16__destroy_vectorC1B8ue170006ERSA_, symObjAddr: 0x22E3C, symBinAddr: 0x100025FB0, symSize: 0x34 }
  - { offsetInCU: 0x3D00A, offset: 0x3D00A, size: 0x8, addend: 0x0, symName: __ZNSt3__16vectorINS_4pairINS_12basic_stringIcNS_11char_traitsIcEENS_9allocatorIcEEEES7_EENS5_IS8_EEE16__destroy_vectorclB8ue170006Ev, symObjAddr: 0x22E70, symBinAddr: 0x100025FE4, symSize: 0x90 }
  - { offsetInCU: 0x3D030, offset: 0x3D030, size: 0x8, addend: 0x0, symName: __ZNSt3__16vectorINS_4pairINS_12basic_stringIcNS_11char_traitsIcEENS_9allocatorIcEEEES7_EENS5_IS8_EEE16__destroy_vectorC2B8ue170006ERSA_, symObjAddr: 0x22F00, symBinAddr: 0x100026074, symSize: 0x20 }
  - { offsetInCU: 0x3D069, offset: 0x3D069, size: 0x8, addend: 0x0, symName: __ZNSt3__16vectorINS_4pairINS_12basic_stringIcNS_11char_traitsIcEENS_9allocatorIcEEEES7_EENS5_IS8_EEE7__clearB8ue170006Ev, symObjAddr: 0x22F20, symBinAddr: 0x100026094, symSize: 0x28 }
  - { offsetInCU: 0x3D08F, offset: 0x3D08F, size: 0x8, addend: 0x0, symName: __ZNKSt3__16vectorINS_4pairINS_12basic_stringIcNS_11char_traitsIcEENS_9allocatorIcEEEES7_EENS5_IS8_EEE17__annotate_deleteB8ue170006Ev, symObjAddr: 0x22F48, symBinAddr: 0x1000260BC, symSize: 0xD4 }
  - { offsetInCU: 0x3D0B5, offset: 0x3D0B5, size: 0x8, addend: 0x0, symName: __ZNSt3__116allocator_traitsINS_9allocatorINS_4pairINS_12basic_stringIcNS_11char_traitsIcEENS1_IcEEEES7_EEEEE10deallocateB8ue170006ERS9_PS8_m, symObjAddr: 0x2301C, symBinAddr: 0x100026190, symSize: 0x34 }
  - { offsetInCU: 0x3D0F7, offset: 0x3D0F7, size: 0x8, addend: 0x0, symName: __ZNSt3__16vectorINS_4pairINS_12basic_stringIcNS_11char_traitsIcEENS_9allocatorIcEEEES7_EENS5_IS8_EEE7__allocB8ue170006Ev, symObjAddr: 0x23050, symBinAddr: 0x1000261C4, symSize: 0x28 }
  - { offsetInCU: 0x3D11D, offset: 0x3D11D, size: 0x8, addend: 0x0, symName: __ZNKSt3__16vectorINS_4pairINS_12basic_stringIcNS_11char_traitsIcEENS_9allocatorIcEEEES7_EENS5_IS8_EEE8capacityB8ue170006Ev, symObjAddr: 0x23078, symBinAddr: 0x1000261EC, symSize: 0x40 }
  - { offsetInCU: 0x3D143, offset: 0x3D143, size: 0x8, addend: 0x0, symName: __ZNSt3__16vectorINS_4pairINS_12basic_stringIcNS_11char_traitsIcEENS_9allocatorIcEEEES7_EENS5_IS8_EEE22__base_destruct_at_endB8ue170006EPS8_, symObjAddr: 0x230B8, symBinAddr: 0x10002622C, symSize: 0x8C }
  - { offsetInCU: 0x3D187, offset: 0x3D187, size: 0x8, addend: 0x0, symName: __ZNSt3__116allocator_traitsINS_9allocatorINS_4pairINS_12basic_stringIcNS_11char_traitsIcEENS1_IcEEEES7_EEEEE7destroyB8ue170006IS8_vEEvRS9_PT_, symObjAddr: 0x23144, symBinAddr: 0x1000262B8, symSize: 0x2C }
  - { offsetInCU: 0x3D1C4, offset: 0x3D1C4, size: 0x8, addend: 0x0, symName: __ZNSt3__19allocatorINS_4pairINS_12basic_stringIcNS_11char_traitsIcEENS0_IcEEEES6_EEE7destroyB8ue170006EPS7_, symObjAddr: 0x23184, symBinAddr: 0x1000262F8, symSize: 0x28 }
  - { offsetInCU: 0x3D1F8, offset: 0x3D1F8, size: 0x8, addend: 0x0, symName: __ZNSt3__14pairINS_12basic_stringIcNS_11char_traitsIcEENS_9allocatorIcEEEES6_ED1Ev, symObjAddr: 0x231AC, symBinAddr: 0x100026320, symSize: 0x2C }
  - { offsetInCU: 0x3D224, offset: 0x3D224, size: 0x8, addend: 0x0, symName: __ZNSt3__14pairINS_12basic_stringIcNS_11char_traitsIcEENS_9allocatorIcEEEES6_ED2Ev, symObjAddr: 0x231D8, symBinAddr: 0x10002634C, symSize: 0x38 }
  - { offsetInCU: 0x3D250, offset: 0x3D250, size: 0x8, addend: 0x0, symName: __ZNKSt3__16vectorINS_4pairINS_12basic_stringIcNS_11char_traitsIcEENS_9allocatorIcEEEES7_EENS5_IS8_EEE31__annotate_contiguous_containerB8ue170006EPKvSC_SC_SC_, symObjAddr: 0x23210, symBinAddr: 0x100026384, symSize: 0x20 }
  - { offsetInCU: 0x3D2A2, offset: 0x3D2A2, size: 0x8, addend: 0x0, symName: __ZNKSt3__16vectorINS_4pairINS_12basic_stringIcNS_11char_traitsIcEENS_9allocatorIcEEEES7_EENS5_IS8_EEE4dataB8ue170006Ev, symObjAddr: 0x23230, symBinAddr: 0x1000263A4, symSize: 0x28 }
  - { offsetInCU: 0x3D2C8, offset: 0x3D2C8, size: 0x8, addend: 0x0, symName: __ZNKSt3__16vectorINS_4pairINS_12basic_stringIcNS_11char_traitsIcEENS_9allocatorIcEEEES7_EENS5_IS8_EEE4sizeB8ue170006Ev, symObjAddr: 0x23258, symBinAddr: 0x1000263CC, symSize: 0x28 }
  - { offsetInCU: 0x3D2EE, offset: 0x3D2EE, size: 0x8, addend: 0x0, symName: __ZNSt3__19allocatorINS_4pairINS_12basic_stringIcNS_11char_traitsIcEENS0_IcEEEES6_EEE10deallocateB8ue170006EPS7_m, symObjAddr: 0x23280, symBinAddr: 0x1000263F4, symSize: 0x44 }
  - { offsetInCU: 0x3D330, offset: 0x3D330, size: 0x8, addend: 0x0, symName: __ZNSt3__117__compressed_pairIPNS_4pairINS_12basic_stringIcNS_11char_traitsIcEENS_9allocatorIcEEEES7_EENS5_IS8_EEE6secondB8ue170006Ev, symObjAddr: 0x232C4, symBinAddr: 0x100026438, symSize: 0x24 }
  - { offsetInCU: 0x3D356, offset: 0x3D356, size: 0x8, addend: 0x0, symName: __ZNSt3__122__compressed_pair_elemINS_9allocatorINS_4pairINS_12basic_stringIcNS_11char_traitsIcEENS1_IcEEEES7_EEEELi1ELb1EE5__getB8ue170006Ev, symObjAddr: 0x232E8, symBinAddr: 0x10002645C, symSize: 0x14 }
  - { offsetInCU: 0x3D37C, offset: 0x3D37C, size: 0x8, addend: 0x0, symName: __ZNKSt3__16vectorINS_4pairINS_12basic_stringIcNS_11char_traitsIcEENS_9allocatorIcEEEES7_EENS5_IS8_EEE9__end_capB8ue170006Ev, symObjAddr: 0x232FC, symBinAddr: 0x100026470, symSize: 0x28 }
  - { offsetInCU: 0x3D3A2, offset: 0x3D3A2, size: 0x8, addend: 0x0, symName: __ZNKSt3__117__compressed_pairIPNS_4pairINS_12basic_stringIcNS_11char_traitsIcEENS_9allocatorIcEEEES7_EENS5_IS8_EEE5firstB8ue170006Ev, symObjAddr: 0x23324, symBinAddr: 0x100026498, symSize: 0x24 }
  - { offsetInCU: 0x3D3C8, offset: 0x3D3C8, size: 0x8, addend: 0x0, symName: __ZNKSt3__122__compressed_pair_elemIPNS_4pairINS_12basic_stringIcNS_11char_traitsIcEENS_9allocatorIcEEEES7_EELi0ELb0EE5__getB8ue170006Ev, symObjAddr: 0x23348, symBinAddr: 0x1000264BC, symSize: 0x14 }
  - { offsetInCU: 0x3D3EE, offset: 0x3D3EE, size: 0x8, addend: 0x0, symName: __ZNSt3__16vectorIcNS_9allocatorIcEEED2B8ue170006Ev, symObjAddr: 0x2335C, symBinAddr: 0x1000264D0, symSize: 0x44 }
  - { offsetInCU: 0x3D418, offset: 0x3D418, size: 0x8, addend: 0x0, symName: __ZNSt3__16vectorIcNS_9allocatorIcEEE16__destroy_vectorC1B8ue170006ERS3_, symObjAddr: 0x233A0, symBinAddr: 0x100026514, symSize: 0x34 }
  - { offsetInCU: 0x3D451, offset: 0x3D451, size: 0x8, addend: 0x0, symName: __ZNSt3__16vectorIcNS_9allocatorIcEEE16__destroy_vectorclB8ue170006Ev, symObjAddr: 0x233D4, symBinAddr: 0x100026548, symSize: 0x90 }
  - { offsetInCU: 0x3D477, offset: 0x3D477, size: 0x8, addend: 0x0, symName: __ZNSt3__16vectorIcNS_9allocatorIcEEE16__destroy_vectorC2B8ue170006ERS3_, symObjAddr: 0x23464, symBinAddr: 0x1000265D8, symSize: 0x20 }
  - { offsetInCU: 0x3D4B0, offset: 0x3D4B0, size: 0x8, addend: 0x0, symName: __ZNSt3__16vectorIcNS_9allocatorIcEEE7__clearB8ue170006Ev, symObjAddr: 0x23484, symBinAddr: 0x1000265F8, symSize: 0x28 }
  - { offsetInCU: 0x3D4D6, offset: 0x3D4D6, size: 0x8, addend: 0x0, symName: __ZNKSt3__16vectorIcNS_9allocatorIcEEE17__annotate_deleteB8ue170006Ev, symObjAddr: 0x234AC, symBinAddr: 0x100026620, symSize: 0xB8 }
  - { offsetInCU: 0x3D4FC, offset: 0x3D4FC, size: 0x8, addend: 0x0, symName: __ZNSt3__16vectorIcNS_9allocatorIcEEE7__allocB8ue170006Ev, symObjAddr: 0x23564, symBinAddr: 0x1000266D8, symSize: 0x28 }
  - { offsetInCU: 0x3D522, offset: 0x3D522, size: 0x8, addend: 0x0, symName: __ZNKSt3__16vectorIcNS_9allocatorIcEEE8capacityB8ue170006Ev, symObjAddr: 0x2358C, symBinAddr: 0x100026700, symSize: 0x38 }
  - { offsetInCU: 0x3D548, offset: 0x3D548, size: 0x8, addend: 0x0, symName: __ZNSt3__16vectorIcNS_9allocatorIcEEE22__base_destruct_at_endB8ue170006EPc, symObjAddr: 0x235C4, symBinAddr: 0x100026738, symSize: 0x8C }
  - { offsetInCU: 0x3D58C, offset: 0x3D58C, size: 0x8, addend: 0x0, symName: __ZNSt3__116allocator_traitsINS_9allocatorIcEEE7destroyB8ue170006IcvEEvRS2_PT_, symObjAddr: 0x23650, symBinAddr: 0x1000267C4, symSize: 0x2C }
  - { offsetInCU: 0x3D5C9, offset: 0x3D5C9, size: 0x8, addend: 0x0, symName: __ZNSt3__19allocatorIcE7destroyB8ue170006EPc, symObjAddr: 0x2367C, symBinAddr: 0x1000267F0, symSize: 0x14 }
  - { offsetInCU: 0x3D5FD, offset: 0x3D5FD, size: 0x8, addend: 0x0, symName: __ZNKSt3__16vectorIcNS_9allocatorIcEEE31__annotate_contiguous_containerB8ue170006EPKvS5_S5_S5_, symObjAddr: 0x23690, symBinAddr: 0x100026804, symSize: 0x20 }
  - { offsetInCU: 0x3D64F, offset: 0x3D64F, size: 0x8, addend: 0x0, symName: __ZNKSt3__16vectorIcNS_9allocatorIcEEE4dataB8ue170006Ev, symObjAddr: 0x236B0, symBinAddr: 0x100026824, symSize: 0x28 }
  - { offsetInCU: 0x3D675, offset: 0x3D675, size: 0x8, addend: 0x0, symName: __ZNKSt3__16vectorIcNS_9allocatorIcEEE4sizeB8ue170006Ev, symObjAddr: 0x236D8, symBinAddr: 0x10002684C, symSize: 0x20 }
  - { offsetInCU: 0x3D69B, offset: 0x3D69B, size: 0x8, addend: 0x0, symName: __ZNSt3__117__compressed_pairIPcNS_9allocatorIcEEE6secondB8ue170006Ev, symObjAddr: 0x236F8, symBinAddr: 0x10002686C, symSize: 0x24 }
  - { offsetInCU: 0x3D6C1, offset: 0x3D6C1, size: 0x8, addend: 0x0, symName: __ZNKSt3__16vectorIcNS_9allocatorIcEEE9__end_capB8ue170006Ev, symObjAddr: 0x2371C, symBinAddr: 0x100026890, symSize: 0x28 }
  - { offsetInCU: 0x3D6E7, offset: 0x3D6E7, size: 0x8, addend: 0x0, symName: __ZNKSt3__117__compressed_pairIPcNS_9allocatorIcEEE5firstB8ue170006Ev, symObjAddr: 0x23744, symBinAddr: 0x1000268B8, symSize: 0x24 }
  - { offsetInCU: 0x3D70D, offset: 0x3D70D, size: 0x8, addend: 0x0, symName: __ZNKSt3__122__compressed_pair_elemIPcLi0ELb0EE5__getB8ue170006Ev, symObjAddr: 0x23768, symBinAddr: 0x1000268DC, symSize: 0x14 }
  - { offsetInCU: 0x3D733, offset: 0x3D733, size: 0x8, addend: 0x0, symName: __ZNSt3__120__bracket_expressionIcNS_12regex_traitsIcEEED2Ev, symObjAddr: 0x2377C, symBinAddr: 0x1000268F0, symSize: 0x84 }
  - { offsetInCU: 0x3D760, offset: 0x3D760, size: 0x8, addend: 0x0, symName: __ZNSt3__14pairIccEC1B8ue170006ILb1ELPv0EEERKcS5_, symObjAddr: 0x23800, symBinAddr: 0x100026974, symSize: 0x3C }
  - { offsetInCU: 0x3D7B6, offset: 0x3D7B6, size: 0x8, addend: 0x0, symName: __ZNKSt3__112regex_traitsIcE18lookup_collatenameB8ue170006IPcEENS_12basic_stringIcNS_11char_traitsIcEENS_9allocatorIcEEEET_SA_, symObjAddr: 0x2383C, symBinAddr: 0x1000269B0, symSize: 0x40 }
  - { offsetInCU: 0x3D803, offset: 0x3D803, size: 0x8, addend: 0x0, symName: __ZNKSt3__112basic_stringIcNS_11char_traitsIcEENS_9allocatorIcEEE5emptyB8ue170006Ev, symObjAddr: 0x2387C, symBinAddr: 0x1000269F0, symSize: 0x30 }
  - { offsetInCU: 0x3D829, offset: 0x3D829, size: 0x8, addend: 0x0, symName: __ZNKSt3__16vectorINS_4pairIccEENS_9allocatorIS2_EEEixB8ue170006Em, symObjAddr: 0x23910, symBinAddr: 0x100026A84, symSize: 0x24 }
  - { offsetInCU: 0x3D860, offset: 0x3D860, size: 0x8, addend: 0x0, symName: __ZNKSt3__16vectorINS_4pairINS_12basic_stringIcNS_11char_traitsIcEENS_9allocatorIcEEEES7_EENS5_IS8_EEE5emptyB8ue170006Ev, symObjAddr: 0x23934, symBinAddr: 0x100026AA8, symSize: 0x28 }
  - { offsetInCU: 0x3D8B4, offset: 0x3D8B4, size: 0x8, addend: 0x0, symName: __ZNKSt3__112regex_traitsIcE9transformIPcEENS_12basic_stringIcNS_11char_traitsIcEENS_9allocatorIcEEEET_SA_, symObjAddr: 0x2395C, symBinAddr: 0x100026AD0, symSize: 0xF0 }
  - { offsetInCU: 0x3D945, offset: 0x3D945, size: 0x8, addend: 0x0, symName: __ZNKSt3__16vectorINS_4pairINS_12basic_stringIcNS_11char_traitsIcEENS_9allocatorIcEEEES7_EENS5_IS8_EEEixB8ue170006Em, symObjAddr: 0x23A80, symBinAddr: 0x100026BF4, symSize: 0x2C }
  - { offsetInCU: 0x3D97C, offset: 0x3D97C, size: 0x8, addend: 0x0, symName: __ZNKSt3__16vectorINS_12basic_stringIcNS_11char_traitsIcEENS_9allocatorIcEEEENS4_IS6_EEE5emptyB8ue170006Ev, symObjAddr: 0x23AAC, symBinAddr: 0x100026C20, symSize: 0x28 }
  - { offsetInCU: 0x3D9A2, offset: 0x3D9A2, size: 0x8, addend: 0x0, symName: __ZNKSt3__112regex_traitsIcE17transform_primaryB8ue170006IPcEENS_12basic_stringIcNS_11char_traitsIcEENS_9allocatorIcEEEET_SA_, symObjAddr: 0x23AD4, symBinAddr: 0x100026C48, symSize: 0x40 }
  - { offsetInCU: 0x3D9EF, offset: 0x3D9EF, size: 0x8, addend: 0x0, symName: __ZNKSt3__16vectorINS_12basic_stringIcNS_11char_traitsIcEENS_9allocatorIcEEEENS4_IS6_EEEixB8ue170006Em, symObjAddr: 0x23B14, symBinAddr: 0x100026C88, symSize: 0x2C }
  - { offsetInCU: 0x3DA26, offset: 0x3DA26, size: 0x8, addend: 0x0, symName: __ZNKSt3__16vectorIcNS_9allocatorIcEEEixB8ue170006Em, symObjAddr: 0x23B40, symBinAddr: 0x100026CB4, symSize: 0x24 }
  - { offsetInCU: 0x3DA5D, offset: 0x3DA5D, size: 0x8, addend: 0x0, symName: __ZNKSt3__16vectorIcNS_9allocatorIcEEE5emptyB8ue170006Ev, symObjAddr: 0x23B64, symBinAddr: 0x100026CD8, symSize: 0x28 }
  - { offsetInCU: 0x3DA83, offset: 0x3DA83, size: 0x8, addend: 0x0, symName: __ZNKSt3__16vectorIcNS_9allocatorIcEEE5beginB8ue170006Ev, symObjAddr: 0x23C38, symBinAddr: 0x100026DAC, symSize: 0x30 }
  - { offsetInCU: 0x3DAAB, offset: 0x3DAAB, size: 0x8, addend: 0x0, symName: __ZNKSt3__16vectorIcNS_9allocatorIcEEE3endB8ue170006Ev, symObjAddr: 0x23C68, symBinAddr: 0x100026DDC, symSize: 0x30 }
  - { offsetInCU: 0x3DAD3, offset: 0x3DAD3, size: 0x8, addend: 0x0, symName: __ZNSt3__14pairIccEC2B8ue170006ILb1ELPv0EEERKcS5_, symObjAddr: 0x23C98, symBinAddr: 0x100026E0C, symSize: 0x34 }
  - { offsetInCU: 0x3DB29, offset: 0x3DB29, size: 0x8, addend: 0x0, symName: __ZNKSt3__112regex_traitsIcE20__lookup_collatenameIPcEENS_12basic_stringIcNS_11char_traitsIcEENS_9allocatorIcEEEET_SA_c, symObjAddr: 0x23CCC, symBinAddr: 0x100026E40, symSize: 0x220 }
  - { offsetInCU: 0x3DBD8, offset: 0x3DBD8, size: 0x8, addend: 0x0, symName: __ZNSt3__112basic_stringIcNS_11char_traitsIcEENS_9allocatorIcEEEC1B8ue170006IPcLi0EEET_S8_, symObjAddr: 0x23EEC, symBinAddr: 0x100027060, symSize: 0x3C }
  - { offsetInCU: 0x3DC2F, offset: 0x3DC2F, size: 0x8, addend: 0x0, symName: __ZNSt3__112basic_stringIcNS_11char_traitsIcEENS_9allocatorIcEEEC2B8ue170006IPcLi0EEET_S8_, symObjAddr: 0x23F28, symBinAddr: 0x10002709C, symSize: 0x4C }
  - { offsetInCU: 0x3DC86, offset: 0x3DC86, size: 0x8, addend: 0x0, symName: __ZNSt3__112basic_stringIcNS_11char_traitsIcEENS_9allocatorIcEEE6__initIPcLi0EEEvT_S8_, symObjAddr: 0x23F74, symBinAddr: 0x1000270E8, symSize: 0x54 }
  - { offsetInCU: 0x3DCEA, offset: 0x3DCEA, size: 0x8, addend: 0x0, symName: __ZNSt3__112basic_stringIcNS_11char_traitsIcEENS_9allocatorIcEEE16__init_with_sizeB8ue170006IPcS7_EEvT_T0_m, symObjAddr: 0x23FF4, symBinAddr: 0x100027168, symSize: 0x144 }
  - { offsetInCU: 0x3DD7D, offset: 0x3DD7D, size: 0x8, addend: 0x0, symName: __ZNKSt3__112regex_traitsIcE19__transform_primaryIPcEENS_12basic_stringIcNS_11char_traitsIcEENS_9allocatorIcEEEET_SA_c, symObjAddr: 0x24198, symBinAddr: 0x10002730C, symSize: 0x19C }
  - { offsetInCU: 0x3DE2A, offset: 0x3DE2A, size: 0x8, addend: 0x0, symName: __ZNKSt3__111__wrap_iterIPKcE4baseB8ue170006Ev, symObjAddr: 0x2437C, symBinAddr: 0x1000274F0, symSize: 0x18 }
  - { offsetInCU: 0x3DE50, offset: 0x3DE50, size: 0x8, addend: 0x0, symName: __ZNSt3__118__unwrap_iter_implINS_11__wrap_iterIPKcEELb1EE8__rewrapB8ue170006ES4_S3_, symObjAddr: 0x24484, symBinAddr: 0x1000275F8, symSize: 0x54 }
  - { offsetInCU: 0x3DE81, offset: 0x3DE81, size: 0x8, addend: 0x0, symName: __ZNKSt3__111__wrap_iterIPKcEplB8ue170006El, symObjAddr: 0x244D8, symBinAddr: 0x10002764C, symSize: 0x3C }
  - { offsetInCU: 0x3DEC3, offset: 0x3DEC3, size: 0x8, addend: 0x0, symName: __ZNSt3__111__wrap_iterIPKcEpLB8ue170006El, symObjAddr: 0x24538, symBinAddr: 0x1000276AC, symSize: 0x28 }
  - { offsetInCU: 0x3DF02, offset: 0x3DF02, size: 0x8, addend: 0x0, symName: __ZNSt3__119__to_address_helperINS_11__wrap_iterIPKcEEvE6__callB8ue170006ERKS4_, symObjAddr: 0x24560, symBinAddr: 0x1000276D4, symSize: 0x30 }
  - { offsetInCU: 0x3DF25, offset: 0x3DF25, size: 0x8, addend: 0x0, symName: __ZNSt3__114pointer_traitsINS_11__wrap_iterIPKcEEE10to_addressB8ue170006ES4_, symObjAddr: 0x24590, symBinAddr: 0x100027704, symSize: 0x2C }
  - { offsetInCU: 0x3DF48, offset: 0x3DF48, size: 0x8, addend: 0x0, symName: __ZNSt3__118__unwrap_iter_implINS_11__wrap_iterIPKcEELb1EE8__unwrapB8ue170006ES4_, symObjAddr: 0x245FC, symBinAddr: 0x100027770, symSize: 0x28 }
  - { offsetInCU: 0x3DF6B, offset: 0x3DF6B, size: 0x8, addend: 0x0, symName: __ZNKSt3__16vectorIcNS_9allocatorIcEEE11__make_iterB8ue170006EPKc, symObjAddr: 0x24624, symBinAddr: 0x100027798, symSize: 0x30 }
  - { offsetInCU: 0x3DFA0, offset: 0x3DFA0, size: 0x8, addend: 0x0, symName: __ZNSt3__111__wrap_iterIPKcEC1B8ue170006ES2_, symObjAddr: 0x24654, symBinAddr: 0x1000277C8, symSize: 0x34 }
  - { offsetInCU: 0x3DFD8, offset: 0x3DFD8, size: 0x8, addend: 0x0, symName: __ZNSt3__111__wrap_iterIPKcEC2B8ue170006ES2_, symObjAddr: 0x24688, symBinAddr: 0x1000277FC, symSize: 0x20 }
  - { offsetInCU: 0x3E010, offset: 0x3E010, size: 0x8, addend: 0x0, symName: __ZNSt3__16vectorIcNS_9allocatorIcEEE9push_backB8ue170006EOc, symObjAddr: 0x246A8, symBinAddr: 0x10002781C, symSize: 0x6C }
  - { offsetInCU: 0x3E047, offset: 0x3E047, size: 0x8, addend: 0x0, symName: __ZNSt3__16vectorIcNS_9allocatorIcEEE9push_backB8ue170006ERKc, symObjAddr: 0x24714, symBinAddr: 0x100027888, symSize: 0x6C }
  - { offsetInCU: 0x3E07E, offset: 0x3E07E, size: 0x8, addend: 0x0, symName: __ZNSt3__16vectorIcNS_9allocatorIcEEE9__end_capB8ue170006Ev, symObjAddr: 0x24780, symBinAddr: 0x1000278F4, symSize: 0x28 }
  - { offsetInCU: 0x3E0AA, offset: 0x3E0AA, size: 0x8, addend: 0x0, symName: __ZNSt3__16vectorIcNS_9allocatorIcEEE22__construct_one_at_endB8ue170006IJcEEEvDpOT_, symObjAddr: 0x247A8, symBinAddr: 0x10002791C, symSize: 0x90 }
  - { offsetInCU: 0x3E0F9, offset: 0x3E0F9, size: 0x8, addend: 0x0, symName: __ZNSt3__16vectorIcNS_9allocatorIcEEE21__push_back_slow_pathIcEEvOT_, symObjAddr: 0x24838, symBinAddr: 0x1000279AC, symSize: 0xD8 }
  - { offsetInCU: 0x3E157, offset: 0x3E157, size: 0x8, addend: 0x0, symName: __ZNSt3__117__compressed_pairIPcNS_9allocatorIcEEE5firstB8ue170006Ev, symObjAddr: 0x24910, symBinAddr: 0x100027A84, symSize: 0x24 }
  - { offsetInCU: 0x3E17D, offset: 0x3E17D, size: 0x8, addend: 0x0, symName: __ZNSt3__122__compressed_pair_elemIPcLi0ELb0EE5__getB8ue170006Ev, symObjAddr: 0x24934, symBinAddr: 0x100027AA8, symSize: 0x14 }
  - { offsetInCU: 0x3E1BE, offset: 0x3E1BE, size: 0x8, addend: 0x0, symName: __ZNSt3__16vectorIcNS_9allocatorIcEEE21_ConstructTransactionC1B8ue170006ERS3_m, symObjAddr: 0x24948, symBinAddr: 0x100027ABC, symSize: 0x3C }
  - { offsetInCU: 0x3E206, offset: 0x3E206, size: 0x8, addend: 0x0, symName: __ZNSt3__116allocator_traitsINS_9allocatorIcEEE9constructB8ue170006IcJcEvEEvRS2_PT_DpOT0_, symObjAddr: 0x24984, symBinAddr: 0x100027AF8, symSize: 0x34 }
  - { offsetInCU: 0x3E25D, offset: 0x3E25D, size: 0x8, addend: 0x0, symName: __ZNSt3__16vectorIcNS_9allocatorIcEEE21_ConstructTransactionD1B8ue170006Ev, symObjAddr: 0x249B8, symBinAddr: 0x100027B2C, symSize: 0x2C }
  - { offsetInCU: 0x3E287, offset: 0x3E287, size: 0x8, addend: 0x0, symName: __ZNSt3__16vectorIcNS_9allocatorIcEEE21_ConstructTransactionC2B8ue170006ERS3_m, symObjAddr: 0x249E4, symBinAddr: 0x100027B58, symSize: 0x44 }
  - { offsetInCU: 0x3E2CF, offset: 0x3E2CF, size: 0x8, addend: 0x0, symName: __ZNSt3__19allocatorIcE9constructB8ue170006IcJcEEEvPT_DpOT0_, symObjAddr: 0x24A28, symBinAddr: 0x100027B9C, symSize: 0x28 }
  - { offsetInCU: 0x3E325, offset: 0x3E325, size: 0x8, addend: 0x0, symName: __ZNSt3__16vectorIcNS_9allocatorIcEEE21_ConstructTransactionD2B8ue170006Ev, symObjAddr: 0x24A50, symBinAddr: 0x100027BC4, symSize: 0x20 }
  - { offsetInCU: 0x3E34F, offset: 0x3E34F, size: 0x8, addend: 0x0, symName: __ZNKSt3__16vectorIcNS_9allocatorIcEEE11__recommendB8ue170006Em, symObjAddr: 0x24A70, symBinAddr: 0x100027BE4, symSize: 0xB4 }
  - { offsetInCU: 0x3E3A4, offset: 0x3E3A4, size: 0x8, addend: 0x0, symName: __ZNSt3__114__split_bufferIcRNS_9allocatorIcEEEC1EmmS3_, symObjAddr: 0x24B24, symBinAddr: 0x100027C98, symSize: 0x44 }
  - { offsetInCU: 0x3E3FA, offset: 0x3E3FA, size: 0x8, addend: 0x0, symName: __ZNSt3__114__split_bufferIcRNS_9allocatorIcEEED1Ev, symObjAddr: 0x24C78, symBinAddr: 0x100027DEC, symSize: 0x2C }
  - { offsetInCU: 0x3E426, offset: 0x3E426, size: 0x8, addend: 0x0, symName: __ZNKSt3__16vectorIcNS_9allocatorIcEEE8max_sizeEv, symObjAddr: 0x24CA4, symBinAddr: 0x100027E18, symSize: 0x60 }
  - { offsetInCU: 0x3E44E, offset: 0x3E44E, size: 0x8, addend: 0x0, symName: __ZNKSt3__16vectorIcNS_9allocatorIcEEE20__throw_length_errorB8ue170006Ev, symObjAddr: 0x24D04, symBinAddr: 0x100027E78, symSize: 0x1C }
  - { offsetInCU: 0x3E474, offset: 0x3E474, size: 0x8, addend: 0x0, symName: __ZNKSt3__16vectorIcNS_9allocatorIcEEE7__allocB8ue170006Ev, symObjAddr: 0x24D20, symBinAddr: 0x100027E94, symSize: 0x28 }
  - { offsetInCU: 0x3E49A, offset: 0x3E49A, size: 0x8, addend: 0x0, symName: __ZNKSt3__117__compressed_pairIPcNS_9allocatorIcEEE6secondB8ue170006Ev, symObjAddr: 0x24D48, symBinAddr: 0x100027EBC, symSize: 0x24 }
  - { offsetInCU: 0x3E4C0, offset: 0x3E4C0, size: 0x8, addend: 0x0, symName: __ZNSt3__114__split_bufferIcRNS_9allocatorIcEEEC2EmmS3_, symObjAddr: 0x24D6C, symBinAddr: 0x100027EE0, symSize: 0xD4 }
  - { offsetInCU: 0x3E533, offset: 0x3E533, size: 0x8, addend: 0x0, symName: __ZNSt3__117__compressed_pairIPcRNS_9allocatorIcEEEC1B8ue170006IDnS4_EEOT_OT0_, symObjAddr: 0x24E40, symBinAddr: 0x100027FB4, symSize: 0x3C }
  - { offsetInCU: 0x3E58B, offset: 0x3E58B, size: 0x8, addend: 0x0, symName: __ZNSt3__114__split_bufferIcRNS_9allocatorIcEEE7__allocB8ue170006Ev, symObjAddr: 0x24E7C, symBinAddr: 0x100027FF0, symSize: 0x28 }
  - { offsetInCU: 0x3E5B1, offset: 0x3E5B1, size: 0x8, addend: 0x0, symName: __ZNSt3__114__split_bufferIcRNS_9allocatorIcEEE9__end_capB8ue170006Ev, symObjAddr: 0x24EA4, symBinAddr: 0x100028018, symSize: 0x28 }
  - { offsetInCU: 0x3E5D7, offset: 0x3E5D7, size: 0x8, addend: 0x0, symName: __ZNSt3__117__compressed_pairIPcRNS_9allocatorIcEEEC2B8ue170006IDnS4_EEOT_OT0_, symObjAddr: 0x24ECC, symBinAddr: 0x100028040, symSize: 0x48 }
  - { offsetInCU: 0x3E62F, offset: 0x3E62F, size: 0x8, addend: 0x0, symName: __ZNSt3__122__compressed_pair_elemIRNS_9allocatorIcEELi1ELb0EEC2B8ue170006IS3_vEEOT_, symObjAddr: 0x24F14, symBinAddr: 0x100028088, symSize: 0x20 }
  - { offsetInCU: 0x3E671, offset: 0x3E671, size: 0x8, addend: 0x0, symName: __ZNSt3__117__compressed_pairIPcRNS_9allocatorIcEEE6secondB8ue170006Ev, symObjAddr: 0x24F34, symBinAddr: 0x1000280A8, symSize: 0x28 }
  - { offsetInCU: 0x3E697, offset: 0x3E697, size: 0x8, addend: 0x0, symName: __ZNSt3__122__compressed_pair_elemIRNS_9allocatorIcEELi1ELb0EE5__getB8ue170006Ev, symObjAddr: 0x24F5C, symBinAddr: 0x1000280D0, symSize: 0x18 }
  - { offsetInCU: 0x3E6BD, offset: 0x3E6BD, size: 0x8, addend: 0x0, symName: __ZNSt3__117__compressed_pairIPcRNS_9allocatorIcEEE5firstB8ue170006Ev, symObjAddr: 0x24F74, symBinAddr: 0x1000280E8, symSize: 0x24 }
  - { offsetInCU: 0x3E6E3, offset: 0x3E6E3, size: 0x8, addend: 0x0, symName: __ZNSt3__116reverse_iteratorIPcEC1B8ue170006ES1_, symObjAddr: 0x25010, symBinAddr: 0x100028184, symSize: 0x34 }
  - { offsetInCU: 0x3E71B, offset: 0x3E71B, size: 0x8, addend: 0x0, symName: __ZNKSt3__116reverse_iteratorIPcE4baseB8ue170006Ev, symObjAddr: 0x25044, symBinAddr: 0x1000281B8, symSize: 0x18 }
  - { offsetInCU: 0x3E741, offset: 0x3E741, size: 0x8, addend: 0x0, symName: __ZNKSt3__16vectorIcNS_9allocatorIcEEE14__annotate_newB8ue170006Em, symObjAddr: 0x25098, symBinAddr: 0x10002820C, symSize: 0xAC }
  - { offsetInCU: 0x3E792, offset: 0x3E792, size: 0x8, addend: 0x0, symName: __ZNKSt3__111__move_loopINS_17_ClassicAlgPolicyEEclB8ue170006INS_16reverse_iteratorIPcEES6_S6_EENS_4pairIT_T1_EES8_T0_S9_, symObjAddr: 0x25434, symBinAddr: 0x1000285A8, symSize: 0xA0 }
  - { offsetInCU: 0x3E7FD, offset: 0x3E7FD, size: 0x8, addend: 0x0, symName: __ZNSt3__18_IterOpsINS_17_ClassicAlgPolicyEE11__iter_moveB8ue170006IRNS_16reverse_iteratorIPcEEEENS_9enable_ifIXsr12is_referenceIDTdeclsr3stdE7declvalIRT_EEEEE5valueEDTclsr3stdE4movedeclsr3stdE7declvalISA_EEEEE4typeEOS9_, symObjAddr: 0x25668, symBinAddr: 0x1000287DC, symSize: 0x28 }
  - { offsetInCU: 0x3E829, offset: 0x3E829, size: 0x8, addend: 0x0, symName: __ZNKSt3__116reverse_iteratorIPcEdeB8ue170006Ev, symObjAddr: 0x25690, symBinAddr: 0x100028804, symSize: 0x28 }
  - { offsetInCU: 0x3E85D, offset: 0x3E85D, size: 0x8, addend: 0x0, symName: __ZNSt3__116reverse_iteratorIPcEppB8ue170006Ev, symObjAddr: 0x256B8, symBinAddr: 0x10002882C, symSize: 0x20 }
  - { offsetInCU: 0x3E883, offset: 0x3E883, size: 0x8, addend: 0x0, symName: __ZNSt3__18_IterOpsINS_17_ClassicAlgPolicyEE25__validate_iter_referenceB8ue170006IRNS_16reverse_iteratorIPcEEEEvv, symObjAddr: 0x256D8, symBinAddr: 0x10002884C, symSize: 0x4 }
  - { offsetInCU: 0x3E8A1, offset: 0x3E8A1, size: 0x8, addend: 0x0, symName: __ZNSt3__118__unwrap_iter_implINS_16reverse_iteratorIPcEELb0EE8__unwrapB8ue170006ES3_, symObjAddr: 0x256DC, symBinAddr: 0x100028850, symSize: 0x24 }
  - { offsetInCU: 0x3E8CA, offset: 0x3E8CA, size: 0x8, addend: 0x0, symName: __ZNSt3__14pairINS_16reverse_iteratorIPcEES3_EC1B8ue170006IS3_S3_LPv0EEEOT_OT0_, symObjAddr: 0x25700, symBinAddr: 0x100028874, symSize: 0x3C }
  - { offsetInCU: 0x3E928, offset: 0x3E928, size: 0x8, addend: 0x0, symName: __ZNSt3__14pairINS_16reverse_iteratorIPcEES3_EC2B8ue170006IS3_S3_LPv0EEEOT_OT0_, symObjAddr: 0x2573C, symBinAddr: 0x1000288B0, symSize: 0x34 }
  - { offsetInCU: 0x3E986, offset: 0x3E986, size: 0x8, addend: 0x0, symName: __ZNSt3__118__unwrap_iter_implINS_16reverse_iteratorIPcEELb0EE8__rewrapB8ue170006ES3_S3_, symObjAddr: 0x25770, symBinAddr: 0x1000288E4, symSize: 0x2C }
  - { offsetInCU: 0x3E9B3, offset: 0x3E9B3, size: 0x8, addend: 0x0, symName: __ZNSt3__116reverse_iteratorIPcEC2B8ue170006ES1_, symObjAddr: 0x2579C, symBinAddr: 0x100028910, symSize: 0x28 }
  - { offsetInCU: 0x3E9EB, offset: 0x3E9EB, size: 0x8, addend: 0x0, symName: __ZNSt3__114__split_bufferIcRNS_9allocatorIcEEED2Ev, symObjAddr: 0x257C4, symBinAddr: 0x100028938, symSize: 0x8C }
  - { offsetInCU: 0x3EA17, offset: 0x3EA17, size: 0x8, addend: 0x0, symName: __ZNSt3__114__split_bufferIcRNS_9allocatorIcEEE5clearB8ue170006Ev, symObjAddr: 0x25850, symBinAddr: 0x1000289C4, symSize: 0x28 }
  - { offsetInCU: 0x3EA3D, offset: 0x3EA3D, size: 0x8, addend: 0x0, symName: __ZNKSt3__114__split_bufferIcRNS_9allocatorIcEEE8capacityB8ue170006Ev, symObjAddr: 0x25878, symBinAddr: 0x1000289EC, symSize: 0x38 }
  - { offsetInCU: 0x3EA63, offset: 0x3EA63, size: 0x8, addend: 0x0, symName: __ZNSt3__114__split_bufferIcRNS_9allocatorIcEEE17__destruct_at_endB8ue170006EPc, symObjAddr: 0x258B0, symBinAddr: 0x100028A24, symSize: 0x2C }
  - { offsetInCU: 0x3EA97, offset: 0x3EA97, size: 0x8, addend: 0x0, symName: __ZNSt3__114__split_bufferIcRNS_9allocatorIcEEE17__destruct_at_endB8ue170006EPcNS_17integral_constantIbLb0EEE, symObjAddr: 0x258DC, symBinAddr: 0x100028A50, symSize: 0x80 }
  - { offsetInCU: 0x3EAD7, offset: 0x3EAD7, size: 0x8, addend: 0x0, symName: __ZNKSt3__114__split_bufferIcRNS_9allocatorIcEEE9__end_capB8ue170006Ev, symObjAddr: 0x2595C, symBinAddr: 0x100028AD0, symSize: 0x28 }
  - { offsetInCU: 0x3EAFD, offset: 0x3EAFD, size: 0x8, addend: 0x0, symName: __ZNKSt3__117__compressed_pairIPcRNS_9allocatorIcEEE5firstB8ue170006Ev, symObjAddr: 0x25984, symBinAddr: 0x100028AF8, symSize: 0x24 }
  - { offsetInCU: 0x3EB23, offset: 0x3EB23, size: 0x8, addend: 0x0, symName: __ZNSt3__16vectorIcNS_9allocatorIcEEE22__construct_one_at_endB8ue170006IJRKcEEEvDpOT_, symObjAddr: 0x259A8, symBinAddr: 0x100028B1C, symSize: 0x90 }
  - { offsetInCU: 0x3EB72, offset: 0x3EB72, size: 0x8, addend: 0x0, symName: __ZNSt3__16vectorIcNS_9allocatorIcEEE21__push_back_slow_pathIRKcEEvOT_, symObjAddr: 0x25A38, symBinAddr: 0x100028BAC, symSize: 0xD8 }
  - { offsetInCU: 0x3EBD0, offset: 0x3EBD0, size: 0x8, addend: 0x0, symName: __ZNSt3__116allocator_traitsINS_9allocatorIcEEE9constructB8ue170006IcJRKcEvEEvRS2_PT_DpOT0_, symObjAddr: 0x25B10, symBinAddr: 0x100028C84, symSize: 0x34 }
  - { offsetInCU: 0x3EC27, offset: 0x3EC27, size: 0x8, addend: 0x0, symName: __ZNSt3__19allocatorIcE9constructB8ue170006IcJRKcEEEvPT_DpOT0_, symObjAddr: 0x25B44, symBinAddr: 0x100028CB8, symSize: 0x28 }
  - { offsetInCU: 0x3EC7D, offset: 0x3EC7D, size: 0x8, addend: 0x0, symName: __ZNKSt3__112regex_traitsIcE5valueB8ue170006Eci, symObjAddr: 0x25B6C, symBinAddr: 0x100028CE0, symSize: 0x34 }
  - { offsetInCU: 0x3ECC1, offset: 0x3ECC1, size: 0x8, addend: 0x0, symName: __ZNKSt3__112regex_traitsIcE20__regex_traits_valueB8ue170006Eci, symObjAddr: 0x25BA0, symBinAddr: 0x100028D14, symSize: 0x30 }
  - { offsetInCU: 0x3ED05, offset: 0x3ED05, size: 0x8, addend: 0x0, symName: __ZNSt3__112regex_traitsIcE20__regex_traits_valueEhi, symObjAddr: 0x25BD0, symBinAddr: 0x100028D44, symSize: 0xE8 }
  - { offsetInCU: 0x3ED3A, offset: 0x3ED3A, size: 0x8, addend: 0x0, symName: __ZNSt3__111basic_regexIcNS_12regex_traitsIcEEE19__parse_follow_listIPKcEET_S7_S7_PNS_20__bracket_expressionIcS2_EE, symObjAddr: 0x25D7C, symBinAddr: 0x100028EF0, symSize: 0x94 }
  - { offsetInCU: 0x3EDB5, offset: 0x3EDB5, size: 0x8, addend: 0x0, symName: __ZNSt3__111basic_regexIcNS_12regex_traitsIcEEE23__parse_expression_termIPKcEET_S7_S7_PNS_20__bracket_expressionIcS2_EE, symObjAddr: 0x25E10, symBinAddr: 0x100028F84, symSize: 0x71C }
  - { offsetInCU: 0x3EE5E, offset: 0x3EE5E, size: 0x8, addend: 0x0, symName: __ZNSt3__111basic_regexIcNS_12regex_traitsIcEEE25__parse_equivalence_classIPKcEET_S7_S7_PNS_20__bracket_expressionIcS2_EE, symObjAddr: 0x2652C, symBinAddr: 0x1000296A0, symSize: 0x238 }
  - { offsetInCU: 0x3EEFA, offset: 0x3EEFA, size: 0x8, addend: 0x0, symName: __ZNSt3__111basic_regexIcNS_12regex_traitsIcEEE23__parse_character_classIPKcEET_S7_S7_PNS_20__bracket_expressionIcS2_EE, symObjAddr: 0x26764, symBinAddr: 0x1000298D8, symSize: 0xF4 }
  - { offsetInCU: 0x3EF91, offset: 0x3EF91, size: 0x8, addend: 0x0, symName: __ZNSt3__111basic_regexIcNS_12regex_traitsIcEEE24__parse_collating_symbolIPKcEET_S7_S7_RNS_12basic_stringIcNS_11char_traitsIcEENS_9allocatorIcEEEE, symObjAddr: 0x26858, symBinAddr: 0x1000299CC, symSize: 0xDC }
  - { offsetInCU: 0x3F00D, offset: 0x3F00D, size: 0x8, addend: 0x0, symName: __ZNSt3__111basic_regexIcNS_12regex_traitsIcEEE20__parse_class_escapeIPKcEET_S7_S7_RNS_12basic_stringIcNS_11char_traitsIcEENS_9allocatorIcEEEEPNS_20__bracket_expressionIcS2_EE, symObjAddr: 0x26934, symBinAddr: 0x100029AA8, symSize: 0x25C }
  - { offsetInCU: 0x3F07A, offset: 0x3F07A, size: 0x8, addend: 0x0, symName: __ZNSt3__111basic_regexIcNS_12regex_traitsIcEEE18__parse_awk_escapeIPKcEET_S7_S7_PNS_12basic_stringIcNS_11char_traitsIcEENS_9allocatorIcEEEE, symObjAddr: 0x26B90, symBinAddr: 0x100029D04, symSize: 0x484 }
  - { offsetInCU: 0x3F0F5, offset: 0x3F0F5, size: 0x8, addend: 0x0, symName: __ZNSt3__120__bracket_expressionIcNS_12regex_traitsIcEEE11__add_rangeB8ue170006ENS_12basic_stringIcNS_11char_traitsIcEENS_9allocatorIcEEEES9_, symObjAddr: 0x27168, symBinAddr: 0x10002A2DC, symSize: 0x4D4 }
  - { offsetInCU: 0x3F1B0, offset: 0x3F1B0, size: 0x8, addend: 0x0, symName: __ZNSt3__120__bracket_expressionIcNS_12regex_traitsIcEEE13__add_digraphB8ue170006Ecc, symObjAddr: 0x2763C, symBinAddr: 0x10002A7B0, symSize: 0x13C }
  - { offsetInCU: 0x3F1F4, offset: 0x3F1F4, size: 0x8, addend: 0x0, symName: __ZNKSt3__112regex_traitsIcE18lookup_collatenameB8ue170006IPKcEENS_12basic_stringIcNS_11char_traitsIcEENS_9allocatorIcEEEET_SB_, symObjAddr: 0x277B4, symBinAddr: 0x10002A928, symSize: 0x40 }
  - { offsetInCU: 0x3F241, offset: 0x3F241, size: 0x8, addend: 0x0, symName: __ZNKSt3__112regex_traitsIcE17transform_primaryB8ue170006INS_11__wrap_iterIPcEEEENS_12basic_stringIcNS_11char_traitsIcEENS_9allocatorIcEEEET_SC_, symObjAddr: 0x27854, symBinAddr: 0x10002A9C8, symSize: 0x50 }
  - { offsetInCU: 0x3F28E, offset: 0x3F28E, size: 0x8, addend: 0x0, symName: __ZNSt3__120__bracket_expressionIcNS_12regex_traitsIcEEE17__add_equivalenceB8ue170006ERKNS_12basic_stringIcNS_11char_traitsIcEENS_9allocatorIcEEEE, symObjAddr: 0x278A4, symBinAddr: 0x10002AA18, symSize: 0x30 }
  - { offsetInCU: 0x3F2C3, offset: 0x3F2C3, size: 0x8, addend: 0x0, symName: __ZNSt3__14pairIPKcS2_EC1B8ue170006IRS2_S5_LPv0EEEOT_OT0_, symObjAddr: 0x27C24, symBinAddr: 0x10002AD98, symSize: 0x3C }
  - { offsetInCU: 0x3F321, offset: 0x3F321, size: 0x8, addend: 0x0, symName: __ZNSt3__14pairIPKcS2_EC2B8ue170006IRS2_S5_LPv0EEEOT_OT0_, symObjAddr: 0x27C60, symBinAddr: 0x10002ADD4, symSize: 0x34 }
  - { offsetInCU: 0x3F37F, offset: 0x3F37F, size: 0x8, addend: 0x0, symName: __ZNSt3__18_IterOpsINS_17_ClassicAlgPolicyEE12__advance_toB8ue170006IPKcEEvRT_S6_, symObjAddr: 0x27C94, symBinAddr: 0x10002AE08, symSize: 0x20 }
  - { offsetInCU: 0x3F3C3, offset: 0x3F3C3, size: 0x8, addend: 0x0, symName: __ZNKSt3__110__equal_toclB8ue170006IccEEbRKT_RKT0_, symObjAddr: 0x27D7C, symBinAddr: 0x10002AEF0, symSize: 0x34 }
  - { offsetInCU: 0x3F421, offset: 0x3F421, size: 0x8, addend: 0x0, symName: __ZNKSt3__110__identityclB8ue170006IRKcEEOT_S5_, symObjAddr: 0x27DB0, symBinAddr: 0x10002AF24, symSize: 0x18 }
  - { offsetInCU: 0x3F45E, offset: 0x3F45E, size: 0x8, addend: 0x0, symName: __ZNKSt3__110__identityclB8ue170006IRcEEOT_S4_, symObjAddr: 0x27DC8, symBinAddr: 0x10002AF3C, symSize: 0x18 }
  - { offsetInCU: 0x3F49B, offset: 0x3F49B, size: 0x8, addend: 0x0, symName: __ZNSt3__14pairIPKcS2_EC1B8ue170006IRS2_S2_LPv0EEEOT_OT0_, symObjAddr: 0x27DE0, symBinAddr: 0x10002AF54, symSize: 0x3C }
  - { offsetInCU: 0x3F4F9, offset: 0x3F4F9, size: 0x8, addend: 0x0, symName: __ZNSt3__14pairIPKcS2_EC2B8ue170006IRS2_S2_LPv0EEEOT_OT0_, symObjAddr: 0x27E1C, symBinAddr: 0x10002AF90, symSize: 0x34 }
  - { offsetInCU: 0x3F557, offset: 0x3F557, size: 0x8, addend: 0x0, symName: __ZNKSt3__112regex_traitsIcE20__lookup_collatenameIPKcEENS_12basic_stringIcNS_11char_traitsIcEENS_9allocatorIcEEEET_SB_c, symObjAddr: 0x27E50, symBinAddr: 0x10002AFC4, symSize: 0x220 }
  - { offsetInCU: 0x3F606, offset: 0x3F606, size: 0x8, addend: 0x0, symName: __ZNSt3__112basic_stringIcNS_11char_traitsIcEENS_9allocatorIcEEEC1B8ue170006IPKcLi0EEET_S9_, symObjAddr: 0x28070, symBinAddr: 0x10002B1E4, symSize: 0x3C }
  - { offsetInCU: 0x3F65D, offset: 0x3F65D, size: 0x8, addend: 0x0, symName: __ZNSt3__112basic_stringIcNS_11char_traitsIcEENS_9allocatorIcEEEC2B8ue170006IPKcLi0EEET_S9_, symObjAddr: 0x280AC, symBinAddr: 0x10002B220, symSize: 0x4C }
  - { offsetInCU: 0x3F6B4, offset: 0x3F6B4, size: 0x8, addend: 0x0, symName: __ZNSt3__112basic_stringIcNS_11char_traitsIcEENS_9allocatorIcEEE6__initIPKcLi0EEEvT_S9_, symObjAddr: 0x280F8, symBinAddr: 0x10002B26C, symSize: 0x54 }
  - { offsetInCU: 0x3F718, offset: 0x3F718, size: 0x8, addend: 0x0, symName: __ZNSt3__112basic_stringIcNS_11char_traitsIcEENS_9allocatorIcEEE16__init_with_sizeB8ue170006IPKcS8_EEvT_T0_m, symObjAddr: 0x28178, symBinAddr: 0x10002B2EC, symSize: 0x144 }
  - { offsetInCU: 0x3F7AB, offset: 0x3F7AB, size: 0x8, addend: 0x0, symName: __ZNKSt3__112regex_traitsIcE19__transform_primaryINS_11__wrap_iterIPcEEEENS_12basic_stringIcNS_11char_traitsIcEENS_9allocatorIcEEEET_SC_c, symObjAddr: 0x282DC, symBinAddr: 0x10002B450, symSize: 0x1AC }
  - { offsetInCU: 0x3F858, offset: 0x3F858, size: 0x8, addend: 0x0, symName: __ZNSt3__112basic_stringIcNS_11char_traitsIcEENS_9allocatorIcEEEC1B8ue170006INS_11__wrap_iterIPcEELi0EEET_SA_, symObjAddr: 0x28488, symBinAddr: 0x10002B5FC, symSize: 0x3C }
  - { offsetInCU: 0x3F8AF, offset: 0x3F8AF, size: 0x8, addend: 0x0, symName: __ZNSt3__112basic_stringIcNS_11char_traitsIcEENS_9allocatorIcEEEC2B8ue170006INS_11__wrap_iterIPcEELi0EEET_SA_, symObjAddr: 0x284C4, symBinAddr: 0x10002B638, symSize: 0x5C }
  - { offsetInCU: 0x3F906, offset: 0x3F906, size: 0x8, addend: 0x0, symName: __ZNSt3__112basic_stringIcNS_11char_traitsIcEENS_9allocatorIcEEE6__initINS_11__wrap_iterIPcEELi0EEEvT_SA_, symObjAddr: 0x28520, symBinAddr: 0x10002B694, symSize: 0x74 }
  - { offsetInCU: 0x3F96A, offset: 0x3F96A, size: 0x8, addend: 0x0, symName: __ZNSt3__112basic_stringIcNS_11char_traitsIcEENS_9allocatorIcEEE16__init_with_sizeB8ue170006INS_11__wrap_iterIPcEES9_EEvT_T0_m, symObjAddr: 0x285D0, symBinAddr: 0x10002B744, symSize: 0x14C }
  - { offsetInCU: 0x3F9FD, offset: 0x3F9FD, size: 0x8, addend: 0x0, symName: __ZNKSt3__111__wrap_iterIPcEdeB8ue170006Ev, symObjAddr: 0x287C0, symBinAddr: 0x10002B934, symSize: 0x18 }
  - { offsetInCU: 0x3FA23, offset: 0x3FA23, size: 0x8, addend: 0x0, symName: __ZNSt3__111__wrap_iterIPcEppB8ue170006Ev, symObjAddr: 0x287D8, symBinAddr: 0x10002B94C, symSize: 0x20 }
  - { offsetInCU: 0x3FA49, offset: 0x3FA49, size: 0x8, addend: 0x0, symName: __ZNKSt3__112regex_traitsIcE16lookup_classnameB8ue170006IPKcEEjT_S5_b, symObjAddr: 0x28840, symBinAddr: 0x10002B9B4, symSize: 0x4C }
  - { offsetInCU: 0x3FAA5, offset: 0x3FAA5, size: 0x8, addend: 0x0, symName: __ZNKSt3__112regex_traitsIcE18__lookup_classnameIPKcEEjT_S5_bc, symObjAddr: 0x288EC, symBinAddr: 0x10002BA60, symSize: 0xF0 }
  - { offsetInCU: 0x3FB1D, offset: 0x3FB1D, size: 0x8, addend: 0x0, symName: __ZNKSt3__15ctypeIcE7tolowerB8ue170006EPcPKc, symObjAddr: 0x289DC, symBinAddr: 0x10002BB50, symSize: 0x3C }
  - { offsetInCU: 0x3FB61, offset: 0x3FB61, size: 0x8, addend: 0x0, symName: __ZNSt3__120__bracket_expressionIcNS_12regex_traitsIcEEE15__add_neg_classB8ue170006Ej, symObjAddr: 0x28A18, symBinAddr: 0x10002BB8C, symSize: 0x28 }
  - { offsetInCU: 0x3FB96, offset: 0x3FB96, size: 0x8, addend: 0x0, symName: __ZNSt3__120__bracket_expressionIcNS_12regex_traitsIcEEE14__add_neg_charB8ue170006Ec, symObjAddr: 0x28A40, symBinAddr: 0x10002BBB4, symSize: 0xBC }
  - { offsetInCU: 0x3FBCB, offset: 0x3FBCB, size: 0x8, addend: 0x0, symName: __ZNSt3__16vectorINS_4pairINS_12basic_stringIcNS_11char_traitsIcEENS_9allocatorIcEEEES7_EENS5_IS8_EEE9push_backB8ue170006EOS8_, symObjAddr: 0x28AFC, symBinAddr: 0x10002BC70, symSize: 0x6C }
  - { offsetInCU: 0x3FC02, offset: 0x3FC02, size: 0x8, addend: 0x0, symName: __ZNKSt3__112regex_traitsIcE9transformINS_11__wrap_iterIPcEEEENS_12basic_stringIcNS_11char_traitsIcEENS_9allocatorIcEEEET_SC_, symObjAddr: 0x28BA8, symBinAddr: 0x10002BD1C, symSize: 0x100 }
  - { offsetInCU: 0x3FC93, offset: 0x3FC93, size: 0x8, addend: 0x0, symName: __ZNSt3__16vectorINS_4pairINS_12basic_stringIcNS_11char_traitsIcEENS_9allocatorIcEEEES7_EENS5_IS8_EEE9__end_capB8ue170006Ev, symObjAddr: 0x28D08, symBinAddr: 0x10002BE7C, symSize: 0x28 }
  - { offsetInCU: 0x3FCB9, offset: 0x3FCB9, size: 0x8, addend: 0x0, symName: __ZNSt3__16vectorINS_4pairINS_12basic_stringIcNS_11char_traitsIcEENS_9allocatorIcEEEES7_EENS5_IS8_EEE22__construct_one_at_endB8ue170006IJS8_EEEvDpOT_, symObjAddr: 0x28D30, symBinAddr: 0x10002BEA4, symSize: 0x90 }
  - { offsetInCU: 0x3FD08, offset: 0x3FD08, size: 0x8, addend: 0x0, symName: __ZNSt3__16vectorINS_4pairINS_12basic_stringIcNS_11char_traitsIcEENS_9allocatorIcEEEES7_EENS5_IS8_EEE21__push_back_slow_pathIS8_EEvOT_, symObjAddr: 0x28DC0, symBinAddr: 0x10002BF34, symSize: 0xD8 }
  - { offsetInCU: 0x3FD66, offset: 0x3FD66, size: 0x8, addend: 0x0, symName: __ZNSt3__117__compressed_pairIPNS_4pairINS_12basic_stringIcNS_11char_traitsIcEENS_9allocatorIcEEEES7_EENS5_IS8_EEE5firstB8ue170006Ev, symObjAddr: 0x28E98, symBinAddr: 0x10002C00C, symSize: 0x24 }
  - { offsetInCU: 0x3FD8C, offset: 0x3FD8C, size: 0x8, addend: 0x0, symName: __ZNSt3__122__compressed_pair_elemIPNS_4pairINS_12basic_stringIcNS_11char_traitsIcEENS_9allocatorIcEEEES7_EELi0ELb0EE5__getB8ue170006Ev, symObjAddr: 0x28EBC, symBinAddr: 0x10002C030, symSize: 0x14 }
  - { offsetInCU: 0x3FDCD, offset: 0x3FDCD, size: 0x8, addend: 0x0, symName: __ZNSt3__16vectorINS_4pairINS_12basic_stringIcNS_11char_traitsIcEENS_9allocatorIcEEEES7_EENS5_IS8_EEE21_ConstructTransactionC1B8ue170006ERSA_m, symObjAddr: 0x28ED0, symBinAddr: 0x10002C044, symSize: 0x3C }
  - { offsetInCU: 0x3FE15, offset: 0x3FE15, size: 0x8, addend: 0x0, symName: __ZNSt3__116allocator_traitsINS_9allocatorINS_4pairINS_12basic_stringIcNS_11char_traitsIcEENS1_IcEEEES7_EEEEE9constructB8ue170006IS8_JS8_EvEEvRS9_PT_DpOT0_, symObjAddr: 0x28F0C, symBinAddr: 0x10002C080, symSize: 0x34 }
  - { offsetInCU: 0x3FE6C, offset: 0x3FE6C, size: 0x8, addend: 0x0, symName: __ZNSt3__16vectorINS_4pairINS_12basic_stringIcNS_11char_traitsIcEENS_9allocatorIcEEEES7_EENS5_IS8_EEE21_ConstructTransactionD1B8ue170006Ev, symObjAddr: 0x28F40, symBinAddr: 0x10002C0B4, symSize: 0x2C }
  - { offsetInCU: 0x3FE96, offset: 0x3FE96, size: 0x8, addend: 0x0, symName: __ZNSt3__16vectorINS_4pairINS_12basic_stringIcNS_11char_traitsIcEENS_9allocatorIcEEEES7_EENS5_IS8_EEE21_ConstructTransactionC2B8ue170006ERSA_m, symObjAddr: 0x28F6C, symBinAddr: 0x10002C0E0, symSize: 0x4C }
  - { offsetInCU: 0x3FEDE, offset: 0x3FEDE, size: 0x8, addend: 0x0, symName: __ZNSt3__19allocatorINS_4pairINS_12basic_stringIcNS_11char_traitsIcEENS0_IcEEEES6_EEE9constructB8ue170006IS7_JS7_EEEvPT_DpOT0_, symObjAddr: 0x28FB8, symBinAddr: 0x10002C12C, symSize: 0x30 }
  - { offsetInCU: 0x3FF34, offset: 0x3FF34, size: 0x8, addend: 0x0, symName: __ZNSt3__14pairINS_12basic_stringIcNS_11char_traitsIcEENS_9allocatorIcEEEES6_EC1B8ue170006EOS7_, symObjAddr: 0x28FE8, symBinAddr: 0x10002C15C, symSize: 0x34 }
  - { offsetInCU: 0x3FF68, offset: 0x3FF68, size: 0x8, addend: 0x0, symName: __ZNSt3__14pairINS_12basic_stringIcNS_11char_traitsIcEENS_9allocatorIcEEEES6_EC2B8ue170006EOS7_, symObjAddr: 0x2901C, symBinAddr: 0x10002C190, symSize: 0x48 }
  - { offsetInCU: 0x3FF9C, offset: 0x3FF9C, size: 0x8, addend: 0x0, symName: __ZNSt3__16vectorINS_4pairINS_12basic_stringIcNS_11char_traitsIcEENS_9allocatorIcEEEES7_EENS5_IS8_EEE21_ConstructTransactionD2B8ue170006Ev, symObjAddr: 0x29064, symBinAddr: 0x10002C1D8, symSize: 0x20 }
  - { offsetInCU: 0x3FFC6, offset: 0x3FFC6, size: 0x8, addend: 0x0, symName: __ZNKSt3__16vectorINS_4pairINS_12basic_stringIcNS_11char_traitsIcEENS_9allocatorIcEEEES7_EENS5_IS8_EEE11__recommendB8ue170006Em, symObjAddr: 0x29084, symBinAddr: 0x10002C1F8, symSize: 0xB4 }
  - { offsetInCU: 0x4001B, offset: 0x4001B, size: 0x8, addend: 0x0, symName: __ZNSt3__114__split_bufferINS_4pairINS_12basic_stringIcNS_11char_traitsIcEENS_9allocatorIcEEEES7_EERNS5_IS8_EEEC1EmmSA_, symObjAddr: 0x29138, symBinAddr: 0x10002C2AC, symSize: 0x44 }
  - { offsetInCU: 0x40071, offset: 0x40071, size: 0x8, addend: 0x0, symName: __ZNSt3__114__split_bufferINS_4pairINS_12basic_stringIcNS_11char_traitsIcEENS_9allocatorIcEEEES7_EERNS5_IS8_EEED1Ev, symObjAddr: 0x2928C, symBinAddr: 0x10002C400, symSize: 0x2C }
  - { offsetInCU: 0x4009D, offset: 0x4009D, size: 0x8, addend: 0x0, symName: __ZNKSt3__16vectorINS_4pairINS_12basic_stringIcNS_11char_traitsIcEENS_9allocatorIcEEEES7_EENS5_IS8_EEE8max_sizeEv, symObjAddr: 0x292B8, symBinAddr: 0x10002C42C, symSize: 0x60 }
  - { offsetInCU: 0x400C5, offset: 0x400C5, size: 0x8, addend: 0x0, symName: __ZNKSt3__16vectorINS_4pairINS_12basic_stringIcNS_11char_traitsIcEENS_9allocatorIcEEEES7_EENS5_IS8_EEE20__throw_length_errorB8ue170006Ev, symObjAddr: 0x29318, symBinAddr: 0x10002C48C, symSize: 0x1C }
  - { offsetInCU: 0x400F6, offset: 0x400F6, size: 0x8, addend: 0x0, symName: __ZNSt3__116allocator_traitsINS_9allocatorINS_4pairINS_12basic_stringIcNS_11char_traitsIcEENS1_IcEEEES7_EEEEE8max_sizeB8ue170006IS9_vEEmRKS9_, symObjAddr: 0x29334, symBinAddr: 0x10002C4A8, symSize: 0x24 }
  - { offsetInCU: 0x40124, offset: 0x40124, size: 0x8, addend: 0x0, symName: __ZNKSt3__16vectorINS_4pairINS_12basic_stringIcNS_11char_traitsIcEENS_9allocatorIcEEEES7_EENS5_IS8_EEE7__allocB8ue170006Ev, symObjAddr: 0x29358, symBinAddr: 0x10002C4CC, symSize: 0x28 }
  - { offsetInCU: 0x4014A, offset: 0x4014A, size: 0x8, addend: 0x0, symName: __ZNKSt3__19allocatorINS_4pairINS_12basic_stringIcNS_11char_traitsIcEENS0_IcEEEES6_EEE8max_sizeB8ue170006Ev, symObjAddr: 0x29380, symBinAddr: 0x10002C4F4, symSize: 0x18 }
  - { offsetInCU: 0x40170, offset: 0x40170, size: 0x8, addend: 0x0, symName: __ZNKSt3__117__compressed_pairIPNS_4pairINS_12basic_stringIcNS_11char_traitsIcEENS_9allocatorIcEEEES7_EENS5_IS8_EEE6secondB8ue170006Ev, symObjAddr: 0x29398, symBinAddr: 0x10002C50C, symSize: 0x24 }
  - { offsetInCU: 0x40196, offset: 0x40196, size: 0x8, addend: 0x0, symName: __ZNKSt3__122__compressed_pair_elemINS_9allocatorINS_4pairINS_12basic_stringIcNS_11char_traitsIcEENS1_IcEEEES7_EEEELi1ELb1EE5__getB8ue170006Ev, symObjAddr: 0x293BC, symBinAddr: 0x10002C530, symSize: 0x14 }
  - { offsetInCU: 0x401BC, offset: 0x401BC, size: 0x8, addend: 0x0, symName: __ZNSt3__114__split_bufferINS_4pairINS_12basic_stringIcNS_11char_traitsIcEENS_9allocatorIcEEEES7_EERNS5_IS8_EEEC2EmmSA_, symObjAddr: 0x293D0, symBinAddr: 0x10002C544, symSize: 0xE0 }
  - { offsetInCU: 0x4022F, offset: 0x4022F, size: 0x8, addend: 0x0, symName: __ZNSt3__117__compressed_pairIPNS_4pairINS_12basic_stringIcNS_11char_traitsIcEENS_9allocatorIcEEEES7_EERNS5_IS8_EEEC1B8ue170006IDnSB_EEOT_OT0_, symObjAddr: 0x294B0, symBinAddr: 0x10002C624, symSize: 0x3C }
  - { offsetInCU: 0x40287, offset: 0x40287, size: 0x8, addend: 0x0, symName: __ZNSt3__114__split_bufferINS_4pairINS_12basic_stringIcNS_11char_traitsIcEENS_9allocatorIcEEEES7_EERNS5_IS8_EEE7__allocB8ue170006Ev, symObjAddr: 0x2952C, symBinAddr: 0x10002C6A0, symSize: 0x28 }
  - { offsetInCU: 0x402AD, offset: 0x402AD, size: 0x8, addend: 0x0, symName: __ZNSt3__114__split_bufferINS_4pairINS_12basic_stringIcNS_11char_traitsIcEENS_9allocatorIcEEEES7_EERNS5_IS8_EEE9__end_capB8ue170006Ev, symObjAddr: 0x29554, symBinAddr: 0x10002C6C8, symSize: 0x28 }
  - { offsetInCU: 0x402D3, offset: 0x402D3, size: 0x8, addend: 0x0, symName: __ZNSt3__117__compressed_pairIPNS_4pairINS_12basic_stringIcNS_11char_traitsIcEENS_9allocatorIcEEEES7_EERNS5_IS8_EEEC2B8ue170006IDnSB_EEOT_OT0_, symObjAddr: 0x2957C, symBinAddr: 0x10002C6F0, symSize: 0x48 }
  - { offsetInCU: 0x4032B, offset: 0x4032B, size: 0x8, addend: 0x0, symName: __ZNSt3__122__compressed_pair_elemIRNS_9allocatorINS_4pairINS_12basic_stringIcNS_11char_traitsIcEENS1_IcEEEES7_EEEELi1ELb0EEC2B8ue170006ISA_vEEOT_, symObjAddr: 0x295C4, symBinAddr: 0x10002C738, symSize: 0x20 }
  - { offsetInCU: 0x4036D, offset: 0x4036D, size: 0x8, addend: 0x0, symName: __ZNSt3__19allocatorINS_4pairINS_12basic_stringIcNS_11char_traitsIcEENS0_IcEEEES6_EEE8allocateB8ue170006Em, symObjAddr: 0x295E4, symBinAddr: 0x10002C758, symSize: 0x5C }
  - { offsetInCU: 0x403A1, offset: 0x403A1, size: 0x8, addend: 0x0, symName: __ZNSt3__117__compressed_pairIPNS_4pairINS_12basic_stringIcNS_11char_traitsIcEENS_9allocatorIcEEEES7_EERNS5_IS8_EEE6secondB8ue170006Ev, symObjAddr: 0x29640, symBinAddr: 0x10002C7B4, symSize: 0x28 }
  - { offsetInCU: 0x403C7, offset: 0x403C7, size: 0x8, addend: 0x0, symName: __ZNSt3__122__compressed_pair_elemIRNS_9allocatorINS_4pairINS_12basic_stringIcNS_11char_traitsIcEENS1_IcEEEES7_EEEELi1ELb0EE5__getB8ue170006Ev, symObjAddr: 0x29668, symBinAddr: 0x10002C7DC, symSize: 0x18 }
  - { offsetInCU: 0x403ED, offset: 0x403ED, size: 0x8, addend: 0x0, symName: __ZNSt3__117__compressed_pairIPNS_4pairINS_12basic_stringIcNS_11char_traitsIcEENS_9allocatorIcEEEES7_EERNS5_IS8_EEE5firstB8ue170006Ev, symObjAddr: 0x29680, symBinAddr: 0x10002C7F4, symSize: 0x24 }
  - { offsetInCU: 0x40413, offset: 0x40413, size: 0x8, addend: 0x0, symName: __ZNSt3__116reverse_iteratorIPNS_4pairINS_12basic_stringIcNS_11char_traitsIcEENS_9allocatorIcEEEES7_EEEC1B8ue170006ES9_, symObjAddr: 0x297D0, symBinAddr: 0x10002C944, symSize: 0x34 }
  - { offsetInCU: 0x4044B, offset: 0x4044B, size: 0x8, addend: 0x0, symName: __ZNKSt3__116reverse_iteratorIPNS_4pairINS_12basic_stringIcNS_11char_traitsIcEENS_9allocatorIcEEEES7_EEE4baseB8ue170006Ev, symObjAddr: 0x29804, symBinAddr: 0x10002C978, symSize: 0x18 }
  - { offsetInCU: 0x40471, offset: 0x40471, size: 0x8, addend: 0x0, symName: __ZNKSt3__16vectorINS_4pairINS_12basic_stringIcNS_11char_traitsIcEENS_9allocatorIcEEEES7_EENS5_IS8_EEE14__annotate_newB8ue170006Em, symObjAddr: 0x29858, symBinAddr: 0x10002C9CC, symSize: 0xC8 }
  - { offsetInCU: 0x404A6, offset: 0x404A6, size: 0x8, addend: 0x0, symName: __ZNSt3__129_AllocatorDestroyRangeReverseINS_9allocatorINS_4pairINS_12basic_stringIcNS_11char_traitsIcEENS1_IcEEEES7_EEEENS_16reverse_iteratorIPS8_EEEC1B8ue170006ERS9_RSC_SF_, symObjAddr: 0x2996C, symBinAddr: 0x10002CAE0, symSize: 0x44 }
  - { offsetInCU: 0x404FD, offset: 0x404FD, size: 0x8, addend: 0x0, symName: __ZNKSt3__116reverse_iteratorIPNS_4pairINS_12basic_stringIcNS_11char_traitsIcEENS_9allocatorIcEEEES7_EEEdeB8ue170006Ev, symObjAddr: 0x29A1C, symBinAddr: 0x10002CB90, symSize: 0x28 }
  - { offsetInCU: 0x40531, offset: 0x40531, size: 0x8, addend: 0x0, symName: __ZNSt3__116reverse_iteratorIPNS_4pairINS_12basic_stringIcNS_11char_traitsIcEENS_9allocatorIcEEEES7_EEEppB8ue170006Ev, symObjAddr: 0x29A44, symBinAddr: 0x10002CBB8, symSize: 0x20 }
  - { offsetInCU: 0x40557, offset: 0x40557, size: 0x8, addend: 0x0, symName: __ZNSt3__128__exception_guard_exceptionsINS_29_AllocatorDestroyRangeReverseINS_9allocatorINS_4pairINS_12basic_stringIcNS_11char_traitsIcEENS2_IcEEEES8_EEEENS_16reverse_iteratorIPS9_EEEEE10__completeB8ue170006Ev, symObjAddr: 0x29A64, symBinAddr: 0x10002CBD8, symSize: 0x1C }
  - { offsetInCU: 0x4057D, offset: 0x4057D, size: 0x8, addend: 0x0, symName: __ZNSt3__128__exception_guard_exceptionsINS_29_AllocatorDestroyRangeReverseINS_9allocatorINS_4pairINS_12basic_stringIcNS_11char_traitsIcEENS2_IcEEEES8_EEEENS_16reverse_iteratorIPS9_EEEEED1B8ue170006Ev, symObjAddr: 0x29A80, symBinAddr: 0x10002CBF4, symSize: 0x2C }
  - { offsetInCU: 0x405A7, offset: 0x405A7, size: 0x8, addend: 0x0, symName: __ZNSt3__128__exception_guard_exceptionsINS_29_AllocatorDestroyRangeReverseINS_9allocatorINS_4pairINS_12basic_stringIcNS_11char_traitsIcEENS2_IcEEEES8_EEEENS_16reverse_iteratorIPS9_EEEEEC1B8ue170006ESE_, symObjAddr: 0x29AAC, symBinAddr: 0x10002CC20, symSize: 0x34 }
  - { offsetInCU: 0x405E0, offset: 0x405E0, size: 0x8, addend: 0x0, symName: __ZNSt3__128__exception_guard_exceptionsINS_29_AllocatorDestroyRangeReverseINS_9allocatorINS_4pairINS_12basic_stringIcNS_11char_traitsIcEENS2_IcEEEES8_EEEENS_16reverse_iteratorIPS9_EEEEEC2B8ue170006ESE_, symObjAddr: 0x29AE0, symBinAddr: 0x10002CC54, symSize: 0x30 }
  - { offsetInCU: 0x40619, offset: 0x40619, size: 0x8, addend: 0x0, symName: __ZNSt3__129_AllocatorDestroyRangeReverseINS_9allocatorINS_4pairINS_12basic_stringIcNS_11char_traitsIcEENS1_IcEEEES7_EEEENS_16reverse_iteratorIPS8_EEEC2B8ue170006ERS9_RSC_SF_, symObjAddr: 0x29B10, symBinAddr: 0x10002CC84, symSize: 0x38 }
  - { offsetInCU: 0x40676, offset: 0x40676, size: 0x8, addend: 0x0, symName: __ZNSt3__119__to_address_helperINS_16reverse_iteratorIPNS_4pairINS_12basic_stringIcNS_11char_traitsIcEENS_9allocatorIcEEEES8_EEEEvE6__callB8ue170006ERKSB_, symObjAddr: 0x29B48, symBinAddr: 0x10002CCBC, symSize: 0x38 }
  - { offsetInCU: 0x40699, offset: 0x40699, size: 0x8, addend: 0x0, symName: __ZNKSt3__116reverse_iteratorIPNS_4pairINS_12basic_stringIcNS_11char_traitsIcEENS_9allocatorIcEEEES7_EEEptB8ue170006Ev, symObjAddr: 0x29B80, symBinAddr: 0x10002CCF4, symSize: 0x24 }
  - { offsetInCU: 0x406BF, offset: 0x406BF, size: 0x8, addend: 0x0, symName: __ZNSt3__128__exception_guard_exceptionsINS_29_AllocatorDestroyRangeReverseINS_9allocatorINS_4pairINS_12basic_stringIcNS_11char_traitsIcEENS2_IcEEEES8_EEEENS_16reverse_iteratorIPS9_EEEEED2B8ue170006Ev, symObjAddr: 0x29BA4, symBinAddr: 0x10002CD18, symSize: 0x50 }
  - { offsetInCU: 0x406E9, offset: 0x406E9, size: 0x8, addend: 0x0, symName: __ZNKSt3__129_AllocatorDestroyRangeReverseINS_9allocatorINS_4pairINS_12basic_stringIcNS_11char_traitsIcEENS1_IcEEEES7_EEEENS_16reverse_iteratorIPS8_EEEclB8ue170006Ev, symObjAddr: 0x29BF4, symBinAddr: 0x10002CD68, symSize: 0xB4 }
  - { offsetInCU: 0x40710, offset: 0x40710, size: 0x8, addend: 0x0, symName: __ZNSt3__116reverse_iteratorINS0_IPNS_4pairINS_12basic_stringIcNS_11char_traitsIcEENS_9allocatorIcEEEES7_EEEEEC1B8ue170006ESA_, symObjAddr: 0x29D18, symBinAddr: 0x10002CE8C, symSize: 0x3C }
  - { offsetInCU: 0x40748, offset: 0x40748, size: 0x8, addend: 0x0, symName: __ZNSt3__116reverse_iteratorINS0_IPNS_4pairINS_12basic_stringIcNS_11char_traitsIcEENS_9allocatorIcEEEES7_EEEEEppB8ue170006Ev, symObjAddr: 0x29DD8, symBinAddr: 0x10002CF4C, symSize: 0x30 }
  - { offsetInCU: 0x4076E, offset: 0x4076E, size: 0x8, addend: 0x0, symName: __ZNKSt3__116reverse_iteratorINS0_IPNS_4pairINS_12basic_stringIcNS_11char_traitsIcEENS_9allocatorIcEEEES7_EEEEE4baseB8ue170006Ev, symObjAddr: 0x29E08, symBinAddr: 0x10002CF7C, symSize: 0x24 }
  - { offsetInCU: 0x4079A, offset: 0x4079A, size: 0x8, addend: 0x0, symName: __ZNSt3__119__to_address_helperINS_16reverse_iteratorINS1_IPNS_4pairINS_12basic_stringIcNS_11char_traitsIcEENS_9allocatorIcEEEES8_EEEEEEvE6__callB8ue170006ERKSC_, symObjAddr: 0x29E2C, symBinAddr: 0x10002CFA0, symSize: 0x38 }
  - { offsetInCU: 0x407BD, offset: 0x407BD, size: 0x8, addend: 0x0, symName: __ZNKSt3__116reverse_iteratorINS0_IPNS_4pairINS_12basic_stringIcNS_11char_traitsIcEENS_9allocatorIcEEEES7_EEEEEptB8ue170006Ev, symObjAddr: 0x29E64, symBinAddr: 0x10002CFD8, symSize: 0x24 }
  - { offsetInCU: 0x407E3, offset: 0x407E3, size: 0x8, addend: 0x0, symName: __ZNKSt3__116reverse_iteratorINS0_IPNS_4pairINS_12basic_stringIcNS_11char_traitsIcEENS_9allocatorIcEEEES7_EEEEEdeB8ue170006Ev, symObjAddr: 0x29E88, symBinAddr: 0x10002CFFC, symSize: 0x34 }
  - { offsetInCU: 0x40817, offset: 0x40817, size: 0x8, addend: 0x0, symName: __ZNSt3__116reverse_iteratorIPNS_4pairINS_12basic_stringIcNS_11char_traitsIcEENS_9allocatorIcEEEES7_EEEmmB8ue170006Ev, symObjAddr: 0x29EBC, symBinAddr: 0x10002D030, symSize: 0x20 }
  - { offsetInCU: 0x4083D, offset: 0x4083D, size: 0x8, addend: 0x0, symName: __ZNSt3__116reverse_iteratorINS0_IPNS_4pairINS_12basic_stringIcNS_11char_traitsIcEENS_9allocatorIcEEEES7_EEEEEC2B8ue170006ESA_, symObjAddr: 0x29EDC, symBinAddr: 0x10002D050, symSize: 0x2C }
  - { offsetInCU: 0x40875, offset: 0x40875, size: 0x8, addend: 0x0, symName: __ZNSt3__116reverse_iteratorIPNS_4pairINS_12basic_stringIcNS_11char_traitsIcEENS_9allocatorIcEEEES7_EEEC2B8ue170006ES9_, symObjAddr: 0x29F08, symBinAddr: 0x10002D07C, symSize: 0x28 }
  - { offsetInCU: 0x408AD, offset: 0x408AD, size: 0x8, addend: 0x0, symName: __ZNSt3__114__split_bufferINS_4pairINS_12basic_stringIcNS_11char_traitsIcEENS_9allocatorIcEEEES7_EERNS5_IS8_EEED2Ev, symObjAddr: 0x29F30, symBinAddr: 0x10002D0A4, symSize: 0x8C }
  - { offsetInCU: 0x408D9, offset: 0x408D9, size: 0x8, addend: 0x0, symName: __ZNSt3__114__split_bufferINS_4pairINS_12basic_stringIcNS_11char_traitsIcEENS_9allocatorIcEEEES7_EERNS5_IS8_EEE5clearB8ue170006Ev, symObjAddr: 0x29FBC, symBinAddr: 0x10002D130, symSize: 0x28 }
  - { offsetInCU: 0x408FF, offset: 0x408FF, size: 0x8, addend: 0x0, symName: __ZNKSt3__114__split_bufferINS_4pairINS_12basic_stringIcNS_11char_traitsIcEENS_9allocatorIcEEEES7_EERNS5_IS8_EEE8capacityB8ue170006Ev, symObjAddr: 0x29FE4, symBinAddr: 0x10002D158, symSize: 0x40 }
  - { offsetInCU: 0x40925, offset: 0x40925, size: 0x8, addend: 0x0, symName: __ZNSt3__114__split_bufferINS_4pairINS_12basic_stringIcNS_11char_traitsIcEENS_9allocatorIcEEEES7_EERNS5_IS8_EEE17__destruct_at_endB8ue170006EPS8_, symObjAddr: 0x2A024, symBinAddr: 0x10002D198, symSize: 0x2C }
  - { offsetInCU: 0x40959, offset: 0x40959, size: 0x8, addend: 0x0, symName: __ZNSt3__114__split_bufferINS_4pairINS_12basic_stringIcNS_11char_traitsIcEENS_9allocatorIcEEEES7_EERNS5_IS8_EEE17__destruct_at_endB8ue170006EPS8_NS_17integral_constantIbLb0EEE, symObjAddr: 0x2A050, symBinAddr: 0x10002D1C4, symSize: 0x80 }
  - { offsetInCU: 0x40999, offset: 0x40999, size: 0x8, addend: 0x0, symName: __ZNKSt3__114__split_bufferINS_4pairINS_12basic_stringIcNS_11char_traitsIcEENS_9allocatorIcEEEES7_EERNS5_IS8_EEE9__end_capB8ue170006Ev, symObjAddr: 0x2A0D0, symBinAddr: 0x10002D244, symSize: 0x28 }
  - { offsetInCU: 0x409BF, offset: 0x409BF, size: 0x8, addend: 0x0, symName: __ZNKSt3__117__compressed_pairIPNS_4pairINS_12basic_stringIcNS_11char_traitsIcEENS_9allocatorIcEEEES7_EERNS5_IS8_EEE5firstB8ue170006Ev, symObjAddr: 0x2A0F8, symBinAddr: 0x10002D26C, symSize: 0x24 }
  - { offsetInCU: 0x409E5, offset: 0x409E5, size: 0x8, addend: 0x0, symName: __ZNSt3__14pairINS_12basic_stringIcNS_11char_traitsIcEENS_9allocatorIcEEEES6_EC1B8ue170006IS6_S6_LPv0EEEOT_OT0_, symObjAddr: 0x2A11C, symBinAddr: 0x10002D290, symSize: 0x3C }
  - { offsetInCU: 0x40A43, offset: 0x40A43, size: 0x8, addend: 0x0, symName: __ZNSt3__14pairINS_12basic_stringIcNS_11char_traitsIcEENS_9allocatorIcEEEES6_EC2B8ue170006IS6_S6_LPv0EEEOT_OT0_, symObjAddr: 0x2A158, symBinAddr: 0x10002D2CC, symSize: 0x48 }
  - { offsetInCU: 0x40AA1, offset: 0x40AA1, size: 0x8, addend: 0x0, symName: __ZNSt3__16vectorINS_4pairIccEENS_9allocatorIS2_EEE9push_backB8ue170006EOS2_, symObjAddr: 0x2A1A0, symBinAddr: 0x10002D314, symSize: 0x6C }
  - { offsetInCU: 0x40AD8, offset: 0x40AD8, size: 0x8, addend: 0x0, symName: __ZNSt3__16vectorINS_4pairIccEENS_9allocatorIS2_EEE9__end_capB8ue170006Ev, symObjAddr: 0x2A274, symBinAddr: 0x10002D3E8, symSize: 0x28 }
  - { offsetInCU: 0x40AFE, offset: 0x40AFE, size: 0x8, addend: 0x0, symName: __ZNSt3__16vectorINS_4pairIccEENS_9allocatorIS2_EEE22__construct_one_at_endB8ue170006IJS2_EEEvDpOT_, symObjAddr: 0x2A29C, symBinAddr: 0x10002D410, symSize: 0x90 }
  - { offsetInCU: 0x40B4D, offset: 0x40B4D, size: 0x8, addend: 0x0, symName: __ZNSt3__16vectorINS_4pairIccEENS_9allocatorIS2_EEE21__push_back_slow_pathIS2_EEvOT_, symObjAddr: 0x2A32C, symBinAddr: 0x10002D4A0, symSize: 0xD8 }
  - { offsetInCU: 0x40BAB, offset: 0x40BAB, size: 0x8, addend: 0x0, symName: __ZNSt3__117__compressed_pairIPNS_4pairIccEENS_9allocatorIS2_EEE5firstB8ue170006Ev, symObjAddr: 0x2A404, symBinAddr: 0x10002D578, symSize: 0x24 }
  - { offsetInCU: 0x40BD1, offset: 0x40BD1, size: 0x8, addend: 0x0, symName: __ZNSt3__122__compressed_pair_elemIPNS_4pairIccEELi0ELb0EE5__getB8ue170006Ev, symObjAddr: 0x2A428, symBinAddr: 0x10002D59C, symSize: 0x14 }
  - { offsetInCU: 0x40C12, offset: 0x40C12, size: 0x8, addend: 0x0, symName: __ZNSt3__16vectorINS_4pairIccEENS_9allocatorIS2_EEE21_ConstructTransactionC1B8ue170006ERS5_m, symObjAddr: 0x2A43C, symBinAddr: 0x10002D5B0, symSize: 0x3C }
  - { offsetInCU: 0x40C5A, offset: 0x40C5A, size: 0x8, addend: 0x0, symName: __ZNSt3__116allocator_traitsINS_9allocatorINS_4pairIccEEEEE9constructB8ue170006IS3_JS3_EvEEvRS4_PT_DpOT0_, symObjAddr: 0x2A478, symBinAddr: 0x10002D5EC, symSize: 0x34 }
  - { offsetInCU: 0x40CB1, offset: 0x40CB1, size: 0x8, addend: 0x0, symName: __ZNSt3__16vectorINS_4pairIccEENS_9allocatorIS2_EEE21_ConstructTransactionD1B8ue170006Ev, symObjAddr: 0x2A4AC, symBinAddr: 0x10002D620, symSize: 0x2C }
  - { offsetInCU: 0x40CDB, offset: 0x40CDB, size: 0x8, addend: 0x0, symName: __ZNSt3__16vectorINS_4pairIccEENS_9allocatorIS2_EEE21_ConstructTransactionC2B8ue170006ERS5_m, symObjAddr: 0x2A4D8, symBinAddr: 0x10002D64C, symSize: 0x44 }
  - { offsetInCU: 0x40D23, offset: 0x40D23, size: 0x8, addend: 0x0, symName: __ZNSt3__19allocatorINS_4pairIccEEE9constructB8ue170006IS2_JS2_EEEvPT_DpOT0_, symObjAddr: 0x2A51C, symBinAddr: 0x10002D690, symSize: 0x28 }
  - { offsetInCU: 0x40D79, offset: 0x40D79, size: 0x8, addend: 0x0, symName: __ZNSt3__16vectorINS_4pairIccEENS_9allocatorIS2_EEE21_ConstructTransactionD2B8ue170006Ev, symObjAddr: 0x2A544, symBinAddr: 0x10002D6B8, symSize: 0x20 }
  - { offsetInCU: 0x40DA3, offset: 0x40DA3, size: 0x8, addend: 0x0, symName: __ZNKSt3__16vectorINS_4pairIccEENS_9allocatorIS2_EEE11__recommendB8ue170006Em, symObjAddr: 0x2A564, symBinAddr: 0x10002D6D8, symSize: 0xB4 }
  - { offsetInCU: 0x40DF8, offset: 0x40DF8, size: 0x8, addend: 0x0, symName: __ZNSt3__114__split_bufferINS_4pairIccEERNS_9allocatorIS2_EEEC1EmmS5_, symObjAddr: 0x2A618, symBinAddr: 0x10002D78C, symSize: 0x44 }
  - { offsetInCU: 0x40E4E, offset: 0x40E4E, size: 0x8, addend: 0x0, symName: __ZNSt3__114__split_bufferINS_4pairIccEERNS_9allocatorIS2_EEED1Ev, symObjAddr: 0x2A76C, symBinAddr: 0x10002D8E0, symSize: 0x2C }
  - { offsetInCU: 0x40E7A, offset: 0x40E7A, size: 0x8, addend: 0x0, symName: __ZNKSt3__16vectorINS_4pairIccEENS_9allocatorIS2_EEE8max_sizeEv, symObjAddr: 0x2A798, symBinAddr: 0x10002D90C, symSize: 0x60 }
  - { offsetInCU: 0x40EA2, offset: 0x40EA2, size: 0x8, addend: 0x0, symName: __ZNKSt3__16vectorINS_4pairIccEENS_9allocatorIS2_EEE20__throw_length_errorB8ue170006Ev, symObjAddr: 0x2A7F8, symBinAddr: 0x10002D96C, symSize: 0x1C }
  - { offsetInCU: 0x40ED3, offset: 0x40ED3, size: 0x8, addend: 0x0, symName: __ZNSt3__116allocator_traitsINS_9allocatorINS_4pairIccEEEEE8max_sizeB8ue170006IS4_vEEmRKS4_, symObjAddr: 0x2A814, symBinAddr: 0x10002D988, symSize: 0x24 }
  - { offsetInCU: 0x40F01, offset: 0x40F01, size: 0x8, addend: 0x0, symName: __ZNKSt3__16vectorINS_4pairIccEENS_9allocatorIS2_EEE7__allocB8ue170006Ev, symObjAddr: 0x2A838, symBinAddr: 0x10002D9AC, symSize: 0x28 }
  - { offsetInCU: 0x40F27, offset: 0x40F27, size: 0x8, addend: 0x0, symName: __ZNKSt3__19allocatorINS_4pairIccEEE8max_sizeB8ue170006Ev, symObjAddr: 0x2A860, symBinAddr: 0x10002D9D4, symSize: 0x14 }
  - { offsetInCU: 0x40F4D, offset: 0x40F4D, size: 0x8, addend: 0x0, symName: __ZNKSt3__117__compressed_pairIPNS_4pairIccEENS_9allocatorIS2_EEE6secondB8ue170006Ev, symObjAddr: 0x2A874, symBinAddr: 0x10002D9E8, symSize: 0x24 }
  - { offsetInCU: 0x40F73, offset: 0x40F73, size: 0x8, addend: 0x0, symName: __ZNKSt3__122__compressed_pair_elemINS_9allocatorINS_4pairIccEEEELi1ELb1EE5__getB8ue170006Ev, symObjAddr: 0x2A898, symBinAddr: 0x10002DA0C, symSize: 0x14 }
  - { offsetInCU: 0x40F99, offset: 0x40F99, size: 0x8, addend: 0x0, symName: __ZNSt3__114__split_bufferINS_4pairIccEERNS_9allocatorIS2_EEEC2EmmS5_, symObjAddr: 0x2A8AC, symBinAddr: 0x10002DA20, symSize: 0xD4 }
  - { offsetInCU: 0x4100C, offset: 0x4100C, size: 0x8, addend: 0x0, symName: __ZNSt3__117__compressed_pairIPNS_4pairIccEERNS_9allocatorIS2_EEEC1B8ue170006IDnS6_EEOT_OT0_, symObjAddr: 0x2A980, symBinAddr: 0x10002DAF4, symSize: 0x3C }
  - { offsetInCU: 0x41064, offset: 0x41064, size: 0x8, addend: 0x0, symName: __ZNSt3__114__split_bufferINS_4pairIccEERNS_9allocatorIS2_EEE7__allocB8ue170006Ev, symObjAddr: 0x2A9FC, symBinAddr: 0x10002DB70, symSize: 0x28 }
  - { offsetInCU: 0x4108A, offset: 0x4108A, size: 0x8, addend: 0x0, symName: __ZNSt3__114__split_bufferINS_4pairIccEERNS_9allocatorIS2_EEE9__end_capB8ue170006Ev, symObjAddr: 0x2AA24, symBinAddr: 0x10002DB98, symSize: 0x28 }
  - { offsetInCU: 0x410B0, offset: 0x410B0, size: 0x8, addend: 0x0, symName: __ZNSt3__117__compressed_pairIPNS_4pairIccEERNS_9allocatorIS2_EEEC2B8ue170006IDnS6_EEOT_OT0_, symObjAddr: 0x2AA4C, symBinAddr: 0x10002DBC0, symSize: 0x48 }
  - { offsetInCU: 0x41108, offset: 0x41108, size: 0x8, addend: 0x0, symName: __ZNSt3__122__compressed_pair_elemIRNS_9allocatorINS_4pairIccEEEELi1ELb0EEC2B8ue170006IS5_vEEOT_, symObjAddr: 0x2AA94, symBinAddr: 0x10002DC08, symSize: 0x20 }
  - { offsetInCU: 0x4114A, offset: 0x4114A, size: 0x8, addend: 0x0, symName: __ZNSt3__19allocatorINS_4pairIccEEE8allocateB8ue170006Em, symObjAddr: 0x2AAB4, symBinAddr: 0x10002DC28, symSize: 0x58 }
  - { offsetInCU: 0x4117E, offset: 0x4117E, size: 0x8, addend: 0x0, symName: __ZNSt3__117__compressed_pairIPNS_4pairIccEERNS_9allocatorIS2_EEE6secondB8ue170006Ev, symObjAddr: 0x2AB0C, symBinAddr: 0x10002DC80, symSize: 0x28 }
  - { offsetInCU: 0x411A4, offset: 0x411A4, size: 0x8, addend: 0x0, symName: __ZNSt3__122__compressed_pair_elemIRNS_9allocatorINS_4pairIccEEEELi1ELb0EE5__getB8ue170006Ev, symObjAddr: 0x2AB34, symBinAddr: 0x10002DCA8, symSize: 0x18 }
  - { offsetInCU: 0x411CA, offset: 0x411CA, size: 0x8, addend: 0x0, symName: __ZNSt3__117__compressed_pairIPNS_4pairIccEERNS_9allocatorIS2_EEE5firstB8ue170006Ev, symObjAddr: 0x2AB4C, symBinAddr: 0x10002DCC0, symSize: 0x24 }
  - { offsetInCU: 0x411F0, offset: 0x411F0, size: 0x8, addend: 0x0, symName: __ZNSt3__116reverse_iteratorIPNS_4pairIccEEEC1B8ue170006ES3_, symObjAddr: 0x2AC9C, symBinAddr: 0x10002DE10, symSize: 0x34 }
  - { offsetInCU: 0x41228, offset: 0x41228, size: 0x8, addend: 0x0, symName: __ZNKSt3__116reverse_iteratorIPNS_4pairIccEEE4baseB8ue170006Ev, symObjAddr: 0x2ACD0, symBinAddr: 0x10002DE44, symSize: 0x18 }
  - { offsetInCU: 0x4124E, offset: 0x4124E, size: 0x8, addend: 0x0, symName: __ZNKSt3__16vectorINS_4pairIccEENS_9allocatorIS2_EEE14__annotate_newB8ue170006Em, symObjAddr: 0x2AD24, symBinAddr: 0x10002DE98, symSize: 0xAC }
  - { offsetInCU: 0x41283, offset: 0x41283, size: 0x8, addend: 0x0, symName: __ZNSt3__129_AllocatorDestroyRangeReverseINS_9allocatorINS_4pairIccEEEENS_16reverse_iteratorIPS3_EEEC1B8ue170006ERS4_RS7_SA_, symObjAddr: 0x2AE1C, symBinAddr: 0x10002DF90, symSize: 0x44 }
  - { offsetInCU: 0x412DA, offset: 0x412DA, size: 0x8, addend: 0x0, symName: __ZNKSt3__116reverse_iteratorIPNS_4pairIccEEEdeB8ue170006Ev, symObjAddr: 0x2AECC, symBinAddr: 0x10002E040, symSize: 0x28 }
  - { offsetInCU: 0x4130E, offset: 0x4130E, size: 0x8, addend: 0x0, symName: __ZNSt3__116reverse_iteratorIPNS_4pairIccEEEppB8ue170006Ev, symObjAddr: 0x2AEF4, symBinAddr: 0x10002E068, symSize: 0x20 }
  - { offsetInCU: 0x41334, offset: 0x41334, size: 0x8, addend: 0x0, symName: __ZNSt3__128__exception_guard_exceptionsINS_29_AllocatorDestroyRangeReverseINS_9allocatorINS_4pairIccEEEENS_16reverse_iteratorIPS4_EEEEE10__completeB8ue170006Ev, symObjAddr: 0x2AF14, symBinAddr: 0x10002E088, symSize: 0x1C }
  - { offsetInCU: 0x4135A, offset: 0x4135A, size: 0x8, addend: 0x0, symName: __ZNSt3__128__exception_guard_exceptionsINS_29_AllocatorDestroyRangeReverseINS_9allocatorINS_4pairIccEEEENS_16reverse_iteratorIPS4_EEEEED1B8ue170006Ev, symObjAddr: 0x2AF30, symBinAddr: 0x10002E0A4, symSize: 0x2C }
  - { offsetInCU: 0x41384, offset: 0x41384, size: 0x8, addend: 0x0, symName: __ZNSt3__128__exception_guard_exceptionsINS_29_AllocatorDestroyRangeReverseINS_9allocatorINS_4pairIccEEEENS_16reverse_iteratorIPS4_EEEEEC1B8ue170006ES9_, symObjAddr: 0x2AF5C, symBinAddr: 0x10002E0D0, symSize: 0x34 }
  - { offsetInCU: 0x413BD, offset: 0x413BD, size: 0x8, addend: 0x0, symName: __ZNSt3__128__exception_guard_exceptionsINS_29_AllocatorDestroyRangeReverseINS_9allocatorINS_4pairIccEEEENS_16reverse_iteratorIPS4_EEEEEC2B8ue170006ES9_, symObjAddr: 0x2AF90, symBinAddr: 0x10002E104, symSize: 0x30 }
  - { offsetInCU: 0x413F6, offset: 0x413F6, size: 0x8, addend: 0x0, symName: __ZNSt3__129_AllocatorDestroyRangeReverseINS_9allocatorINS_4pairIccEEEENS_16reverse_iteratorIPS3_EEEC2B8ue170006ERS4_RS7_SA_, symObjAddr: 0x2AFC0, symBinAddr: 0x10002E134, symSize: 0x38 }
  - { offsetInCU: 0x41453, offset: 0x41453, size: 0x8, addend: 0x0, symName: __ZNSt3__119__to_address_helperINS_16reverse_iteratorIPNS_4pairIccEEEEvE6__callB8ue170006ERKS5_, symObjAddr: 0x2AFF8, symBinAddr: 0x10002E16C, symSize: 0x38 }
  - { offsetInCU: 0x41476, offset: 0x41476, size: 0x8, addend: 0x0, symName: __ZNKSt3__116reverse_iteratorIPNS_4pairIccEEEptB8ue170006Ev, symObjAddr: 0x2B030, symBinAddr: 0x10002E1A4, symSize: 0x24 }
  - { offsetInCU: 0x4149C, offset: 0x4149C, size: 0x8, addend: 0x0, symName: __ZNSt3__128__exception_guard_exceptionsINS_29_AllocatorDestroyRangeReverseINS_9allocatorINS_4pairIccEEEENS_16reverse_iteratorIPS4_EEEEED2B8ue170006Ev, symObjAddr: 0x2B054, symBinAddr: 0x10002E1C8, symSize: 0x50 }
  - { offsetInCU: 0x414C6, offset: 0x414C6, size: 0x8, addend: 0x0, symName: __ZNKSt3__129_AllocatorDestroyRangeReverseINS_9allocatorINS_4pairIccEEEENS_16reverse_iteratorIPS3_EEEclB8ue170006Ev, symObjAddr: 0x2B0A4, symBinAddr: 0x10002E218, symSize: 0xB4 }
  - { offsetInCU: 0x414ED, offset: 0x414ED, size: 0x8, addend: 0x0, symName: __ZNSt3__116reverse_iteratorINS0_IPNS_4pairIccEEEEEC1B8ue170006ES4_, symObjAddr: 0x2B1C8, symBinAddr: 0x10002E33C, symSize: 0x3C }
  - { offsetInCU: 0x41525, offset: 0x41525, size: 0x8, addend: 0x0, symName: __ZNSt3__116reverse_iteratorINS0_IPNS_4pairIccEEEEEppB8ue170006Ev, symObjAddr: 0x2B288, symBinAddr: 0x10002E3FC, symSize: 0x30 }
  - { offsetInCU: 0x4154B, offset: 0x4154B, size: 0x8, addend: 0x0, symName: __ZNKSt3__116reverse_iteratorINS0_IPNS_4pairIccEEEEE4baseB8ue170006Ev, symObjAddr: 0x2B2B8, symBinAddr: 0x10002E42C, symSize: 0x24 }
  - { offsetInCU: 0x41577, offset: 0x41577, size: 0x8, addend: 0x0, symName: __ZNSt3__119__to_address_helperINS_16reverse_iteratorINS1_IPNS_4pairIccEEEEEEvE6__callB8ue170006ERKS6_, symObjAddr: 0x2B2DC, symBinAddr: 0x10002E450, symSize: 0x38 }
  - { offsetInCU: 0x4159A, offset: 0x4159A, size: 0x8, addend: 0x0, symName: __ZNKSt3__116reverse_iteratorINS0_IPNS_4pairIccEEEEEptB8ue170006Ev, symObjAddr: 0x2B314, symBinAddr: 0x10002E488, symSize: 0x24 }
  - { offsetInCU: 0x415C0, offset: 0x415C0, size: 0x8, addend: 0x0, symName: __ZNKSt3__116reverse_iteratorINS0_IPNS_4pairIccEEEEEdeB8ue170006Ev, symObjAddr: 0x2B338, symBinAddr: 0x10002E4AC, symSize: 0x34 }
  - { offsetInCU: 0x415F4, offset: 0x415F4, size: 0x8, addend: 0x0, symName: __ZNSt3__116reverse_iteratorIPNS_4pairIccEEEmmB8ue170006Ev, symObjAddr: 0x2B36C, symBinAddr: 0x10002E4E0, symSize: 0x20 }
  - { offsetInCU: 0x4161A, offset: 0x4161A, size: 0x8, addend: 0x0, symName: __ZNSt3__116reverse_iteratorINS0_IPNS_4pairIccEEEEEC2B8ue170006ES4_, symObjAddr: 0x2B38C, symBinAddr: 0x10002E500, symSize: 0x2C }
  - { offsetInCU: 0x41652, offset: 0x41652, size: 0x8, addend: 0x0, symName: __ZNSt3__116reverse_iteratorIPNS_4pairIccEEEC2B8ue170006ES3_, symObjAddr: 0x2B3B8, symBinAddr: 0x10002E52C, symSize: 0x28 }
  - { offsetInCU: 0x4168A, offset: 0x4168A, size: 0x8, addend: 0x0, symName: __ZNSt3__114__split_bufferINS_4pairIccEERNS_9allocatorIS2_EEED2Ev, symObjAddr: 0x2B3E0, symBinAddr: 0x10002E554, symSize: 0x8C }
  - { offsetInCU: 0x416B6, offset: 0x416B6, size: 0x8, addend: 0x0, symName: __ZNSt3__114__split_bufferINS_4pairIccEERNS_9allocatorIS2_EEE5clearB8ue170006Ev, symObjAddr: 0x2B46C, symBinAddr: 0x10002E5E0, symSize: 0x28 }
  - { offsetInCU: 0x416DC, offset: 0x416DC, size: 0x8, addend: 0x0, symName: __ZNKSt3__114__split_bufferINS_4pairIccEERNS_9allocatorIS2_EEE8capacityB8ue170006Ev, symObjAddr: 0x2B494, symBinAddr: 0x10002E608, symSize: 0x40 }
  - { offsetInCU: 0x41702, offset: 0x41702, size: 0x8, addend: 0x0, symName: __ZNSt3__114__split_bufferINS_4pairIccEERNS_9allocatorIS2_EEE17__destruct_at_endB8ue170006EPS2_, symObjAddr: 0x2B4D4, symBinAddr: 0x10002E648, symSize: 0x2C }
  - { offsetInCU: 0x41736, offset: 0x41736, size: 0x8, addend: 0x0, symName: __ZNSt3__114__split_bufferINS_4pairIccEERNS_9allocatorIS2_EEE17__destruct_at_endB8ue170006EPS2_NS_17integral_constantIbLb0EEE, symObjAddr: 0x2B500, symBinAddr: 0x10002E674, symSize: 0x80 }
  - { offsetInCU: 0x41776, offset: 0x41776, size: 0x8, addend: 0x0, symName: __ZNKSt3__114__split_bufferINS_4pairIccEERNS_9allocatorIS2_EEE9__end_capB8ue170006Ev, symObjAddr: 0x2B580, symBinAddr: 0x10002E6F4, symSize: 0x28 }
  - { offsetInCU: 0x4179C, offset: 0x4179C, size: 0x8, addend: 0x0, symName: __ZNKSt3__117__compressed_pairIPNS_4pairIccEERNS_9allocatorIS2_EEE5firstB8ue170006Ev, symObjAddr: 0x2B5A8, symBinAddr: 0x10002E71C, symSize: 0x24 }
  - { offsetInCU: 0x417C2, offset: 0x417C2, size: 0x8, addend: 0x0, symName: __ZNSt3__14pairIccEC1B8ue170006IccLPv0EEEOT_OT0_, symObjAddr: 0x2B5CC, symBinAddr: 0x10002E740, symSize: 0x3C }
  - { offsetInCU: 0x41820, offset: 0x41820, size: 0x8, addend: 0x0, symName: __ZNSt3__14pairIccEC2B8ue170006IccLPv0EEEOT_OT0_, symObjAddr: 0x2B608, symBinAddr: 0x10002E77C, symSize: 0x34 }
  - { offsetInCU: 0x4187E, offset: 0x4187E, size: 0x8, addend: 0x0, symName: __ZNSt3__14pairIccEC1B8ue170006IRcS3_LPv0EEEOT_OT0_, symObjAddr: 0x2B63C, symBinAddr: 0x10002E7B0, symSize: 0x3C }
  - { offsetInCU: 0x418DC, offset: 0x418DC, size: 0x8, addend: 0x0, symName: __ZNSt3__14pairIccEC2B8ue170006IRcS3_LPv0EEEOT_OT0_, symObjAddr: 0x2B678, symBinAddr: 0x10002E7EC, symSize: 0x34 }
  - { offsetInCU: 0x4194F, offset: 0x4194F, size: 0x8, addend: 0x0, symName: __ZNSt3__128__begin_marked_subexpressionIcEC1B8ue170006EjPNS_6__nodeIcEE, symObjAddr: 0x2B6AC, symBinAddr: 0x10002E820, symSize: 0x3C }
  - { offsetInCU: 0x41997, offset: 0x41997, size: 0x8, addend: 0x0, symName: __ZNSt3__128__begin_marked_subexpressionIcEC2B8ue170006EjPNS_6__nodeIcEE, symObjAddr: 0x2B6E8, symBinAddr: 0x10002E85C, symSize: 0x58 }
  - { offsetInCU: 0x419DF, offset: 0x419DF, size: 0x8, addend: 0x0, symName: __ZNSt3__128__begin_marked_subexpressionIcED1Ev, symObjAddr: 0x2B740, symBinAddr: 0x10002E8B4, symSize: 0x2C }
  - { offsetInCU: 0x41A0C, offset: 0x41A0C, size: 0x8, addend: 0x0, symName: __ZNSt3__128__begin_marked_subexpressionIcED0Ev, symObjAddr: 0x2B76C, symBinAddr: 0x10002E8E0, symSize: 0x30 }
  - { offsetInCU: 0x41A39, offset: 0x41A39, size: 0x8, addend: 0x0, symName: __ZNKSt3__128__begin_marked_subexpressionIcE6__execERNS_7__stateIcEE, symObjAddr: 0x2B79C, symBinAddr: 0x10002E910, symSize: 0x74 }
  - { offsetInCU: 0x41A70, offset: 0x41A70, size: 0x8, addend: 0x0, symName: __ZNSt3__128__begin_marked_subexpressionIcED2Ev, symObjAddr: 0x2B810, symBinAddr: 0x10002E984, symSize: 0x2C }
  - { offsetInCU: 0x41AB2, offset: 0x41AB2, size: 0x8, addend: 0x0, symName: __ZNSt3__126__end_marked_subexpressionIcEC1B8ue170006EjPNS_6__nodeIcEE, symObjAddr: 0x2B83C, symBinAddr: 0x10002E9B0, symSize: 0x3C }
  - { offsetInCU: 0x41AFA, offset: 0x41AFA, size: 0x8, addend: 0x0, symName: __ZNSt3__126__end_marked_subexpressionIcEC2B8ue170006EjPNS_6__nodeIcEE, symObjAddr: 0x2B878, symBinAddr: 0x10002E9EC, symSize: 0x58 }
  - { offsetInCU: 0x41B42, offset: 0x41B42, size: 0x8, addend: 0x0, symName: __ZNSt3__126__end_marked_subexpressionIcED1Ev, symObjAddr: 0x2B8D0, symBinAddr: 0x10002EA44, symSize: 0x2C }
  - { offsetInCU: 0x41B6F, offset: 0x41B6F, size: 0x8, addend: 0x0, symName: __ZNSt3__126__end_marked_subexpressionIcED0Ev, symObjAddr: 0x2B8FC, symBinAddr: 0x10002EA70, symSize: 0x30 }
  - { offsetInCU: 0x41B9C, offset: 0x41B9C, size: 0x8, addend: 0x0, symName: __ZNKSt3__126__end_marked_subexpressionIcE6__execERNS_7__stateIcEE, symObjAddr: 0x2B92C, symBinAddr: 0x10002EAA0, symSize: 0x98 }
  - { offsetInCU: 0x41BD3, offset: 0x41BD3, size: 0x8, addend: 0x0, symName: __ZNSt3__126__end_marked_subexpressionIcED2Ev, symObjAddr: 0x2B9C4, symBinAddr: 0x10002EB38, symSize: 0x2C }
  - { offsetInCU: 0x41C00, offset: 0x41C00, size: 0x8, addend: 0x0, symName: __ZNSt3__111basic_regexIcNS_12regex_traitsIcEEE27__push_nongreedy_inf_repeatB8ue170006EmPNS_16__owns_one_stateIcEEjj, symObjAddr: 0x2B9F0, symBinAddr: 0x10002EB64, symSize: 0x6C }
  - { offsetInCU: 0x41C62, offset: 0x41C62, size: 0x8, addend: 0x0, symName: __ZNSt3__111basic_regexIcNS_12regex_traitsIcEEE24__push_greedy_inf_repeatB8ue170006EmPNS_16__owns_one_stateIcEEjj, symObjAddr: 0x2BA5C, symBinAddr: 0x10002EBD0, symSize: 0x6C }
  - { offsetInCU: 0x41CC4, offset: 0x41CC4, size: 0x8, addend: 0x0, symName: __ZNSt3__111basic_regexIcNS_12regex_traitsIcEEE11__push_loopEmmPNS_16__owns_one_stateIcEEmmb, symObjAddr: 0x2BAC8, symBinAddr: 0x10002EC3C, symSize: 0x258 }
  - { offsetInCU: 0x41D65, offset: 0x41D65, size: 0x8, addend: 0x0, symName: __ZNSt3__111basic_regexIcNS_12regex_traitsIcEEE17__parse_DUP_COUNTIPKcEET_S7_S7_Ri, symObjAddr: 0x2BD20, symBinAddr: 0x10002EE94, symSize: 0x15C }
  - { offsetInCU: 0x41DE0, offset: 0x41DE0, size: 0x8, addend: 0x0, symName: __ZNKSt3__110unique_ptrINS_13__empty_stateIcEENS_14default_deleteIS2_EEE3getB8ue170006Ev, symObjAddr: 0x2BF3C, symBinAddr: 0x10002F0B0, symSize: 0x28 }
  - { offsetInCU: 0x41E35, offset: 0x41E35, size: 0x8, addend: 0x0, symName: __ZNSt3__16__loopIcEC1B8ue170006EjPNS_6__nodeIcEEPNS_16__owns_one_stateIcEEjjbmm, symObjAddr: 0x2BF64, symBinAddr: 0x10002F0D8, symSize: 0x84 }
  - { offsetInCU: 0x41F7C, offset: 0x41F7C, size: 0x8, addend: 0x0, symName: __ZNSt3__110unique_ptrINS_6__loopIcEENS_14default_deleteIS2_EEEC1B8ue170006ILb1EvEEPS2_, symObjAddr: 0x2BFE8, symBinAddr: 0x10002F15C, symSize: 0x34 }
  - { offsetInCU: 0x41FBF, offset: 0x41FBF, size: 0x8, addend: 0x0, symName: __ZNKSt3__110unique_ptrINS_6__loopIcEENS_14default_deleteIS2_EEE3getB8ue170006Ev, symObjAddr: 0x2C01C, symBinAddr: 0x10002F190, symSize: 0x28 }
  - { offsetInCU: 0x41FFA, offset: 0x41FFA, size: 0x8, addend: 0x0, symName: __ZNSt3__117__repeat_one_loopIcEC1B8ue170006EPNS_6__nodeIcEE, symObjAddr: 0x2C044, symBinAddr: 0x10002F1B8, symSize: 0x34 }
  - { offsetInCU: 0x42033, offset: 0x42033, size: 0x8, addend: 0x0, symName: __ZNKSt3__110unique_ptrINS_6__loopIcEENS_14default_deleteIS2_EEEptB8ue170006Ev, symObjAddr: 0x2C078, symBinAddr: 0x10002F1EC, symSize: 0x28 }
  - { offsetInCU: 0x42059, offset: 0x42059, size: 0x8, addend: 0x0, symName: __ZNSt3__117__owns_two_statesIcE6secondB8ue170006Ev, symObjAddr: 0x2C0A0, symBinAddr: 0x10002F214, symSize: 0x18 }
  - { offsetInCU: 0x4207F, offset: 0x4207F, size: 0x8, addend: 0x0, symName: __ZNSt3__110unique_ptrINS_6__loopIcEENS_14default_deleteIS2_EEE7releaseB8ue170006Ev, symObjAddr: 0x2C0B8, symBinAddr: 0x10002F22C, symSize: 0x44 }
  - { offsetInCU: 0x420B4, offset: 0x420B4, size: 0x8, addend: 0x0, symName: __ZNSt3__110unique_ptrINS_6__loopIcEENS_14default_deleteIS2_EEED1B8ue170006Ev, symObjAddr: 0x2C0FC, symBinAddr: 0x10002F270, symSize: 0x2C }
  - { offsetInCU: 0x420DE, offset: 0x420DE, size: 0x8, addend: 0x0, symName: __ZNKSt3__117__compressed_pairIPNS_13__empty_stateIcEENS_14default_deleteIS2_EEE5firstB8ue170006Ev, symObjAddr: 0x2C128, symBinAddr: 0x10002F29C, symSize: 0x24 }
  - { offsetInCU: 0x42104, offset: 0x42104, size: 0x8, addend: 0x0, symName: __ZNKSt3__122__compressed_pair_elemIPNS_13__empty_stateIcEELi0ELb0EE5__getB8ue170006Ev, symObjAddr: 0x2C14C, symBinAddr: 0x10002F2C0, symSize: 0x14 }
  - { offsetInCU: 0x4212A, offset: 0x4212A, size: 0x8, addend: 0x0, symName: __ZNSt3__16__loopIcEC2B8ue170006EjPNS_6__nodeIcEEPNS_16__owns_one_stateIcEEjjbmm, symObjAddr: 0x2C160, symBinAddr: 0x10002F2D4, symSize: 0xAC }
  - { offsetInCU: 0x421CC, offset: 0x421CC, size: 0x8, addend: 0x0, symName: __ZNSt3__117__owns_two_statesIcEC2B8ue170006EPNS_6__nodeIcEEPNS_16__owns_one_stateIcEE, symObjAddr: 0x2C20C, symBinAddr: 0x10002F380, symSize: 0x58 }
  - { offsetInCU: 0x42214, offset: 0x42214, size: 0x8, addend: 0x0, symName: __ZNSt3__16__loopIcED1Ev, symObjAddr: 0x2C264, symBinAddr: 0x10002F3D8, symSize: 0x2C }
  - { offsetInCU: 0x42241, offset: 0x42241, size: 0x8, addend: 0x0, symName: __ZNSt3__16__loopIcED0Ev, symObjAddr: 0x2C290, symBinAddr: 0x10002F404, symSize: 0x30 }
  - { offsetInCU: 0x4226E, offset: 0x4226E, size: 0x8, addend: 0x0, symName: __ZNKSt3__16__loopIcE6__execERNS_7__stateIcEE, symObjAddr: 0x2C2C0, symBinAddr: 0x10002F434, symSize: 0x274 }
  - { offsetInCU: 0x422FD, offset: 0x422FD, size: 0x8, addend: 0x0, symName: __ZNKSt3__16__loopIcE12__exec_splitEbRNS_7__stateIcEE, symObjAddr: 0x2C534, symBinAddr: 0x10002F6A8, symSize: 0x98 }
  - { offsetInCU: 0x42343, offset: 0x42343, size: 0x8, addend: 0x0, symName: __ZNSt3__117__owns_two_statesIcED1Ev, symObjAddr: 0x2C5CC, symBinAddr: 0x10002F740, symSize: 0x2C }
  - { offsetInCU: 0x4236F, offset: 0x4236F, size: 0x8, addend: 0x0, symName: __ZNSt3__117__owns_two_statesIcED0Ev, symObjAddr: 0x2C5F8, symBinAddr: 0x10002F76C, symSize: 0x30 }
  - { offsetInCU: 0x4239B, offset: 0x4239B, size: 0x8, addend: 0x0, symName: __ZNSt3__117__owns_two_statesIcED2Ev, symObjAddr: 0x2C628, symBinAddr: 0x10002F79C, symSize: 0x74 }
  - { offsetInCU: 0x423C7, offset: 0x423C7, size: 0x8, addend: 0x0, symName: __ZNSt3__16__loopIcED2Ev, symObjAddr: 0x2C69C, symBinAddr: 0x10002F810, symSize: 0x2C }
  - { offsetInCU: 0x423F4, offset: 0x423F4, size: 0x8, addend: 0x0, symName: __ZNSt3__16vectorINS_4pairImPKcEENS_9allocatorIS4_EEEixB8ue170006Em, symObjAddr: 0x2C6C8, symBinAddr: 0x10002F83C, symSize: 0x24 }
  - { offsetInCU: 0x4242B, offset: 0x4242B, size: 0x8, addend: 0x0, symName: __ZNKSt3__16__loopIcE13__init_repeatB8ue170006ERNS_7__stateIcEE, symObjAddr: 0x2C6EC, symBinAddr: 0x10002F860, symSize: 0xF4 }
  - { offsetInCU: 0x4247D, offset: 0x4247D, size: 0x8, addend: 0x0, symName: __ZNKSt3__117__owns_two_statesIcE6secondB8ue170006Ev, symObjAddr: 0x2C7E0, symBinAddr: 0x10002F954, symSize: 0x18 }
  - { offsetInCU: 0x424A3, offset: 0x424A3, size: 0x8, addend: 0x0, symName: __ZNSt3__110unique_ptrINS_6__loopIcEENS_14default_deleteIS2_EEEC2B8ue170006ILb1EvEEPS2_, symObjAddr: 0x2C7F8, symBinAddr: 0x10002F96C, symSize: 0x44 }
  - { offsetInCU: 0x424E6, offset: 0x424E6, size: 0x8, addend: 0x0, symName: __ZNSt3__117__compressed_pairIPNS_6__loopIcEENS_14default_deleteIS2_EEEC1B8ue170006IRS3_NS_16__value_init_tagEEEOT_OT0_, symObjAddr: 0x2C83C, symBinAddr: 0x10002F9B0, symSize: 0x3C }
  - { offsetInCU: 0x4253E, offset: 0x4253E, size: 0x8, addend: 0x0, symName: __ZNSt3__117__compressed_pairIPNS_6__loopIcEENS_14default_deleteIS2_EEEC2B8ue170006IRS3_NS_16__value_init_tagEEEOT_OT0_, symObjAddr: 0x2C878, symBinAddr: 0x10002F9EC, symSize: 0x40 }
  - { offsetInCU: 0x42596, offset: 0x42596, size: 0x8, addend: 0x0, symName: __ZNSt3__122__compressed_pair_elemIPNS_6__loopIcEELi0ELb0EEC2B8ue170006IRS3_vEEOT_, symObjAddr: 0x2C8B8, symBinAddr: 0x10002FA2C, symSize: 0x24 }
  - { offsetInCU: 0x425D8, offset: 0x425D8, size: 0x8, addend: 0x0, symName: __ZNSt3__122__compressed_pair_elemINS_14default_deleteINS_6__loopIcEEEELi1ELb1EEC2B8ue170006ENS_16__value_init_tagE, symObjAddr: 0x2C8DC, symBinAddr: 0x10002FA50, symSize: 0x14 }
  - { offsetInCU: 0x4260C, offset: 0x4260C, size: 0x8, addend: 0x0, symName: __ZNKSt3__117__compressed_pairIPNS_6__loopIcEENS_14default_deleteIS2_EEE5firstB8ue170006Ev, symObjAddr: 0x2C8F0, symBinAddr: 0x10002FA64, symSize: 0x24 }
  - { offsetInCU: 0x42632, offset: 0x42632, size: 0x8, addend: 0x0, symName: __ZNKSt3__122__compressed_pair_elemIPNS_6__loopIcEELi0ELb0EE5__getB8ue170006Ev, symObjAddr: 0x2C914, symBinAddr: 0x10002FA88, symSize: 0x14 }
  - { offsetInCU: 0x42658, offset: 0x42658, size: 0x8, addend: 0x0, symName: __ZNSt3__117__repeat_one_loopIcEC2B8ue170006EPNS_6__nodeIcEE, symObjAddr: 0x2C928, symBinAddr: 0x10002FA9C, symSize: 0x4C }
  - { offsetInCU: 0x42691, offset: 0x42691, size: 0x8, addend: 0x0, symName: __ZNSt3__117__repeat_one_loopIcED1Ev, symObjAddr: 0x2C974, symBinAddr: 0x10002FAE8, symSize: 0x2C }
  - { offsetInCU: 0x426BE, offset: 0x426BE, size: 0x8, addend: 0x0, symName: __ZNSt3__117__repeat_one_loopIcED0Ev, symObjAddr: 0x2C9A0, symBinAddr: 0x10002FB14, symSize: 0x30 }
  - { offsetInCU: 0x426EB, offset: 0x426EB, size: 0x8, addend: 0x0, symName: __ZNKSt3__117__repeat_one_loopIcE6__execERNS_7__stateIcEE, symObjAddr: 0x2C9D0, symBinAddr: 0x10002FB44, symSize: 0x3C }
  - { offsetInCU: 0x42722, offset: 0x42722, size: 0x8, addend: 0x0, symName: __ZNSt3__117__repeat_one_loopIcED2Ev, symObjAddr: 0x2CA0C, symBinAddr: 0x10002FB80, symSize: 0x2C }
  - { offsetInCU: 0x4274F, offset: 0x4274F, size: 0x8, addend: 0x0, symName: __ZNSt3__117__compressed_pairIPNS_6__loopIcEENS_14default_deleteIS2_EEE5firstB8ue170006Ev, symObjAddr: 0x2CA38, symBinAddr: 0x10002FBAC, symSize: 0x24 }
  - { offsetInCU: 0x42775, offset: 0x42775, size: 0x8, addend: 0x0, symName: __ZNSt3__122__compressed_pair_elemIPNS_6__loopIcEELi0ELb0EE5__getB8ue170006Ev, symObjAddr: 0x2CA5C, symBinAddr: 0x10002FBD0, symSize: 0x14 }
  - { offsetInCU: 0x4279B, offset: 0x4279B, size: 0x8, addend: 0x0, symName: __ZNSt3__110unique_ptrINS_6__loopIcEENS_14default_deleteIS2_EEED2B8ue170006Ev, symObjAddr: 0x2CA70, symBinAddr: 0x10002FBE4, symSize: 0x30 }
  - { offsetInCU: 0x427C5, offset: 0x427C5, size: 0x8, addend: 0x0, symName: __ZNSt3__110unique_ptrINS_6__loopIcEENS_14default_deleteIS2_EEE5resetB8ue170006EPS2_, symObjAddr: 0x2CAA0, symBinAddr: 0x10002FC14, symSize: 0x78 }
  - { offsetInCU: 0x42809, offset: 0x42809, size: 0x8, addend: 0x0, symName: __ZNSt3__117__compressed_pairIPNS_6__loopIcEENS_14default_deleteIS2_EEE6secondB8ue170006Ev, symObjAddr: 0x2CB18, symBinAddr: 0x10002FC8C, symSize: 0x24 }
  - { offsetInCU: 0x4282F, offset: 0x4282F, size: 0x8, addend: 0x0, symName: __ZNKSt3__114default_deleteINS_6__loopIcEEEclB8ue170006EPS2_, symObjAddr: 0x2CB3C, symBinAddr: 0x10002FCB0, symSize: 0x4C }
  - { offsetInCU: 0x42863, offset: 0x42863, size: 0x8, addend: 0x0, symName: __ZNSt3__122__compressed_pair_elemINS_14default_deleteINS_6__loopIcEEEELi1ELb1EE5__getB8ue170006Ev, symObjAddr: 0x2CB88, symBinAddr: 0x10002FCFC, symSize: 0x14 }
  - { offsetInCU: 0x42889, offset: 0x42889, size: 0x8, addend: 0x0, symName: __ZNSt3__114numeric_limitsIiE3maxB8ue170006Ev, symObjAddr: 0x2CB9C, symBinAddr: 0x10002FD10, symSize: 0x14 }
  - { offsetInCU: 0x4289D, offset: 0x4289D, size: 0x8, addend: 0x0, symName: __ZNSt3__123__libcpp_numeric_limitsIiLb1EE3maxB8ue170006Ev, symObjAddr: 0x2CBB0, symBinAddr: 0x10002FD24, symSize: 0x8 }
  - { offsetInCU: 0x428C6, offset: 0x428C6, size: 0x8, addend: 0x0, symName: __ZNSt3__111__alternateIcEC1B8ue170006EPNS_16__owns_one_stateIcEES4_, symObjAddr: 0x2CBB8, symBinAddr: 0x10002FD2C, symSize: 0x3C }
  - { offsetInCU: 0x42923, offset: 0x42923, size: 0x8, addend: 0x0, symName: __ZNSt3__121__empty_non_own_stateIcEC1B8ue170006EPNS_6__nodeIcEE, symObjAddr: 0x2CBF4, symBinAddr: 0x10002FD68, symSize: 0x34 }
  - { offsetInCU: 0x4295C, offset: 0x4295C, size: 0x8, addend: 0x0, symName: __ZNSt3__111__alternateIcEC2B8ue170006EPNS_16__owns_one_stateIcEES4_, symObjAddr: 0x2CC28, symBinAddr: 0x10002FD9C, symSize: 0x54 }
  - { offsetInCU: 0x429A4, offset: 0x429A4, size: 0x8, addend: 0x0, symName: __ZNSt3__111__alternateIcED1Ev, symObjAddr: 0x2CC7C, symBinAddr: 0x10002FDF0, symSize: 0x2C }
  - { offsetInCU: 0x429D1, offset: 0x429D1, size: 0x8, addend: 0x0, symName: __ZNSt3__111__alternateIcED0Ev, symObjAddr: 0x2CCA8, symBinAddr: 0x10002FE1C, symSize: 0x30 }
  - { offsetInCU: 0x429FE, offset: 0x429FE, size: 0x8, addend: 0x0, symName: __ZNKSt3__111__alternateIcE6__execERNS_7__stateIcEE, symObjAddr: 0x2CCD8, symBinAddr: 0x10002FE4C, symSize: 0x20 }
  - { offsetInCU: 0x42A35, offset: 0x42A35, size: 0x8, addend: 0x0, symName: __ZNKSt3__111__alternateIcE12__exec_splitEbRNS_7__stateIcEE, symObjAddr: 0x2CCF8, symBinAddr: 0x10002FE6C, symSize: 0x74 }
  - { offsetInCU: 0x42A7B, offset: 0x42A7B, size: 0x8, addend: 0x0, symName: __ZNSt3__111__alternateIcED2Ev, symObjAddr: 0x2CD6C, symBinAddr: 0x10002FEE0, symSize: 0x2C }
  - { offsetInCU: 0x42AA8, offset: 0x42AA8, size: 0x8, addend: 0x0, symName: __ZNSt3__121__empty_non_own_stateIcEC2B8ue170006EPNS_6__nodeIcEE, symObjAddr: 0x2CD98, symBinAddr: 0x10002FF0C, symSize: 0x4C }
  - { offsetInCU: 0x42AE1, offset: 0x42AE1, size: 0x8, addend: 0x0, symName: __ZNSt3__121__empty_non_own_stateIcED1Ev, symObjAddr: 0x2CDE4, symBinAddr: 0x10002FF58, symSize: 0x2C }
  - { offsetInCU: 0x42B0E, offset: 0x42B0E, size: 0x8, addend: 0x0, symName: __ZNSt3__121__empty_non_own_stateIcED0Ev, symObjAddr: 0x2CE10, symBinAddr: 0x10002FF84, symSize: 0x30 }
  - { offsetInCU: 0x42B3B, offset: 0x42B3B, size: 0x8, addend: 0x0, symName: __ZNKSt3__121__empty_non_own_stateIcE6__execERNS_7__stateIcEE, symObjAddr: 0x2CE40, symBinAddr: 0x10002FFB4, symSize: 0x3C }
  - { offsetInCU: 0x42B72, offset: 0x42B72, size: 0x8, addend: 0x0, symName: __ZNSt3__121__empty_non_own_stateIcED2Ev, symObjAddr: 0x2CE7C, symBinAddr: 0x10002FFF0, symSize: 0x2C }
  - { offsetInCU: 0x42B9F, offset: 0x42B9F, size: 0x8, addend: 0x0, symName: __ZNSt3__111basic_regexIcNS_12regex_traitsIcEEE21__parse_RE_expressionIPKcEET_S7_S7_, symObjAddr: 0x2CEA8, symBinAddr: 0x10003001C, symSize: 0x70 }
  - { offsetInCU: 0x42C0B, offset: 0x42C0B, size: 0x8, addend: 0x0, symName: __ZNSt3__111basic_regexIcNS_12regex_traitsIcEEE17__parse_simple_REIPKcEET_S7_S7_, symObjAddr: 0x2CF78, symBinAddr: 0x1000300EC, symSize: 0xB4 }
  - { offsetInCU: 0x42C95, offset: 0x42C95, size: 0x8, addend: 0x0, symName: __ZNSt3__111basic_regexIcNS_12regex_traitsIcEEE18__parse_nondupl_REIPKcEET_S7_S7_, symObjAddr: 0x2D02C, symBinAddr: 0x1000301A0, symSize: 0x118 }
  - { offsetInCU: 0x42D10, offset: 0x42D10, size: 0x8, addend: 0x0, symName: __ZNSt3__111basic_regexIcNS_12regex_traitsIcEEE22__parse_RE_dupl_symbolIPKcEET_S7_S7_PNS_16__owns_one_stateIcEEjj, symObjAddr: 0x2D144, symBinAddr: 0x1000302B8, symSize: 0x298 }
  - { offsetInCU: 0x42DE3, offset: 0x42DE3, size: 0x8, addend: 0x0, symName: __ZNSt3__111basic_regexIcNS_12regex_traitsIcEEE32__parse_one_char_or_coll_elem_REIPKcEET_S7_S7_, symObjAddr: 0x2D3DC, symBinAddr: 0x100030550, symSize: 0xF4 }
  - { offsetInCU: 0x42E41, offset: 0x42E41, size: 0x8, addend: 0x0, symName: __ZNSt3__111basic_regexIcNS_12regex_traitsIcEEE23__parse_Back_open_parenIPKcEET_S7_S7_, symObjAddr: 0x2D4D0, symBinAddr: 0x100030644, symSize: 0xB8 }
  - { offsetInCU: 0x42EAD, offset: 0x42EAD, size: 0x8, addend: 0x0, symName: __ZNSt3__111basic_regexIcNS_12regex_traitsIcEEE24__parse_Back_close_parenIPKcEET_S7_S7_, symObjAddr: 0x2D588, symBinAddr: 0x1000306FC, symSize: 0xB8 }
  - { offsetInCU: 0x42F19, offset: 0x42F19, size: 0x8, addend: 0x0, symName: __ZNSt3__111basic_regexIcNS_12regex_traitsIcEEE15__parse_BACKREFIPKcEET_S7_S7_, symObjAddr: 0x2D640, symBinAddr: 0x1000307B4, symSize: 0xBC }
  - { offsetInCU: 0x42F85, offset: 0x42F85, size: 0x8, addend: 0x0, symName: __ZNSt3__111basic_regexIcNS_12regex_traitsIcEEE16__parse_ORD_CHARIPKcEET_S7_S7_, symObjAddr: 0x2D6FC, symBinAddr: 0x100030870, symSize: 0x114 }
  - { offsetInCU: 0x42FF1, offset: 0x42FF1, size: 0x8, addend: 0x0, symName: __ZNSt3__111basic_regexIcNS_12regex_traitsIcEEE19__parse_QUOTED_CHARIPKcEET_S7_S7_, symObjAddr: 0x2D810, symBinAddr: 0x100030984, symSize: 0x12C }
  - { offsetInCU: 0x4305D, offset: 0x4305D, size: 0x8, addend: 0x0, symName: __ZNSt3__111basic_regexIcNS_12regex_traitsIcEEE16__push_match_anyEv, symObjAddr: 0x2D93C, symBinAddr: 0x100030AB0, symSize: 0xA0 }
  - { offsetInCU: 0x4309A, offset: 0x4309A, size: 0x8, addend: 0x0, symName: __ZNSt3__111__match_anyIcEC1B8ue170006EPNS_6__nodeIcEE, symObjAddr: 0x2D9DC, symBinAddr: 0x100030B50, symSize: 0x34 }
  - { offsetInCU: 0x430D3, offset: 0x430D3, size: 0x8, addend: 0x0, symName: __ZNSt3__111__match_anyIcEC2B8ue170006EPNS_6__nodeIcEE, symObjAddr: 0x2DA10, symBinAddr: 0x100030B84, symSize: 0x4C }
  - { offsetInCU: 0x4310C, offset: 0x4310C, size: 0x8, addend: 0x0, symName: __ZNSt3__111__match_anyIcED1Ev, symObjAddr: 0x2DA5C, symBinAddr: 0x100030BD0, symSize: 0x2C }
  - { offsetInCU: 0x43139, offset: 0x43139, size: 0x8, addend: 0x0, symName: __ZNSt3__111__match_anyIcED0Ev, symObjAddr: 0x2DA88, symBinAddr: 0x100030BFC, symSize: 0x30 }
  - { offsetInCU: 0x43166, offset: 0x43166, size: 0x8, addend: 0x0, symName: __ZNKSt3__111__match_anyIcE6__execERNS_7__stateIcEE, symObjAddr: 0x2DAB8, symBinAddr: 0x100030C2C, symSize: 0xAC }
  - { offsetInCU: 0x4319D, offset: 0x4319D, size: 0x8, addend: 0x0, symName: __ZNSt3__111__match_anyIcED2Ev, symObjAddr: 0x2DB64, symBinAddr: 0x100030CD8, symSize: 0x2C }
  - { offsetInCU: 0x431CA, offset: 0x431CA, size: 0x8, addend: 0x0, symName: __ZNSt3__111basic_regexIcNS_12regex_traitsIcEEE15__test_back_refEc, symObjAddr: 0x2DB90, symBinAddr: 0x100030D04, symSize: 0xC4 }
  - { offsetInCU: 0x43210, offset: 0x43210, size: 0x8, addend: 0x0, symName: __ZNSt3__111basic_regexIcNS_12regex_traitsIcEEE23__parse_Back_open_braceIPKcEET_S7_S7_, symObjAddr: 0x2DC54, symBinAddr: 0x100030DC8, symSize: 0xB8 }
  - { offsetInCU: 0x4327C, offset: 0x4327C, size: 0x8, addend: 0x0, symName: __ZNSt3__111basic_regexIcNS_12regex_traitsIcEEE24__parse_Back_close_braceIPKcEET_S7_S7_, symObjAddr: 0x2DD0C, symBinAddr: 0x100030E80, symSize: 0xB8 }
  - { offsetInCU: 0x432E8, offset: 0x432E8, size: 0x8, addend: 0x0, symName: __ZNSt3__111basic_regexIcNS_12regex_traitsIcEEE18__parse_ERE_branchIPKcEET_S7_S7_, symObjAddr: 0x2DDC4, symBinAddr: 0x100030F38, symSize: 0x98 }
  - { offsetInCU: 0x43346, offset: 0x43346, size: 0x8, addend: 0x0, symName: __ZNSt3__111basic_regexIcNS_12regex_traitsIcEEE22__parse_ERE_expressionIPKcEET_S7_S7_, symObjAddr: 0x2DE5C, symBinAddr: 0x100030FD0, symSize: 0x1E0 }
  - { offsetInCU: 0x433DF, offset: 0x433DF, size: 0x8, addend: 0x0, symName: __ZNSt3__111basic_regexIcNS_12regex_traitsIcEEE33__parse_one_char_or_coll_elem_EREIPKcEET_S7_S7_, symObjAddr: 0x2E03C, symBinAddr: 0x1000311B0, symSize: 0xF4 }
  - { offsetInCU: 0x4343D, offset: 0x4343D, size: 0x8, addend: 0x0, symName: __ZNSt3__111basic_regexIcNS_12regex_traitsIcEEE20__parse_ORD_CHAR_EREIPKcEET_S7_S7_, symObjAddr: 0x2E130, symBinAddr: 0x1000312A4, symSize: 0xE4 }
  - { offsetInCU: 0x4348C, offset: 0x4348C, size: 0x8, addend: 0x0, symName: __ZNSt3__111basic_regexIcNS_12regex_traitsIcEEE23__parse_QUOTED_CHAR_EREIPKcEET_S7_S7_, symObjAddr: 0x2E378, symBinAddr: 0x1000314EC, symSize: 0x170 }
  - { offsetInCU: 0x434F8, offset: 0x434F8, size: 0x8, addend: 0x0, symName: __ZNSt3__112basic_stringIcNS_11char_traitsIcEENS_9allocatorIcEEE15__make_iteratorB8ue170006EPc, symObjAddr: 0x2E6B0, symBinAddr: 0x100031824, symSize: 0x30 }
  - { offsetInCU: 0x4352D, offset: 0x4352D, size: 0x8, addend: 0x0, symName: __ZNSt3__111__wrap_iterIPcEC1B8ue170006ES1_, symObjAddr: 0x2E6E0, symBinAddr: 0x100031854, symSize: 0x34 }
  - { offsetInCU: 0x43565, offset: 0x43565, size: 0x8, addend: 0x0, symName: __ZNSt3__111__wrap_iterIPcEC2B8ue170006ES1_, symObjAddr: 0x2E714, symBinAddr: 0x100031888, symSize: 0x20 }
  - { offsetInCU: 0x4359D, offset: 0x4359D, size: 0x8, addend: 0x0, symName: __ZNSt3__114regex_iteratorINS_11__wrap_iterIPKcEEcNS_12regex_traitsIcEEEC2ES4_S4_RKNS_11basic_regexIcS6_EENS_15regex_constants15match_flag_typeE, symObjAddr: 0x2E734, symBinAddr: 0x1000318A8, symSize: 0xB8 }
  - { offsetInCU: 0x43605, offset: 0x43605, size: 0x8, addend: 0x0, symName: __ZNSt3__113match_resultsINS_11__wrap_iterIPKcEENS_9allocatorINS_9sub_matchIS4_EEEEEC1Ev, symObjAddr: 0x2E7EC, symBinAddr: 0x100031960, symSize: 0x40 }
  - { offsetInCU: 0x4362F, offset: 0x4362F, size: 0x8, addend: 0x0, symName: __ZNSt3__19allocatorINS_9sub_matchINS_11__wrap_iterIPKcEEEEEC1B8ue170006Ev, symObjAddr: 0x2E950, symBinAddr: 0x100031AC4, symSize: 0x2C }
  - { offsetInCU: 0x43659, offset: 0x43659, size: 0x8, addend: 0x0, symName: __ZNSt3__113match_resultsINS_11__wrap_iterIPKcEENS_9allocatorINS_9sub_matchIS4_EEEEEC1ERKS8_, symObjAddr: 0x2E97C, symBinAddr: 0x100031AF0, symSize: 0x34 }
  - { offsetInCU: 0x43694, offset: 0x43694, size: 0x8, addend: 0x0, symName: __ZNSt3__19allocatorINS_9sub_matchINS_11__wrap_iterIPKcEEEEEC2B8ue170006Ev, symObjAddr: 0x2E9B0, symBinAddr: 0x100031B24, symSize: 0x2C }
  - { offsetInCU: 0x436BE, offset: 0x436BE, size: 0x8, addend: 0x0, symName: __ZNSt3__116__non_trivial_ifILb1ENS_9allocatorINS_9sub_matchINS_11__wrap_iterIPKcEEEEEEEC2B8ue170006Ev, symObjAddr: 0x2E9DC, symBinAddr: 0x100031B50, symSize: 0x14 }
  - { offsetInCU: 0x436E8, offset: 0x436E8, size: 0x8, addend: 0x0, symName: __ZNSt3__113match_resultsINS_11__wrap_iterIPKcEENS_9allocatorINS_9sub_matchIS4_EEEEEC2ERKS8_, symObjAddr: 0x2E9F0, symBinAddr: 0x100031B64, symSize: 0x98 }
  - { offsetInCU: 0x43723, offset: 0x43723, size: 0x8, addend: 0x0, symName: __ZNSt3__16vectorINS_9sub_matchINS_11__wrap_iterIPKcEEEENS_9allocatorIS6_EEEC1B8ue170006ERKS8_, symObjAddr: 0x2EA88, symBinAddr: 0x100031BFC, symSize: 0x34 }
  - { offsetInCU: 0x4375C, offset: 0x4375C, size: 0x8, addend: 0x0, symName: __ZNSt3__19sub_matchINS_11__wrap_iterIPKcEEEC1B8ue170006Ev, symObjAddr: 0x2EABC, symBinAddr: 0x100031C30, symSize: 0x2C }
  - { offsetInCU: 0x43786, offset: 0x43786, size: 0x8, addend: 0x0, symName: __ZNSt3__111__wrap_iterIPKcEC1B8ue170006Ev, symObjAddr: 0x2EAE8, symBinAddr: 0x100031C5C, symSize: 0x2C }
  - { offsetInCU: 0x437B0, offset: 0x437B0, size: 0x8, addend: 0x0, symName: __ZNSt3__16vectorINS_9sub_matchINS_11__wrap_iterIPKcEEEENS_9allocatorIS6_EEEC2B8ue170006ERKS8_, symObjAddr: 0x2EB14, symBinAddr: 0x100031C88, symSize: 0x50 }
  - { offsetInCU: 0x437E9, offset: 0x437E9, size: 0x8, addend: 0x0, symName: __ZNSt3__117__compressed_pairIPNS_9sub_matchINS_11__wrap_iterIPKcEEEENS_9allocatorIS6_EEEC1B8ue170006IDnRKS9_EEOT_OT0_, symObjAddr: 0x2EB64, symBinAddr: 0x100031CD8, symSize: 0x3C }
  - { offsetInCU: 0x43841, offset: 0x43841, size: 0x8, addend: 0x0, symName: __ZNSt3__117__compressed_pairIPNS_9sub_matchINS_11__wrap_iterIPKcEEEENS_9allocatorIS6_EEEC2B8ue170006IDnRKS9_EEOT_OT0_, symObjAddr: 0x2EBA0, symBinAddr: 0x100031D14, symSize: 0x44 }
  - { offsetInCU: 0x43899, offset: 0x43899, size: 0x8, addend: 0x0, symName: __ZNSt3__122__compressed_pair_elemINS_9allocatorINS_9sub_matchINS_11__wrap_iterIPKcEEEEEELi1ELb1EEC2B8ue170006IRKS8_vEEOT_, symObjAddr: 0x2EBE4, symBinAddr: 0x100031D58, symSize: 0x18 }
  - { offsetInCU: 0x438DB, offset: 0x438DB, size: 0x8, addend: 0x0, symName: __ZNSt3__19sub_matchINS_11__wrap_iterIPKcEEEC2B8ue170006Ev, symObjAddr: 0x2EBFC, symBinAddr: 0x100031D70, symSize: 0x30 }
  - { offsetInCU: 0x43905, offset: 0x43905, size: 0x8, addend: 0x0, symName: __ZNSt3__14pairINS_11__wrap_iterIPKcEES4_EC2B8ue170006ILb1ELPv0EEEv, symObjAddr: 0x2EC2C, symBinAddr: 0x100031DA0, symSize: 0x38 }
  - { offsetInCU: 0x4393F, offset: 0x4393F, size: 0x8, addend: 0x0, symName: __ZNSt3__111__wrap_iterIPKcEC2B8ue170006Ev, symObjAddr: 0x2EC64, symBinAddr: 0x100031DD8, symSize: 0x18 }
  - { offsetInCU: 0x43969, offset: 0x43969, size: 0x8, addend: 0x0, symName: __ZNKSt3__111basic_regexIcNS_12regex_traitsIcEEE8__searchINS_9allocatorINS_9sub_matchIPKcEEEEEEbS8_S8_RNS_13match_resultsIS8_T_EENS_15regex_constants15match_flag_typeE, symObjAddr: 0x2EC7C, symBinAddr: 0x100031DF0, symSize: 0x36C }
  - { offsetInCU: 0x439DC, offset: 0x439DC, size: 0x8, addend: 0x0, symName: __ZNSt3__113match_resultsINS_11__wrap_iterIPKcEENS_9allocatorINS_9sub_matchIS4_EEEEE8__assignB8ue170006IS3_NS5_INS6_IS3_EEEEEEvS4_S4_RKNS0_IT_T0_EEb, symObjAddr: 0x2EFE8, symBinAddr: 0x10003215C, symSize: 0x310 }
  - { offsetInCU: 0x43A7D, offset: 0x43A7D, size: 0x8, addend: 0x0, symName: __ZNKSt3__111basic_regexIcNS_12regex_traitsIcEEE16__match_at_startINS_9allocatorINS_9sub_matchIPKcEEEEEEbS8_S8_RNS_13match_resultsIS8_T_EENS_15regex_constants15match_flag_typeEb, symObjAddr: 0x2F334, symBinAddr: 0x1000324A8, symSize: 0x108 }
  - { offsetInCU: 0x43AF9, offset: 0x43AF9, size: 0x8, addend: 0x0, symName: __ZNKSt3__113match_resultsIPKcNS_9allocatorINS_9sub_matchIS2_EEEEEixB8ue170006Em, symObjAddr: 0x2F43C, symBinAddr: 0x1000325B0, symSize: 0x70 }
  - { offsetInCU: 0x43B2E, offset: 0x43B2E, size: 0x8, addend: 0x0, symName: __ZNKSt3__111basic_regexIcNS_12regex_traitsIcEEE29__match_at_start_posix_nosubsINS_9allocatorINS_9sub_matchIPKcEEEEEEbS8_S8_RNS_13match_resultsIS8_T_EENS_15regex_constants15match_flag_typeEb, symObjAddr: 0x2F4E8, symBinAddr: 0x10003265C, symSize: 0x5EC }
  - { offsetInCU: 0x43C4C, offset: 0x43C4C, size: 0x8, addend: 0x0, symName: __ZNKSt3__111basic_regexIcNS_12regex_traitsIcEEE27__match_at_start_posix_subsINS_9allocatorINS_9sub_matchIPKcEEEEEEbS8_S8_RNS_13match_resultsIS8_T_EENS_15regex_constants15match_flag_typeEb, symObjAddr: 0x2FAFC, symBinAddr: 0x100032C70, symSize: 0x66C }
  - { offsetInCU: 0x43DA8, offset: 0x43DA8, size: 0x8, addend: 0x0, symName: __ZNSt3__15dequeINS_7__stateIcEENS_9allocatorIS2_EEEC1B8ue170006Ev, symObjAddr: 0x30190, symBinAddr: 0x100033304, symSize: 0x2C }
  - { offsetInCU: 0x43DD2, offset: 0x43DD2, size: 0x8, addend: 0x0, symName: __ZNSt3__15dequeINS_7__stateIcEENS_9allocatorIS2_EEE9push_backEOS2_, symObjAddr: 0x301BC, symBinAddr: 0x100033330, symSize: 0xAC }
  - { offsetInCU: 0x43E18, offset: 0x43E18, size: 0x8, addend: 0x0, symName: __ZNSt3__15dequeINS_7__stateIcEENS_9allocatorIS2_EEE4backEv, symObjAddr: 0x30268, symBinAddr: 0x1000333DC, symSize: 0x70 }
  - { offsetInCU: 0x43E4F, offset: 0x43E4F, size: 0x8, addend: 0x0, symName: __ZNSt3__15dequeINS_7__stateIcEENS_9allocatorIS2_EEE8pop_backEv, symObjAddr: 0x302D8, symBinAddr: 0x10003344C, symSize: 0xE8 }
  - { offsetInCU: 0x43EB3, offset: 0x43EB3, size: 0x8, addend: 0x0, symName: __ZNSt3__15dequeINS_7__stateIcEENS_9allocatorIS2_EEE5clearEv, symObjAddr: 0x303C0, symBinAddr: 0x100033534, symSize: 0x170 }
  - { offsetInCU: 0x43F0E, offset: 0x43F0E, size: 0x8, addend: 0x0, symName: __ZNSt3__15dequeINS_7__stateIcEENS_9allocatorIS2_EEE10push_frontEOS2_, symObjAddr: 0x30530, symBinAddr: 0x1000336A4, symSize: 0xBC }
  - { offsetInCU: 0x43F54, offset: 0x43F54, size: 0x8, addend: 0x0, symName: __ZNKSt3__15dequeINS_7__stateIcEENS_9allocatorIS2_EEE5emptyB8ue170006Ev, symObjAddr: 0x305EC, symBinAddr: 0x100033760, symSize: 0x30 }
  - { offsetInCU: 0x43F7A, offset: 0x43F7A, size: 0x8, addend: 0x0, symName: __ZNSt3__15dequeINS_7__stateIcEENS_9allocatorIS2_EEED1B8ue170006Ev, symObjAddr: 0x3061C, symBinAddr: 0x100033790, symSize: 0x2C }
  - { offsetInCU: 0x43FA4, offset: 0x43FA4, size: 0x8, addend: 0x0, symName: __ZNSt3__15dequeINS_7__stateIcEENS_9allocatorIS2_EEEC2B8ue170006Ev, symObjAddr: 0x30648, symBinAddr: 0x1000337BC, symSize: 0x5C }
  - { offsetInCU: 0x43FCE, offset: 0x43FCE, size: 0x8, addend: 0x0, symName: __ZNSt3__114__split_bufferIPNS_7__stateIcEENS_9allocatorIS3_EEEC1B8ue170006Ev, symObjAddr: 0x306A4, symBinAddr: 0x100033818, symSize: 0x2C }
  - { offsetInCU: 0x43FFE, offset: 0x43FFE, size: 0x8, addend: 0x0, symName: __ZNSt3__117__compressed_pairImNS_9allocatorINS_7__stateIcEEEEEC1B8ue170006IiNS_18__default_init_tagEEEOT_OT0_, symObjAddr: 0x306D0, symBinAddr: 0x100033844, symSize: 0x3C }
  - { offsetInCU: 0x44056, offset: 0x44056, size: 0x8, addend: 0x0, symName: __ZNKSt3__15dequeINS_7__stateIcEENS_9allocatorIS2_EEE14__annotate_newB8ue170006Em, symObjAddr: 0x3070C, symBinAddr: 0x100033880, symSize: 0xD0 }
  - { offsetInCU: 0x4408B, offset: 0x4408B, size: 0x8, addend: 0x0, symName: __ZNSt3__114__split_bufferIPNS_7__stateIcEENS_9allocatorIS3_EEEC2B8ue170006Ev, symObjAddr: 0x307DC, symBinAddr: 0x100033950, symSize: 0x50 }
  - { offsetInCU: 0x440B5, offset: 0x440B5, size: 0x8, addend: 0x0, symName: __ZNSt3__117__compressed_pairIPPNS_7__stateIcEENS_9allocatorIS3_EEEC1B8ue170006IDnNS_18__default_init_tagEEEOT_OT0_, symObjAddr: 0x3082C, symBinAddr: 0x1000339A0, symSize: 0x3C }
  - { offsetInCU: 0x4410D, offset: 0x4410D, size: 0x8, addend: 0x0, symName: __ZNSt3__117__compressed_pairIPPNS_7__stateIcEENS_9allocatorIS3_EEEC2B8ue170006IDnNS_18__default_init_tagEEEOT_OT0_, symObjAddr: 0x30868, symBinAddr: 0x1000339DC, symSize: 0x40 }
  - { offsetInCU: 0x44165, offset: 0x44165, size: 0x8, addend: 0x0, symName: __ZNSt3__122__compressed_pair_elemIPPNS_7__stateIcEELi0ELb0EEC2B8ue170006IDnvEEOT_, symObjAddr: 0x308A8, symBinAddr: 0x100033A1C, symSize: 0x1C }
  - { offsetInCU: 0x441A7, offset: 0x441A7, size: 0x8, addend: 0x0, symName: __ZNSt3__122__compressed_pair_elemINS_9allocatorIPNS_7__stateIcEEEELi1ELb1EEC2B8ue170006ENS_18__default_init_tagE, symObjAddr: 0x308C4, symBinAddr: 0x100033A38, symSize: 0x2C }
  - { offsetInCU: 0x441DB, offset: 0x441DB, size: 0x8, addend: 0x0, symName: __ZNSt3__19allocatorIPNS_7__stateIcEEEC2B8ue170006Ev, symObjAddr: 0x308F0, symBinAddr: 0x100033A64, symSize: 0x2C }
  - { offsetInCU: 0x44205, offset: 0x44205, size: 0x8, addend: 0x0, symName: __ZNSt3__116__non_trivial_ifILb1ENS_9allocatorIPNS_7__stateIcEEEEEC2B8ue170006Ev, symObjAddr: 0x3091C, symBinAddr: 0x100033A90, symSize: 0x14 }
  - { offsetInCU: 0x4422F, offset: 0x4422F, size: 0x8, addend: 0x0, symName: __ZNSt3__117__compressed_pairImNS_9allocatorINS_7__stateIcEEEEEC2B8ue170006IiNS_18__default_init_tagEEEOT_OT0_, symObjAddr: 0x30930, symBinAddr: 0x100033AA4, symSize: 0x40 }
  - { offsetInCU: 0x44287, offset: 0x44287, size: 0x8, addend: 0x0, symName: __ZNSt3__122__compressed_pair_elemImLi0ELb0EEC2B8ue170006IivEEOT_, symObjAddr: 0x30970, symBinAddr: 0x100033AE4, symSize: 0x24 }
  - { offsetInCU: 0x442C9, offset: 0x442C9, size: 0x8, addend: 0x0, symName: __ZNKSt3__15dequeINS_7__stateIcEENS_9allocatorIS2_EEE18__annotate_from_toB8ue170006EmmNS5_22__asan_annotation_typeENS5_23__asan_annotation_placeE, symObjAddr: 0x30994, symBinAddr: 0x100033B08, symSize: 0x598 }
  - { offsetInCU: 0x44485, offset: 0x44485, size: 0x8, addend: 0x0, symName: __ZNKSt3__114__split_bufferIPNS_7__stateIcEENS_9allocatorIS3_EEE4sizeB8ue170006Ev, symObjAddr: 0x30F2C, symBinAddr: 0x1000340A0, symSize: 0x28 }
  - { offsetInCU: 0x444AB, offset: 0x444AB, size: 0x8, addend: 0x0, symName: __ZNKSt3__114__split_bufferIPNS_7__stateIcEENS_9allocatorIS3_EEE5beginB8ue170006Ev, symObjAddr: 0x30F54, symBinAddr: 0x1000340C8, symSize: 0x18 }
  - { offsetInCU: 0x444D1, offset: 0x444D1, size: 0x8, addend: 0x0, symName: __ZNKSt3__15dequeINS_7__stateIcEENS_9allocatorIS2_EEE4sizeB8ue170006Ev, symObjAddr: 0x30F6C, symBinAddr: 0x1000340E0, symSize: 0x28 }
  - { offsetInCU: 0x444F7, offset: 0x444F7, size: 0x8, addend: 0x0, symName: __ZNKSt3__15dequeINS_7__stateIcEENS_9allocatorIS2_EEE44__annotate_double_ended_contiguous_containerB8ue170006EPKvS7_S7_S7_S7_S7_, symObjAddr: 0x30F94, symBinAddr: 0x100034108, symSize: 0x28 }
  - { offsetInCU: 0x4455F, offset: 0x4455F, size: 0x8, addend: 0x0, symName: __ZNKSt3__15dequeINS_7__stateIcEENS_9allocatorIS2_EEE6__sizeB8ue170006Ev, symObjAddr: 0x30FBC, symBinAddr: 0x100034130, symSize: 0x28 }
  - { offsetInCU: 0x44585, offset: 0x44585, size: 0x8, addend: 0x0, symName: __ZNKSt3__117__compressed_pairImNS_9allocatorINS_7__stateIcEEEEE5firstB8ue170006Ev, symObjAddr: 0x30FE4, symBinAddr: 0x100034158, symSize: 0x24 }
  - { offsetInCU: 0x445AB, offset: 0x445AB, size: 0x8, addend: 0x0, symName: __ZNKSt3__122__compressed_pair_elemImLi0ELb0EE5__getB8ue170006Ev, symObjAddr: 0x31008, symBinAddr: 0x10003417C, symSize: 0x14 }
  - { offsetInCU: 0x445D1, offset: 0x445D1, size: 0x8, addend: 0x0, symName: __ZNSt3__15dequeINS_7__stateIcEENS_9allocatorIS2_EEE7__allocB8ue170006Ev, symObjAddr: 0x3101C, symBinAddr: 0x100034190, symSize: 0x28 }
  - { offsetInCU: 0x445F7, offset: 0x445F7, size: 0x8, addend: 0x0, symName: __ZNKSt3__15dequeINS_7__stateIcEENS_9allocatorIS2_EEE12__back_spareB8ue170006Ev, symObjAddr: 0x31044, symBinAddr: 0x1000341B8, symSize: 0x54 }
  - { offsetInCU: 0x4461D, offset: 0x4461D, size: 0x8, addend: 0x0, symName: __ZNSt3__15dequeINS_7__stateIcEENS_9allocatorIS2_EEE19__add_back_capacityEv, symObjAddr: 0x31098, symBinAddr: 0x10003420C, symSize: 0x34C }
  - { offsetInCU: 0x446D2, offset: 0x446D2, size: 0x8, addend: 0x0, symName: __ZNKSt3__15dequeINS_7__stateIcEENS_9allocatorIS2_EEE24__annotate_increase_backB8ue170006Em, symObjAddr: 0x313E4, symBinAddr: 0x100034558, symSize: 0x7C }
  - { offsetInCU: 0x44707, offset: 0x44707, size: 0x8, addend: 0x0, symName: __ZNSt3__15dequeINS_7__stateIcEENS_9allocatorIS2_EEE3endB8ue170006Ev, symObjAddr: 0x31460, symBinAddr: 0x1000345D4, symSize: 0xD4 }
  - { offsetInCU: 0x4474B, offset: 0x4474B, size: 0x8, addend: 0x0, symName: __ZNKSt3__116__deque_iteratorINS_7__stateIcEEPS2_RS2_PS3_lLl42EEdeB8ue170006Ev, symObjAddr: 0x31534, symBinAddr: 0x1000346A8, symSize: 0x18 }
  - { offsetInCU: 0x44771, offset: 0x44771, size: 0x8, addend: 0x0, symName: __ZNSt3__15dequeINS_7__stateIcEENS_9allocatorIS2_EEE6__sizeB8ue170006Ev, symObjAddr: 0x3154C, symBinAddr: 0x1000346C0, symSize: 0x28 }
  - { offsetInCU: 0x44797, offset: 0x44797, size: 0x8, addend: 0x0, symName: __ZNSt3__117__compressed_pairImNS_9allocatorINS_7__stateIcEEEEE6secondB8ue170006Ev, symObjAddr: 0x31574, symBinAddr: 0x1000346E8, symSize: 0x24 }
  - { offsetInCU: 0x447BD, offset: 0x447BD, size: 0x8, addend: 0x0, symName: __ZNKSt3__15dequeINS_7__stateIcEENS_9allocatorIS2_EEE10__capacityB8ue170006Ev, symObjAddr: 0x31598, symBinAddr: 0x10003470C, symSize: 0x64 }
  - { offsetInCU: 0x447E3, offset: 0x447E3, size: 0x8, addend: 0x0, symName: __ZNKSt3__15dequeINS_7__stateIcEENS_9allocatorIS2_EEE13__front_spareB8ue170006Ev, symObjAddr: 0x315FC, symBinAddr: 0x100034770, symSize: 0x18 }
  - { offsetInCU: 0x44809, offset: 0x44809, size: 0x8, addend: 0x0, symName: __ZNSt3__114__split_bufferIPNS_7__stateIcEENS_9allocatorIS3_EEE5frontB8ue170006Ev, symObjAddr: 0x31614, symBinAddr: 0x100034788, symSize: 0x18 }
  - { offsetInCU: 0x4482F, offset: 0x4482F, size: 0x8, addend: 0x0, symName: __ZNSt3__114__split_bufferIPNS_7__stateIcEENS_9allocatorIS3_EEE9pop_frontB8ue170006Ev, symObjAddr: 0x3162C, symBinAddr: 0x1000347A0, symSize: 0x2C }
  - { offsetInCU: 0x44855, offset: 0x44855, size: 0x8, addend: 0x0, symName: __ZNSt3__114__split_bufferIPNS_7__stateIcEENS_9allocatorIS3_EEE9push_backB8ue170006ERKS3_, symObjAddr: 0x31658, symBinAddr: 0x1000347CC, symSize: 0x260 }
  - { offsetInCU: 0x448CD, offset: 0x448CD, size: 0x8, addend: 0x0, symName: __ZNKSt3__114__split_bufferIPNS_7__stateIcEENS_9allocatorIS3_EEE8capacityB8ue170006Ev, symObjAddr: 0x318B8, symBinAddr: 0x100034A2C, symSize: 0x40 }
  - { offsetInCU: 0x448F3, offset: 0x448F3, size: 0x8, addend: 0x0, symName: __ZNKSt3__114__split_bufferIPNS_7__stateIcEENS_9allocatorIS3_EEE12__back_spareB8ue170006Ev, symObjAddr: 0x318F8, symBinAddr: 0x100034A6C, symSize: 0x40 }
  - { offsetInCU: 0x44919, offset: 0x44919, size: 0x8, addend: 0x0, symName: __ZNSt3__114__split_bufferIPNS_7__stateIcEENS_9allocatorIS3_EEE9push_backEOS3_, symObjAddr: 0x31938, symBinAddr: 0x100034AAC, symSize: 0x260 }
  - { offsetInCU: 0x44991, offset: 0x44991, size: 0x8, addend: 0x0, symName: __ZNSt3__116allocator_traitsINS_9allocatorINS_7__stateIcEEEEE8allocateB8ue170006ERS4_m, symObjAddr: 0x31B98, symBinAddr: 0x100034D0C, symSize: 0x2C }
  - { offsetInCU: 0x449C4, offset: 0x449C4, size: 0x8, addend: 0x0, symName: __ZNSt3__114__split_bufferIPNS_7__stateIcEENS_9allocatorIS3_EEE10push_frontEOS3_, symObjAddr: 0x31BC4, symBinAddr: 0x100034D38, symSize: 0x25C }
  - { offsetInCU: 0x44A3C, offset: 0x44A3C, size: 0x8, addend: 0x0, symName: __ZNKSt3__15dequeINS_7__stateIcEENS_9allocatorIS2_EEE22__annotate_whole_blockB8ue170006EmNS5_22__asan_annotation_typeE, symObjAddr: 0x31E20, symBinAddr: 0x100034F94, symSize: 0xAC }
  - { offsetInCU: 0x44AAD, offset: 0x44AAD, size: 0x8, addend: 0x0, symName: __ZNSt3__114__split_bufferIPNS_7__stateIcEENS_9allocatorIS3_EEE7__allocB8ue170006Ev, symObjAddr: 0x31ECC, symBinAddr: 0x100035040, symSize: 0x28 }
  - { offsetInCU: 0x44AD3, offset: 0x44AD3, size: 0x8, addend: 0x0, symName: __ZNSt3__114__split_bufferIPNS_7__stateIcEERNS_9allocatorIS3_EEEC1EmmS6_, symObjAddr: 0x31EF4, symBinAddr: 0x100035068, symSize: 0x44 }
  - { offsetInCU: 0x44B2E, offset: 0x44B2E, size: 0x8, addend: 0x0, symName: __ZNSt3__122__allocator_destructorINS_9allocatorINS_7__stateIcEEEEEC1B8ue170006ERS4_m, symObjAddr: 0x31F38, symBinAddr: 0x1000350AC, symSize: 0x3C }
  - { offsetInCU: 0x44BE5, offset: 0x44BE5, size: 0x8, addend: 0x0, symName: __ZNSt3__110unique_ptrIPNS_7__stateIcEENS_22__allocator_destructorINS_9allocatorIS2_EEEEEC1B8ue170006ILb1EvEES3_NS_16__dependent_typeINS_27__unique_ptr_deleter_sfinaeIS7_EEXT_EE20__good_rval_ref_typeE, symObjAddr: 0x31F74, symBinAddr: 0x1000350E8, symSize: 0x3C }
  - { offsetInCU: 0x44C36, offset: 0x44C36, size: 0x8, addend: 0x0, symName: __ZNSt3__114__split_bufferIPNS_7__stateIcEERNS_9allocatorIS3_EEE9push_backEOS3_, symObjAddr: 0x31FB0, symBinAddr: 0x100035124, symSize: 0x260 }
  - { offsetInCU: 0x44CAE, offset: 0x44CAE, size: 0x8, addend: 0x0, symName: __ZNKSt3__110unique_ptrIPNS_7__stateIcEENS_22__allocator_destructorINS_9allocatorIS2_EEEEE3getB8ue170006Ev, symObjAddr: 0x32210, symBinAddr: 0x100035384, symSize: 0x28 }
  - { offsetInCU: 0x44CD4, offset: 0x44CD4, size: 0x8, addend: 0x0, symName: __ZNSt3__110unique_ptrIPNS_7__stateIcEENS_22__allocator_destructorINS_9allocatorIS2_EEEEE7releaseB8ue170006Ev, symObjAddr: 0x32238, symBinAddr: 0x1000353AC, symSize: 0x44 }
  - { offsetInCU: 0x44D09, offset: 0x44D09, size: 0x8, addend: 0x0, symName: __ZNSt3__114__split_bufferIPNS_7__stateIcEENS_9allocatorIS3_EEE3endB8ue170006Ev, symObjAddr: 0x3227C, symBinAddr: 0x1000353F0, symSize: 0x18 }
  - { offsetInCU: 0x44D2F, offset: 0x44D2F, size: 0x8, addend: 0x0, symName: __ZNSt3__114__split_bufferIPNS_7__stateIcEENS_9allocatorIS3_EEE5beginB8ue170006Ev, symObjAddr: 0x32294, symBinAddr: 0x100035408, symSize: 0x18 }
  - { offsetInCU: 0x44D55, offset: 0x44D55, size: 0x8, addend: 0x0, symName: __ZNSt3__114__split_bufferIPNS_7__stateIcEERNS_9allocatorIS3_EEE10push_frontERKS3_, symObjAddr: 0x322AC, symBinAddr: 0x100035420, symSize: 0x25C }
  - { offsetInCU: 0x44DCD, offset: 0x44DCD, size: 0x8, addend: 0x0, symName: __ZNSt3__114__split_bufferIPNS_7__stateIcEENS_9allocatorIS3_EEE9__end_capB8ue170006Ev, symObjAddr: 0x32544, symBinAddr: 0x1000356B8, symSize: 0x28 }
  - { offsetInCU: 0x44DF3, offset: 0x44DF3, size: 0x8, addend: 0x0, symName: __ZNSt3__114__split_bufferIPNS_7__stateIcEERNS_9allocatorIS3_EEE9__end_capB8ue170006Ev, symObjAddr: 0x3256C, symBinAddr: 0x1000356E0, symSize: 0x28 }
  - { offsetInCU: 0x44E19, offset: 0x44E19, size: 0x8, addend: 0x0, symName: __ZNSt3__110unique_ptrIPNS_7__stateIcEENS_22__allocator_destructorINS_9allocatorIS2_EEEEED1B8ue170006Ev, symObjAddr: 0x32594, symBinAddr: 0x100035708, symSize: 0x2C }
  - { offsetInCU: 0x44E43, offset: 0x44E43, size: 0x8, addend: 0x0, symName: __ZNSt3__114__split_bufferIPNS_7__stateIcEERNS_9allocatorIS3_EEED1Ev, symObjAddr: 0x325C0, symBinAddr: 0x100035734, symSize: 0x2C }
  - { offsetInCU: 0x44E6F, offset: 0x44E6F, size: 0x8, addend: 0x0, symName: __ZNSt3__114__split_bufferIPNS_7__stateIcEENS_9allocatorIS3_EEE19__destruct_at_beginB8ue170006EPS3_, symObjAddr: 0x325EC, symBinAddr: 0x100035760, symSize: 0x2C }
  - { offsetInCU: 0x44EA3, offset: 0x44EA3, size: 0x8, addend: 0x0, symName: __ZNSt3__114__split_bufferIPNS_7__stateIcEENS_9allocatorIS3_EEE19__destruct_at_beginEPS3_NS_17integral_constantIbLb1EEE, symObjAddr: 0x32618, symBinAddr: 0x10003578C, symSize: 0x20 }
  - { offsetInCU: 0x44EE3, offset: 0x44EE3, size: 0x8, addend: 0x0, symName: __ZNSt3__114__split_bufferIPNS_7__stateIcEERNS_9allocatorIS3_EEE18__construct_at_endINS_13move_iteratorIPS3_EEEENS_9enable_ifIXsr31__has_forward_iterator_categoryIT_EE5valueEvE4typeESD_SD_, symObjAddr: 0x32678, symBinAddr: 0x1000357EC, symSize: 0x60 }
  - { offsetInCU: 0x44F30, offset: 0x44F30, size: 0x8, addend: 0x0, symName: __ZNSt3__113move_iteratorIPPNS_7__stateIcEEEC1B8ue170006ES4_, symObjAddr: 0x326D8, symBinAddr: 0x10003584C, symSize: 0x34 }
  - { offsetInCU: 0x44F68, offset: 0x44F68, size: 0x8, addend: 0x0, symName: __ZNSt3__116allocator_traitsINS_9allocatorIPNS_7__stateIcEEEEE9constructB8ue170006IS4_JRKS4_EvEEvRS5_PT_DpOT0_, symObjAddr: 0x3270C, symBinAddr: 0x100035880, symSize: 0x34 }
  - { offsetInCU: 0x44FE5, offset: 0x44FE5, size: 0x8, addend: 0x0, symName: __ZNKSt3__114__move_trivialclB8ue170006IPNS_7__stateIcEES4_Li0EEENS_4pairIPT_PT0_EES7_S7_S9_, symObjAddr: 0x328F0, symBinAddr: 0x100035A64, symSize: 0x48 }
  - { offsetInCU: 0x45053, offset: 0x45053, size: 0x8, addend: 0x0, symName: __ZNSt3__14pairIPPNS_7__stateIcEES4_EC1B8ue170006IRS4_S4_LPv0EEEOT_OT0_, symObjAddr: 0x32B18, symBinAddr: 0x100035C8C, symSize: 0x3C }
  - { offsetInCU: 0x450B1, offset: 0x450B1, size: 0x8, addend: 0x0, symName: __ZNSt3__14pairIPPNS_7__stateIcEES4_EC2B8ue170006IRS4_S4_LPv0EEEOT_OT0_, symObjAddr: 0x32B54, symBinAddr: 0x100035CC8, symSize: 0x34 }
  - { offsetInCU: 0x4510F, offset: 0x4510F, size: 0x8, addend: 0x0, symName: __ZNSt3__118__unwrap_iter_implIPPNS_7__stateIcEELb1EE8__unwrapB8ue170006ES4_, symObjAddr: 0x32B88, symBinAddr: 0x100035CFC, symSize: 0x24 }
  - { offsetInCU: 0x45132, offset: 0x45132, size: 0x8, addend: 0x0, symName: __ZNSt3__14pairIPPNS_7__stateIcEES4_EC1B8ue170006IS4_S4_LPv0EEEOT_OT0_, symObjAddr: 0x32BAC, symBinAddr: 0x100035D20, symSize: 0x3C }
  - { offsetInCU: 0x45190, offset: 0x45190, size: 0x8, addend: 0x0, symName: __ZNSt3__14pairIPPNS_7__stateIcEES4_EC2B8ue170006IS4_S4_LPv0EEEOT_OT0_, symObjAddr: 0x32BE8, symBinAddr: 0x100035D5C, symSize: 0x34 }
  - { offsetInCU: 0x451EE, offset: 0x451EE, size: 0x8, addend: 0x0, symName: __ZNSt3__118__unwrap_iter_implIPPNS_7__stateIcEELb1EE8__rewrapB8ue170006ES4_S4_, symObjAddr: 0x32C1C, symBinAddr: 0x100035D90, symSize: 0x50 }
  - { offsetInCU: 0x4521F, offset: 0x4521F, size: 0x8, addend: 0x0, symName: __ZNSt3__114__split_bufferIPNS_7__stateIcEERNS_9allocatorIS3_EEE28__construct_at_end_with_sizeINS_13move_iteratorIPS3_EEEEvT_m, symObjAddr: 0x32C6C, symBinAddr: 0x100035DE0, symSize: 0xDC }
  - { offsetInCU: 0x45285, offset: 0x45285, size: 0x8, addend: 0x0, symName: __ZNSt3__114__split_bufferIPNS_7__stateIcEERNS_9allocatorIS3_EEE21_ConstructTransactionC1B8ue170006EPPS3_m, symObjAddr: 0x32D84, symBinAddr: 0x100035EF8, symSize: 0x3C }
  - { offsetInCU: 0x452CB, offset: 0x452CB, size: 0x8, addend: 0x0, symName: __ZNSt3__116allocator_traitsINS_9allocatorIPNS_7__stateIcEEEEE9constructB8ue170006IS4_JS4_EvEEvRS5_PT_DpOT0_, symObjAddr: 0x32DC0, symBinAddr: 0x100035F34, symSize: 0x34 }
  - { offsetInCU: 0x45322, offset: 0x45322, size: 0x8, addend: 0x0, symName: __ZNSt3__114__split_bufferIPNS_7__stateIcEERNS_9allocatorIS3_EEE7__allocB8ue170006Ev, symObjAddr: 0x32DF4, symBinAddr: 0x100035F68, symSize: 0x28 }
  - { offsetInCU: 0x45348, offset: 0x45348, size: 0x8, addend: 0x0, symName: __ZNKSt3__113move_iteratorIPPNS_7__stateIcEEEdeB8ue170006Ev, symObjAddr: 0x32E1C, symBinAddr: 0x100035F90, symSize: 0x18 }
  - { offsetInCU: 0x4536E, offset: 0x4536E, size: 0x8, addend: 0x0, symName: __ZNSt3__113move_iteratorIPPNS_7__stateIcEEEppB8ue170006Ev, symObjAddr: 0x32E34, symBinAddr: 0x100035FA8, symSize: 0x20 }
  - { offsetInCU: 0x45394, offset: 0x45394, size: 0x8, addend: 0x0, symName: __ZNSt3__114__split_bufferIPNS_7__stateIcEERNS_9allocatorIS3_EEE21_ConstructTransactionD1B8ue170006Ev, symObjAddr: 0x32E54, symBinAddr: 0x100035FC8, symSize: 0x2C }
  - { offsetInCU: 0x453BE, offset: 0x453BE, size: 0x8, addend: 0x0, symName: __ZNSt3__114__split_bufferIPNS_7__stateIcEERNS_9allocatorIS3_EEE21_ConstructTransactionC2B8ue170006EPPS3_m, symObjAddr: 0x32E80, symBinAddr: 0x100035FF4, symSize: 0x44 }
  - { offsetInCU: 0x45404, offset: 0x45404, size: 0x8, addend: 0x0, symName: __ZNSt3__19allocatorIPNS_7__stateIcEEE9constructB8ue170006IS3_JS3_EEEvPT_DpOT0_, symObjAddr: 0x32EC4, symBinAddr: 0x100036038, symSize: 0x28 }
  - { offsetInCU: 0x4545A, offset: 0x4545A, size: 0x8, addend: 0x0, symName: __ZNSt3__117__compressed_pairIPPNS_7__stateIcEERNS_9allocatorIS3_EEE6secondB8ue170006Ev, symObjAddr: 0x32EEC, symBinAddr: 0x100036060, symSize: 0x28 }
  - { offsetInCU: 0x45480, offset: 0x45480, size: 0x8, addend: 0x0, symName: __ZNSt3__122__compressed_pair_elemIRNS_9allocatorIPNS_7__stateIcEEEELi1ELb0EE5__getB8ue170006Ev, symObjAddr: 0x32F14, symBinAddr: 0x100036088, symSize: 0x18 }
  - { offsetInCU: 0x454A6, offset: 0x454A6, size: 0x8, addend: 0x0, symName: __ZNSt3__114__split_bufferIPNS_7__stateIcEERNS_9allocatorIS3_EEE21_ConstructTransactionD2B8ue170006Ev, symObjAddr: 0x32F2C, symBinAddr: 0x1000360A0, symSize: 0x20 }
  - { offsetInCU: 0x454D0, offset: 0x454D0, size: 0x8, addend: 0x0, symName: __ZNKSt3__113move_iteratorIPPNS_7__stateIcEEE4baseB8ue170006Ev, symObjAddr: 0x32FC4, symBinAddr: 0x100036138, symSize: 0x18 }
  - { offsetInCU: 0x454F6, offset: 0x454F6, size: 0x8, addend: 0x0, symName: __ZNSt3__113move_iteratorIPPNS_7__stateIcEEEC2B8ue170006ES4_, symObjAddr: 0x32FDC, symBinAddr: 0x100036150, symSize: 0x20 }
  - { offsetInCU: 0x4552E, offset: 0x4552E, size: 0x8, addend: 0x0, symName: __ZNSt3__19allocatorIPNS_7__stateIcEEE9constructB8ue170006IS3_JRKS3_EEEvPT_DpOT0_, symObjAddr: 0x32FFC, symBinAddr: 0x100036170, symSize: 0x28 }
  - { offsetInCU: 0x45584, offset: 0x45584, size: 0x8, addend: 0x0, symName: __ZNKSt3__114__split_bufferIPNS_7__stateIcEENS_9allocatorIS3_EEE9__end_capB8ue170006Ev, symObjAddr: 0x33024, symBinAddr: 0x100036198, symSize: 0x28 }
  - { offsetInCU: 0x455AA, offset: 0x455AA, size: 0x8, addend: 0x0, symName: __ZNKSt3__117__compressed_pairIPPNS_7__stateIcEENS_9allocatorIS3_EEE5firstB8ue170006Ev, symObjAddr: 0x3304C, symBinAddr: 0x1000361C0, symSize: 0x24 }
  - { offsetInCU: 0x455D0, offset: 0x455D0, size: 0x8, addend: 0x0, symName: __ZNKSt3__122__compressed_pair_elemIPPNS_7__stateIcEELi0ELb0EE5__getB8ue170006Ev, symObjAddr: 0x33070, symBinAddr: 0x1000361E4, symSize: 0x14 }
  - { offsetInCU: 0x45600, offset: 0x45600, size: 0x8, addend: 0x0, symName: __ZNKSt3__123__move_backward_trivialclB8ue170006IPNS_7__stateIcEES4_Li0EEENS_4pairIPT_PT0_EES7_S7_S9_, symObjAddr: 0x33200, symBinAddr: 0x100036374, symSize: 0x48 }
  - { offsetInCU: 0x45668, offset: 0x45668, size: 0x8, addend: 0x0, symName: __ZNSt3__14pairIPPNS_7__stateIcEES4_EC1B8ue170006IRS4_S7_LPv0EEEOT_OT0_, symObjAddr: 0x33310, symBinAddr: 0x100036484, symSize: 0x3C }
  - { offsetInCU: 0x456C6, offset: 0x456C6, size: 0x8, addend: 0x0, symName: __ZNSt3__14pairIPPNS_7__stateIcEES4_EC2B8ue170006IRS4_S7_LPv0EEEOT_OT0_, symObjAddr: 0x3334C, symBinAddr: 0x1000364C0, symSize: 0x34 }
  - { offsetInCU: 0x45724, offset: 0x45724, size: 0x8, addend: 0x0, symName: __ZNKSt3__15dequeINS_7__stateIcEENS_9allocatorIS2_EEE23__annotate_poison_blockB8ue170006EPKvS7_, symObjAddr: 0x33380, symBinAddr: 0x1000364F4, symSize: 0x44 }
  - { offsetInCU: 0x45768, offset: 0x45768, size: 0x8, addend: 0x0, symName: __ZNSt3__117__compressed_pairIPPNS_7__stateIcEENS_9allocatorIS3_EEE6secondB8ue170006Ev, symObjAddr: 0x333C4, symBinAddr: 0x100036538, symSize: 0x24 }
  - { offsetInCU: 0x4578E, offset: 0x4578E, size: 0x8, addend: 0x0, symName: __ZNSt3__122__compressed_pair_elemINS_9allocatorIPNS_7__stateIcEEEELi1ELb1EE5__getB8ue170006Ev, symObjAddr: 0x333E8, symBinAddr: 0x10003655C, symSize: 0x14 }
  - { offsetInCU: 0x457B4, offset: 0x457B4, size: 0x8, addend: 0x0, symName: __ZNSt3__114__split_bufferIPNS_7__stateIcEERNS_9allocatorIS3_EEEC2EmmS6_, symObjAddr: 0x333FC, symBinAddr: 0x100036570, symSize: 0xD4 }
  - { offsetInCU: 0x45827, offset: 0x45827, size: 0x8, addend: 0x0, symName: __ZNSt3__117__compressed_pairIPPNS_7__stateIcEERNS_9allocatorIS3_EEEC1B8ue170006IDnS7_EEOT_OT0_, symObjAddr: 0x334D0, symBinAddr: 0x100036644, symSize: 0x3C }
  - { offsetInCU: 0x4587F, offset: 0x4587F, size: 0x8, addend: 0x0, symName: __ZNSt3__117__compressed_pairIPPNS_7__stateIcEERNS_9allocatorIS3_EEEC2B8ue170006IDnS7_EEOT_OT0_, symObjAddr: 0x3354C, symBinAddr: 0x1000366C0, symSize: 0x48 }
  - { offsetInCU: 0x458D7, offset: 0x458D7, size: 0x8, addend: 0x0, symName: __ZNSt3__122__compressed_pair_elemIRNS_9allocatorIPNS_7__stateIcEEEELi1ELb0EEC2B8ue170006IS6_vEEOT_, symObjAddr: 0x33594, symBinAddr: 0x100036708, symSize: 0x20 }
  - { offsetInCU: 0x45919, offset: 0x45919, size: 0x8, addend: 0x0, symName: __ZNSt3__19allocatorIPNS_7__stateIcEEE8allocateB8ue170006Em, symObjAddr: 0x335B4, symBinAddr: 0x100036728, symSize: 0x58 }
  - { offsetInCU: 0x45958, offset: 0x45958, size: 0x8, addend: 0x0, symName: __ZNSt3__116allocator_traitsINS_9allocatorIPNS_7__stateIcEEEEE8max_sizeB8ue170006IS5_vEEmRKS5_, symObjAddr: 0x3360C, symBinAddr: 0x100036780, symSize: 0x24 }
  - { offsetInCU: 0x45986, offset: 0x45986, size: 0x8, addend: 0x0, symName: __ZNKSt3__19allocatorIPNS_7__stateIcEEE8max_sizeB8ue170006Ev, symObjAddr: 0x33630, symBinAddr: 0x1000367A4, symSize: 0x14 }
  - { offsetInCU: 0x459AC, offset: 0x459AC, size: 0x8, addend: 0x0, symName: __ZNSt3__122__allocator_destructorINS_9allocatorINS_7__stateIcEEEEEC2B8ue170006ERS4_m, symObjAddr: 0x33644, symBinAddr: 0x1000367B8, symSize: 0x2C }
  - { offsetInCU: 0x459F2, offset: 0x459F2, size: 0x8, addend: 0x0, symName: __ZNSt3__110unique_ptrIPNS_7__stateIcEENS_22__allocator_destructorINS_9allocatorIS2_EEEEEC2B8ue170006ILb1EvEES3_NS_16__dependent_typeINS_27__unique_ptr_deleter_sfinaeIS7_EEXT_EE20__good_rval_ref_typeE, symObjAddr: 0x33670, symBinAddr: 0x1000367E4, symSize: 0x48 }
  - { offsetInCU: 0x45A43, offset: 0x45A43, size: 0x8, addend: 0x0, symName: __ZNSt3__117__compressed_pairIPNS_7__stateIcEENS_22__allocator_destructorINS_9allocatorIS2_EEEEEC1B8ue170006IRS3_S7_EEOT_OT0_, symObjAddr: 0x336B8, symBinAddr: 0x10003682C, symSize: 0x3C }
  - { offsetInCU: 0x45A9B, offset: 0x45A9B, size: 0x8, addend: 0x0, symName: __ZNSt3__117__compressed_pairIPNS_7__stateIcEENS_22__allocator_destructorINS_9allocatorIS2_EEEEEC2B8ue170006IRS3_S7_EEOT_OT0_, symObjAddr: 0x336F4, symBinAddr: 0x100036868, symSize: 0x48 }
  - { offsetInCU: 0x45AF3, offset: 0x45AF3, size: 0x8, addend: 0x0, symName: __ZNSt3__122__compressed_pair_elemIPNS_7__stateIcEELi0ELb0EEC2B8ue170006IRS3_vEEOT_, symObjAddr: 0x3373C, symBinAddr: 0x1000368B0, symSize: 0x24 }
  - { offsetInCU: 0x45B35, offset: 0x45B35, size: 0x8, addend: 0x0, symName: __ZNSt3__122__compressed_pair_elemINS_22__allocator_destructorINS_9allocatorINS_7__stateIcEEEEEELi1ELb0EEC2B8ue170006IS6_vEEOT_, symObjAddr: 0x33760, symBinAddr: 0x1000368D4, symSize: 0x24 }
  - { offsetInCU: 0x45B77, offset: 0x45B77, size: 0x8, addend: 0x0, symName: __ZNKSt3__117__compressed_pairIPNS_7__stateIcEENS_22__allocator_destructorINS_9allocatorIS2_EEEEE5firstB8ue170006Ev, symObjAddr: 0x33784, symBinAddr: 0x1000368F8, symSize: 0x24 }
  - { offsetInCU: 0x45B9D, offset: 0x45B9D, size: 0x8, addend: 0x0, symName: __ZNSt3__117__compressed_pairIPNS_7__stateIcEENS_22__allocator_destructorINS_9allocatorIS2_EEEEE5firstB8ue170006Ev, symObjAddr: 0x337A8, symBinAddr: 0x10003691C, symSize: 0x24 }
  - { offsetInCU: 0x45BC3, offset: 0x45BC3, size: 0x8, addend: 0x0, symName: __ZNSt3__117__compressed_pairIPPNS_7__stateIcEENS_9allocatorIS3_EEE5firstB8ue170006Ev, symObjAddr: 0x337CC, symBinAddr: 0x100036940, symSize: 0x24 }
  - { offsetInCU: 0x45BE9, offset: 0x45BE9, size: 0x8, addend: 0x0, symName: __ZNSt3__122__compressed_pair_elemIPPNS_7__stateIcEELi0ELb0EE5__getB8ue170006Ev, symObjAddr: 0x337F0, symBinAddr: 0x100036964, symSize: 0x14 }
  - { offsetInCU: 0x45C0F, offset: 0x45C0F, size: 0x8, addend: 0x0, symName: __ZNSt3__117__compressed_pairIPPNS_7__stateIcEERNS_9allocatorIS3_EEE5firstB8ue170006Ev, symObjAddr: 0x33804, symBinAddr: 0x100036978, symSize: 0x24 }
  - { offsetInCU: 0x45C35, offset: 0x45C35, size: 0x8, addend: 0x0, symName: __ZNSt3__110unique_ptrIPNS_7__stateIcEENS_22__allocator_destructorINS_9allocatorIS2_EEEEED2B8ue170006Ev, symObjAddr: 0x33828, symBinAddr: 0x10003699C, symSize: 0x30 }
  - { offsetInCU: 0x45C5F, offset: 0x45C5F, size: 0x8, addend: 0x0, symName: __ZNSt3__110unique_ptrIPNS_7__stateIcEENS_22__allocator_destructorINS_9allocatorIS2_EEEEE5resetB8ue170006ES3_, symObjAddr: 0x33858, symBinAddr: 0x1000369CC, symSize: 0x78 }
  - { offsetInCU: 0x45CA3, offset: 0x45CA3, size: 0x8, addend: 0x0, symName: __ZNSt3__117__compressed_pairIPNS_7__stateIcEENS_22__allocator_destructorINS_9allocatorIS2_EEEEE6secondB8ue170006Ev, symObjAddr: 0x338D0, symBinAddr: 0x100036A44, symSize: 0x28 }
  - { offsetInCU: 0x45CC9, offset: 0x45CC9, size: 0x8, addend: 0x0, symName: __ZNSt3__122__allocator_destructorINS_9allocatorINS_7__stateIcEEEEEclB8ue170006EPS3_, symObjAddr: 0x338F8, symBinAddr: 0x100036A6C, symSize: 0x34 }
  - { offsetInCU: 0x45CFD, offset: 0x45CFD, size: 0x8, addend: 0x0, symName: __ZNSt3__122__compressed_pair_elemINS_22__allocator_destructorINS_9allocatorINS_7__stateIcEEEEEELi1ELb0EE5__getB8ue170006Ev, symObjAddr: 0x3392C, symBinAddr: 0x100036AA0, symSize: 0x14 }
  - { offsetInCU: 0x45D23, offset: 0x45D23, size: 0x8, addend: 0x0, symName: __ZNSt3__114__split_bufferIPNS_7__stateIcEERNS_9allocatorIS3_EEED2Ev, symObjAddr: 0x33940, symBinAddr: 0x100036AB4, symSize: 0x8C }
  - { offsetInCU: 0x45D4F, offset: 0x45D4F, size: 0x8, addend: 0x0, symName: __ZNSt3__114__split_bufferIPNS_7__stateIcEERNS_9allocatorIS3_EEE5clearB8ue170006Ev, symObjAddr: 0x339CC, symBinAddr: 0x100036B40, symSize: 0x28 }
  - { offsetInCU: 0x45D75, offset: 0x45D75, size: 0x8, addend: 0x0, symName: __ZNSt3__116allocator_traitsINS_9allocatorIPNS_7__stateIcEEEEE10deallocateB8ue170006ERS5_PS4_m, symObjAddr: 0x339F4, symBinAddr: 0x100036B68, symSize: 0x34 }
  - { offsetInCU: 0x45DB7, offset: 0x45DB7, size: 0x8, addend: 0x0, symName: __ZNKSt3__114__split_bufferIPNS_7__stateIcEERNS_9allocatorIS3_EEE8capacityB8ue170006Ev, symObjAddr: 0x33A28, symBinAddr: 0x100036B9C, symSize: 0x40 }
  - { offsetInCU: 0x45DDD, offset: 0x45DDD, size: 0x8, addend: 0x0, symName: __ZNSt3__114__split_bufferIPNS_7__stateIcEERNS_9allocatorIS3_EEE17__destruct_at_endB8ue170006EPS3_, symObjAddr: 0x33A68, symBinAddr: 0x100036BDC, symSize: 0x2C }
  - { offsetInCU: 0x45E11, offset: 0x45E11, size: 0x8, addend: 0x0, symName: __ZNSt3__114__split_bufferIPNS_7__stateIcEERNS_9allocatorIS3_EEE17__destruct_at_endB8ue170006EPS3_NS_17integral_constantIbLb0EEE, symObjAddr: 0x33A94, symBinAddr: 0x100036C08, symSize: 0x80 }
  - { offsetInCU: 0x45E51, offset: 0x45E51, size: 0x8, addend: 0x0, symName: __ZNSt3__116allocator_traitsINS_9allocatorIPNS_7__stateIcEEEEE7destroyB8ue170006IS4_vEEvRS5_PT_, symObjAddr: 0x33B14, symBinAddr: 0x100036C88, symSize: 0x2C }
  - { offsetInCU: 0x45E8E, offset: 0x45E8E, size: 0x8, addend: 0x0, symName: __ZNSt3__19allocatorIPNS_7__stateIcEEE7destroyB8ue170006EPS3_, symObjAddr: 0x33B40, symBinAddr: 0x100036CB4, symSize: 0x14 }
  - { offsetInCU: 0x45EC2, offset: 0x45EC2, size: 0x8, addend: 0x0, symName: __ZNSt3__19allocatorIPNS_7__stateIcEEE10deallocateB8ue170006EPS3_m, symObjAddr: 0x33B54, symBinAddr: 0x100036CC8, symSize: 0x40 }
  - { offsetInCU: 0x45F04, offset: 0x45F04, size: 0x8, addend: 0x0, symName: __ZNKSt3__114__split_bufferIPNS_7__stateIcEERNS_9allocatorIS3_EEE9__end_capB8ue170006Ev, symObjAddr: 0x33B94, symBinAddr: 0x100036D08, symSize: 0x28 }
  - { offsetInCU: 0x45F2A, offset: 0x45F2A, size: 0x8, addend: 0x0, symName: __ZNKSt3__117__compressed_pairIPPNS_7__stateIcEERNS_9allocatorIS3_EEE5firstB8ue170006Ev, symObjAddr: 0x33BBC, symBinAddr: 0x100036D30, symSize: 0x24 }
  - { offsetInCU: 0x45F50, offset: 0x45F50, size: 0x8, addend: 0x0, symName: __ZNKSt3__114__split_bufferIPNS_7__stateIcEENS_9allocatorIS3_EEE5emptyB8ue170006Ev, symObjAddr: 0x33BE0, symBinAddr: 0x100036D54, symSize: 0x28 }
  - { offsetInCU: 0x45F76, offset: 0x45F76, size: 0x8, addend: 0x0, symName: __ZNSt3__116__deque_iteratorINS_7__stateIcEEPS2_RS2_PS3_lLl42EEC1B8ue170006ES5_S3_, symObjAddr: 0x33C08, symBinAddr: 0x100036D7C, symSize: 0x3C }
  - { offsetInCU: 0x45FBE, offset: 0x45FBE, size: 0x8, addend: 0x0, symName: __ZNSt3__116__deque_iteratorINS_7__stateIcEEPS2_RS2_PS3_lLl42EEC2B8ue170006ES5_S3_, symObjAddr: 0x33C44, symBinAddr: 0x100036DB8, symSize: 0x2C }
  - { offsetInCU: 0x46006, offset: 0x46006, size: 0x8, addend: 0x0, symName: __ZNSt3__117__compressed_pairImNS_9allocatorINS_7__stateIcEEEEE5firstB8ue170006Ev, symObjAddr: 0x33C70, symBinAddr: 0x100036DE4, symSize: 0x24 }
  - { offsetInCU: 0x4602C, offset: 0x4602C, size: 0x8, addend: 0x0, symName: __ZNSt3__122__compressed_pair_elemImLi0ELb0EE5__getB8ue170006Ev, symObjAddr: 0x33C94, symBinAddr: 0x100036E08, symSize: 0x14 }
  - { offsetInCU: 0x46052, offset: 0x46052, size: 0x8, addend: 0x0, symName: __ZNKSt3__15dequeINS_7__stateIcEENS_9allocatorIS2_EEE22__annotate_shrink_backB8ue170006Emm, symObjAddr: 0x33CA8, symBinAddr: 0x100036E1C, symSize: 0x60 }
  - { offsetInCU: 0x46096, offset: 0x46096, size: 0x8, addend: 0x0, symName: __ZNSt3__15dequeINS_7__stateIcEENS_9allocatorIS2_EEE25__maybe_remove_back_spareB8ue170006Eb, symObjAddr: 0x33D08, symBinAddr: 0x100036E7C, symSize: 0xE8 }
  - { offsetInCU: 0x460CB, offset: 0x460CB, size: 0x8, addend: 0x0, symName: __ZNKSt3__15dequeINS_7__stateIcEENS_9allocatorIS2_EEE19__back_spare_blocksB8ue170006Ev, symObjAddr: 0x33DF0, symBinAddr: 0x100036F64, symSize: 0x2C }
  - { offsetInCU: 0x460F1, offset: 0x460F1, size: 0x8, addend: 0x0, symName: __ZNSt3__114__split_bufferIPNS_7__stateIcEENS_9allocatorIS3_EEE4backB8ue170006Ev, symObjAddr: 0x33E1C, symBinAddr: 0x100036F90, symSize: 0x1C }
  - { offsetInCU: 0x46117, offset: 0x46117, size: 0x8, addend: 0x0, symName: __ZNSt3__114__split_bufferIPNS_7__stateIcEENS_9allocatorIS3_EEE8pop_backB8ue170006Ev, symObjAddr: 0x33E38, symBinAddr: 0x100036FAC, symSize: 0x2C }
  - { offsetInCU: 0x4613D, offset: 0x4613D, size: 0x8, addend: 0x0, symName: __ZNSt3__114__split_bufferIPNS_7__stateIcEENS_9allocatorIS3_EEE17__destruct_at_endB8ue170006EPS3_, symObjAddr: 0x33E64, symBinAddr: 0x100036FD8, symSize: 0x2C }
  - { offsetInCU: 0x46171, offset: 0x46171, size: 0x8, addend: 0x0, symName: __ZNSt3__114__split_bufferIPNS_7__stateIcEENS_9allocatorIS3_EEE17__destruct_at_endB8ue170006EPS3_NS_17integral_constantIbLb0EEE, symObjAddr: 0x33E90, symBinAddr: 0x100037004, symSize: 0x80 }
  - { offsetInCU: 0x461B1, offset: 0x461B1, size: 0x8, addend: 0x0, symName: __ZNKSt3__15dequeINS_7__stateIcEENS_9allocatorIS2_EEE17__annotate_deleteB8ue170006Ev, symObjAddr: 0x33F10, symBinAddr: 0x100037084, symSize: 0xEC }
  - { offsetInCU: 0x461F4, offset: 0x461F4, size: 0x8, addend: 0x0, symName: __ZNSt3__15dequeINS_7__stateIcEENS_9allocatorIS2_EEE5beginB8ue170006Ev, symObjAddr: 0x33FFC, symBinAddr: 0x100037170, symSize: 0xB0 }
  - { offsetInCU: 0x46229, offset: 0x46229, size: 0x8, addend: 0x0, symName: __ZNSt3__116__deque_iteratorINS_7__stateIcEEPS2_RS2_PS3_lLl42EEppB8ue170006Ev, symObjAddr: 0x340E0, symBinAddr: 0x100037254, symSize: 0x70 }
  - { offsetInCU: 0x4624F, offset: 0x4624F, size: 0x8, addend: 0x0, symName: __ZNSt3__15dequeINS_7__stateIcEENS_9allocatorIS2_EEE20__add_front_capacityEv, symObjAddr: 0x34180, symBinAddr: 0x1000372F4, symSize: 0x3A4 }
  - { offsetInCU: 0x46304, offset: 0x46304, size: 0x8, addend: 0x0, symName: __ZNKSt3__15dequeINS_7__stateIcEENS_9allocatorIS2_EEE25__annotate_increase_frontB8ue170006Em, symObjAddr: 0x34524, symBinAddr: 0x100037698, symSize: 0x40 }
  - { offsetInCU: 0x46339, offset: 0x46339, size: 0x8, addend: 0x0, symName: __ZNSt3__116__deque_iteratorINS_7__stateIcEEPS2_RS2_PS3_lLl42EEmmB8ue170006Ev, symObjAddr: 0x34564, symBinAddr: 0x1000376D8, symSize: 0x68 }
  - { offsetInCU: 0x4635F, offset: 0x4635F, size: 0x8, addend: 0x0, symName: __ZNSt3__114__split_bufferIPNS_7__stateIcEENS_9allocatorIS3_EEE10push_frontERKS3_, symObjAddr: 0x345CC, symBinAddr: 0x100037740, symSize: 0x25C }
  - { offsetInCU: 0x463D7, offset: 0x463D7, size: 0x8, addend: 0x0, symName: __ZNKSt3__114__split_bufferIPNS_7__stateIcEENS_9allocatorIS3_EEE13__front_spareB8ue170006Ev, symObjAddr: 0x34828, symBinAddr: 0x10003799C, symSize: 0x28 }
  - { offsetInCU: 0x463FD, offset: 0x463FD, size: 0x8, addend: 0x0, symName: __ZNSt3__114__split_bufferIPNS_7__stateIcEERNS_9allocatorIS3_EEE9push_backB8ue170006ERKS3_, symObjAddr: 0x34850, symBinAddr: 0x1000379C4, symSize: 0x260 }
  - { offsetInCU: 0x46475, offset: 0x46475, size: 0x8, addend: 0x0, symName: __ZNSt3__15dequeINS_7__stateIcEENS_9allocatorIS2_EEED2B8ue170006Ev, symObjAddr: 0x34AB0, symBinAddr: 0x100037C24, symSize: 0xA4 }
  - { offsetInCU: 0x464CB, offset: 0x464CB, size: 0x8, addend: 0x0, symName: __ZNSt3__114__split_bufferIPNS_7__stateIcEENS_9allocatorIS3_EEED1Ev, symObjAddr: 0x34B54, symBinAddr: 0x100037CC8, symSize: 0x2C }
  - { offsetInCU: 0x464F7, offset: 0x464F7, size: 0x8, addend: 0x0, symName: __ZNSt3__114__split_bufferIPNS_7__stateIcEENS_9allocatorIS3_EEED2Ev, symObjAddr: 0x34B80, symBinAddr: 0x100037CF4, symSize: 0x80 }
  - { offsetInCU: 0x46523, offset: 0x46523, size: 0x8, addend: 0x0, symName: __ZNSt3__114__split_bufferIPNS_7__stateIcEENS_9allocatorIS3_EEE5clearB8ue170006Ev, symObjAddr: 0x34C00, symBinAddr: 0x100037D74, symSize: 0x28 }
  - { offsetInCU: 0x46549, offset: 0x46549, size: 0x8, addend: 0x0, symName: __ZNSt3__17__stateIcEaSERKS1_, symObjAddr: 0x34C28, symBinAddr: 0x100037D9C, symSize: 0x78 }
  - { offsetInCU: 0x4657B, offset: 0x4657B, size: 0x8, addend: 0x0, symName: __ZNSt3__16vectorINS_7__stateIcEENS_9allocatorIS2_EEE5clearB8ue170006Ev, symObjAddr: 0x34CA0, symBinAddr: 0x100037E14, symSize: 0x44 }
  - { offsetInCU: 0x465B0, offset: 0x465B0, size: 0x8, addend: 0x0, symName: __ZNSt3__16vectorINS_9sub_matchIPKcEENS_9allocatorIS4_EEEaSB8ue170006ERKS7_, symObjAddr: 0x34CE4, symBinAddr: 0x100037E58, symSize: 0x68 }
  - { offsetInCU: 0x465E7, offset: 0x465E7, size: 0x8, addend: 0x0, symName: __ZNSt3__16vectorINS_4pairImPKcEENS_9allocatorIS4_EEEaSB8ue170006ERKS7_, symObjAddr: 0x34D4C, symBinAddr: 0x100037EC0, symSize: 0x68 }
  - { offsetInCU: 0x4661E, offset: 0x4661E, size: 0x8, addend: 0x0, symName: __ZNSt3__16vectorINS_9sub_matchIPKcEENS_9allocatorIS4_EEE19__copy_assign_allocB8ue170006ERKS7_, symObjAddr: 0x34DB4, symBinAddr: 0x100037F28, symSize: 0x2C }
  - { offsetInCU: 0x46653, offset: 0x46653, size: 0x8, addend: 0x0, symName: __ZNSt3__16vectorINS_9sub_matchIPKcEENS_9allocatorIS4_EEE6assignIPS4_Li0EEEvT_SA_, symObjAddr: 0x34DE0, symBinAddr: 0x100037F54, symSize: 0x5C }
  - { offsetInCU: 0x466A8, offset: 0x466A8, size: 0x8, addend: 0x0, symName: __ZNSt3__16vectorINS_9sub_matchIPKcEENS_9allocatorIS4_EEE19__copy_assign_allocB8ue170006ERKS7_NS_17integral_constantIbLb0EEE, symObjAddr: 0x34E3C, symBinAddr: 0x100037FB0, symSize: 0x14 }
  - { offsetInCU: 0x466E4, offset: 0x466E4, size: 0x8, addend: 0x0, symName: __ZNSt3__16vectorINS_9sub_matchIPKcEENS_9allocatorIS4_EEE18__assign_with_sizeB8ue170006IPS4_S9_EEvT_T0_l, symObjAddr: 0x34E50, symBinAddr: 0x100037FC4, symSize: 0x164 }
  - { offsetInCU: 0x4679E, offset: 0x4679E, size: 0x8, addend: 0x0, symName: __ZNKSt3__111__copy_loopINS_17_ClassicAlgPolicyEEclB8ue170006IPNS_9sub_matchIPKcEES8_S8_EENS_4pairIT_T1_EESA_T0_SB_, symObjAddr: 0x351F8, symBinAddr: 0x10003836C, symSize: 0x88 }
  - { offsetInCU: 0x46809, offset: 0x46809, size: 0x8, addend: 0x0, symName: __ZNSt3__16vectorINS_4pairImPKcEENS_9allocatorIS4_EEE19__copy_assign_allocB8ue170006ERKS7_, symObjAddr: 0x352D4, symBinAddr: 0x100038448, symSize: 0x2C }
  - { offsetInCU: 0x4683E, offset: 0x4683E, size: 0x8, addend: 0x0, symName: __ZNSt3__16vectorINS_4pairImPKcEENS_9allocatorIS4_EEE6assignIPS4_Li0EEEvT_SA_, symObjAddr: 0x35300, symBinAddr: 0x100038474, symSize: 0x5C }
  - { offsetInCU: 0x46893, offset: 0x46893, size: 0x8, addend: 0x0, symName: __ZNSt3__16vectorINS_4pairImPKcEENS_9allocatorIS4_EEE19__copy_assign_allocB8ue170006ERKS7_NS_17integral_constantIbLb0EEE, symObjAddr: 0x3535C, symBinAddr: 0x1000384D0, symSize: 0x14 }
  - { offsetInCU: 0x468CF, offset: 0x468CF, size: 0x8, addend: 0x0, symName: __ZNSt3__16vectorINS_4pairImPKcEENS_9allocatorIS4_EEE18__assign_with_sizeB8ue170006IPS4_S9_EEvT_T0_l, symObjAddr: 0x35370, symBinAddr: 0x1000384E4, symSize: 0x164 }
  - { offsetInCU: 0x4697F, offset: 0x4697F, size: 0x8, addend: 0x0, symName: __ZNSt3__16vectorINS_4pairImPKcEENS_9allocatorIS4_EEE13__vdeallocateEv, symObjAddr: 0x355B8, symBinAddr: 0x10003872C, symSize: 0x94 }
  - { offsetInCU: 0x469A7, offset: 0x469A7, size: 0x8, addend: 0x0, symName: __ZNKSt3__111__copy_loopINS_17_ClassicAlgPolicyEEclB8ue170006IPNS_4pairImPKcEES8_S8_EENS4_IT_T1_EES9_T0_SA_, symObjAddr: 0x357A4, symBinAddr: 0x100038918, symSize: 0x88 }
  - { offsetInCU: 0x46A12, offset: 0x46A12, size: 0x8, addend: 0x0, symName: __ZNSt3__14pairImPKcEaSB8ue170006ERKS3_, symObjAddr: 0x35858, symBinAddr: 0x1000389CC, symSize: 0x30 }
  - { offsetInCU: 0x46A47, offset: 0x46A47, size: 0x8, addend: 0x0, symName: __ZNSt3__16vectorINS_4pairImPKcEENS_9allocatorIS4_EEE5clearB8ue170006Ev, symObjAddr: 0x35888, symBinAddr: 0x1000389FC, symSize: 0x44 }
  - { offsetInCU: 0x46A7C, offset: 0x46A7C, size: 0x8, addend: 0x0, symName: __ZNKSt3__16vectorINS_9sub_matchIPKcEENS_9allocatorIS4_EEEixB8ue170006Em, symObjAddr: 0x358F4, symBinAddr: 0x100038A68, symSize: 0x2C }
  - { offsetInCU: 0x46AB3, offset: 0x46AB3, size: 0x8, addend: 0x0, symName: __ZNKSt3__113match_resultsIPKcNS_9allocatorINS_9sub_matchIS2_EEEEE6prefixB8ue170006Ev, symObjAddr: 0x35920, symBinAddr: 0x100038A94, symSize: 0x18 }
  - { offsetInCU: 0x46AD9, offset: 0x46AD9, size: 0x8, addend: 0x0, symName: __ZNSt3__16vectorINS_9sub_matchINS_11__wrap_iterIPKcEEEENS_9allocatorIS6_EEE6resizeEm, symObjAddr: 0x35938, symBinAddr: 0x100038AAC, symSize: 0x9C }
  - { offsetInCU: 0x46B1F, offset: 0x46B1F, size: 0x8, addend: 0x0, symName: __ZNSt3__16vectorINS_9sub_matchINS_11__wrap_iterIPKcEEEENS_9allocatorIS6_EEEixB8ue170006Em, symObjAddr: 0x35A10, symBinAddr: 0x100038B84, symSize: 0x2C }
  - { offsetInCU: 0x46B56, offset: 0x46B56, size: 0x8, addend: 0x0, symName: __ZNKSt3__113match_resultsIPKcNS_9allocatorINS_9sub_matchIS2_EEEEE6suffixB8ue170006Ev, symObjAddr: 0x35A3C, symBinAddr: 0x100038BB0, symSize: 0x18 }
  - { offsetInCU: 0x46B7C, offset: 0x46B7C, size: 0x8, addend: 0x0, symName: __ZNKSt3__113match_resultsIPKcNS_9allocatorINS_9sub_matchIS2_EEEEE5readyB8ue170006Ev, symObjAddr: 0x35A54, symBinAddr: 0x100038BC8, symSize: 0x1C }
  - { offsetInCU: 0x46BA2, offset: 0x46BA2, size: 0x8, addend: 0x0, symName: __ZNSt3__16vectorINS_9sub_matchINS_11__wrap_iterIPKcEEEENS_9allocatorIS6_EEE8__appendEm, symObjAddr: 0x35A70, symBinAddr: 0x100038BE4, symSize: 0x108 }
  - { offsetInCU: 0x46BFD, offset: 0x46BFD, size: 0x8, addend: 0x0, symName: __ZNSt3__16vectorINS_9sub_matchINS_11__wrap_iterIPKcEEEENS_9allocatorIS6_EEE17__destruct_at_endB8ue170006EPS6_, symObjAddr: 0x35B78, symBinAddr: 0x100038CEC, symSize: 0x4C }
  - { offsetInCU: 0x46C41, offset: 0x46C41, size: 0x8, addend: 0x0, symName: __ZNSt3__16vectorINS_9sub_matchINS_11__wrap_iterIPKcEEEENS_9allocatorIS6_EEE18__construct_at_endEm, symObjAddr: 0x35BC4, symBinAddr: 0x100038D38, symSize: 0xC8 }
  - { offsetInCU: 0x46CB3, offset: 0x46CB3, size: 0x8, addend: 0x0, symName: __ZNKSt3__16vectorINS_9sub_matchINS_11__wrap_iterIPKcEEEENS_9allocatorIS6_EEE11__recommendB8ue170006Em, symObjAddr: 0x35C8C, symBinAddr: 0x100038E00, symSize: 0xB4 }
  - { offsetInCU: 0x46D08, offset: 0x46D08, size: 0x8, addend: 0x0, symName: __ZNSt3__114__split_bufferINS_9sub_matchINS_11__wrap_iterIPKcEEEERNS_9allocatorIS6_EEEC1EmmS9_, symObjAddr: 0x35D40, symBinAddr: 0x100038EB4, symSize: 0x44 }
  - { offsetInCU: 0x46D5E, offset: 0x46D5E, size: 0x8, addend: 0x0, symName: __ZNSt3__114__split_bufferINS_9sub_matchINS_11__wrap_iterIPKcEEEERNS_9allocatorIS6_EEE18__construct_at_endEm, symObjAddr: 0x35D84, symBinAddr: 0x100038EF8, symSize: 0xB4 }
  - { offsetInCU: 0x46DA3, offset: 0x46DA3, size: 0x8, addend: 0x0, symName: __ZNSt3__114__split_bufferINS_9sub_matchINS_11__wrap_iterIPKcEEEERNS_9allocatorIS6_EEED1Ev, symObjAddr: 0x35F48, symBinAddr: 0x1000390BC, symSize: 0x2C }
  - { offsetInCU: 0x46DCF, offset: 0x46DCF, size: 0x8, addend: 0x0, symName: __ZNSt3__116allocator_traitsINS_9allocatorINS_9sub_matchINS_11__wrap_iterIPKcEEEEEEE9constructB8ue170006IS7_JEvEEvRS8_PT_DpOT0_, symObjAddr: 0x35F74, symBinAddr: 0x1000390E8, symSize: 0x2C }
  - { offsetInCU: 0x46E11, offset: 0x46E11, size: 0x8, addend: 0x0, symName: __ZNSt3__19allocatorINS_9sub_matchINS_11__wrap_iterIPKcEEEEE9constructB8ue170006IS6_JEEEvPT_DpOT0_, symObjAddr: 0x35FA0, symBinAddr: 0x100039114, symSize: 0x28 }
  - { offsetInCU: 0x46E53, offset: 0x46E53, size: 0x8, addend: 0x0, symName: __ZNSt3__114__split_bufferINS_9sub_matchINS_11__wrap_iterIPKcEEEERNS_9allocatorIS6_EEEC2EmmS9_, symObjAddr: 0x35FC8, symBinAddr: 0x10003913C, symSize: 0xE0 }
  - { offsetInCU: 0x46EC6, offset: 0x46EC6, size: 0x8, addend: 0x0, symName: __ZNSt3__117__compressed_pairIPNS_9sub_matchINS_11__wrap_iterIPKcEEEERNS_9allocatorIS6_EEEC1B8ue170006IDnSA_EEOT_OT0_, symObjAddr: 0x360A8, symBinAddr: 0x10003921C, symSize: 0x3C }
  - { offsetInCU: 0x46F1E, offset: 0x46F1E, size: 0x8, addend: 0x0, symName: __ZNSt3__114__split_bufferINS_9sub_matchINS_11__wrap_iterIPKcEEEERNS_9allocatorIS6_EEE7__allocB8ue170006Ev, symObjAddr: 0x360E4, symBinAddr: 0x100039258, symSize: 0x28 }
  - { offsetInCU: 0x46F44, offset: 0x46F44, size: 0x8, addend: 0x0, symName: __ZNSt3__114__split_bufferINS_9sub_matchINS_11__wrap_iterIPKcEEEERNS_9allocatorIS6_EEE9__end_capB8ue170006Ev, symObjAddr: 0x3610C, symBinAddr: 0x100039280, symSize: 0x28 }
  - { offsetInCU: 0x46F6A, offset: 0x46F6A, size: 0x8, addend: 0x0, symName: __ZNSt3__117__compressed_pairIPNS_9sub_matchINS_11__wrap_iterIPKcEEEERNS_9allocatorIS6_EEEC2B8ue170006IDnSA_EEOT_OT0_, symObjAddr: 0x36134, symBinAddr: 0x1000392A8, symSize: 0x48 }
  - { offsetInCU: 0x46FC2, offset: 0x46FC2, size: 0x8, addend: 0x0, symName: __ZNSt3__122__compressed_pair_elemIRNS_9allocatorINS_9sub_matchINS_11__wrap_iterIPKcEEEEEELi1ELb0EEC2B8ue170006IS9_vEEOT_, symObjAddr: 0x3617C, symBinAddr: 0x1000392F0, symSize: 0x20 }
  - { offsetInCU: 0x47004, offset: 0x47004, size: 0x8, addend: 0x0, symName: __ZNSt3__117__compressed_pairIPNS_9sub_matchINS_11__wrap_iterIPKcEEEERNS_9allocatorIS6_EEE6secondB8ue170006Ev, symObjAddr: 0x3619C, symBinAddr: 0x100039310, symSize: 0x28 }
  - { offsetInCU: 0x4702A, offset: 0x4702A, size: 0x8, addend: 0x0, symName: __ZNSt3__122__compressed_pair_elemIRNS_9allocatorINS_9sub_matchINS_11__wrap_iterIPKcEEEEEELi1ELb0EE5__getB8ue170006Ev, symObjAddr: 0x361C4, symBinAddr: 0x100039338, symSize: 0x18 }
  - { offsetInCU: 0x47050, offset: 0x47050, size: 0x8, addend: 0x0, symName: __ZNSt3__117__compressed_pairIPNS_9sub_matchINS_11__wrap_iterIPKcEEEERNS_9allocatorIS6_EEE5firstB8ue170006Ev, symObjAddr: 0x361DC, symBinAddr: 0x100039350, symSize: 0x24 }
  - { offsetInCU: 0x47080, offset: 0x47080, size: 0x8, addend: 0x0, symName: __ZNSt3__114__split_bufferINS_9sub_matchINS_11__wrap_iterIPKcEEEERNS_9allocatorIS6_EEE21_ConstructTransactionC1B8ue170006EPPS6_m, symObjAddr: 0x36200, symBinAddr: 0x100039374, symSize: 0x3C }
  - { offsetInCU: 0x470C6, offset: 0x470C6, size: 0x8, addend: 0x0, symName: __ZNSt3__114__split_bufferINS_9sub_matchINS_11__wrap_iterIPKcEEEERNS_9allocatorIS6_EEE21_ConstructTransactionD1B8ue170006Ev, symObjAddr: 0x3623C, symBinAddr: 0x1000393B0, symSize: 0x2C }
  - { offsetInCU: 0x470F0, offset: 0x470F0, size: 0x8, addend: 0x0, symName: __ZNSt3__114__split_bufferINS_9sub_matchINS_11__wrap_iterIPKcEEEERNS_9allocatorIS6_EEE21_ConstructTransactionC2B8ue170006EPPS6_m, symObjAddr: 0x36268, symBinAddr: 0x1000393DC, symSize: 0x4C }
  - { offsetInCU: 0x47136, offset: 0x47136, size: 0x8, addend: 0x0, symName: __ZNSt3__114__split_bufferINS_9sub_matchINS_11__wrap_iterIPKcEEEERNS_9allocatorIS6_EEE21_ConstructTransactionD2B8ue170006Ev, symObjAddr: 0x362B4, symBinAddr: 0x100039428, symSize: 0x20 }
  - { offsetInCU: 0x47160, offset: 0x47160, size: 0x8, addend: 0x0, symName: __ZNSt3__129_AllocatorDestroyRangeReverseINS_9allocatorINS_9sub_matchINS_11__wrap_iterIPKcEEEEEENS_16reverse_iteratorIPS7_EEEC1B8ue170006ERS8_RSB_SE_, symObjAddr: 0x36478, symBinAddr: 0x1000395EC, symSize: 0x44 }
  - { offsetInCU: 0x471BD, offset: 0x471BD, size: 0x8, addend: 0x0, symName: __ZNSt3__116allocator_traitsINS_9allocatorINS_9sub_matchINS_11__wrap_iterIPKcEEEEEEE9constructB8ue170006IS7_JS7_EvEEvRS8_PT_DpOT0_, symObjAddr: 0x364BC, symBinAddr: 0x100039630, symSize: 0x34 }
  - { offsetInCU: 0x47214, offset: 0x47214, size: 0x8, addend: 0x0, symName: __ZNSt3__128__exception_guard_exceptionsINS_29_AllocatorDestroyRangeReverseINS_9allocatorINS_9sub_matchINS_11__wrap_iterIPKcEEEEEENS_16reverse_iteratorIPS8_EEEEE10__completeB8ue170006Ev, symObjAddr: 0x364F0, symBinAddr: 0x100039664, symSize: 0x1C }
  - { offsetInCU: 0x4723A, offset: 0x4723A, size: 0x8, addend: 0x0, symName: __ZNSt3__128__exception_guard_exceptionsINS_29_AllocatorDestroyRangeReverseINS_9allocatorINS_9sub_matchINS_11__wrap_iterIPKcEEEEEENS_16reverse_iteratorIPS8_EEEEED1B8ue170006Ev, symObjAddr: 0x3650C, symBinAddr: 0x100039680, symSize: 0x2C }
  - { offsetInCU: 0x47264, offset: 0x47264, size: 0x8, addend: 0x0, symName: __ZNSt3__128__exception_guard_exceptionsINS_29_AllocatorDestroyRangeReverseINS_9allocatorINS_9sub_matchINS_11__wrap_iterIPKcEEEEEENS_16reverse_iteratorIPS8_EEEEEC1B8ue170006ESD_, symObjAddr: 0x36538, symBinAddr: 0x1000396AC, symSize: 0x34 }
  - { offsetInCU: 0x4729D, offset: 0x4729D, size: 0x8, addend: 0x0, symName: __ZNSt3__128__exception_guard_exceptionsINS_29_AllocatorDestroyRangeReverseINS_9allocatorINS_9sub_matchINS_11__wrap_iterIPKcEEEEEENS_16reverse_iteratorIPS8_EEEEEC2B8ue170006ESD_, symObjAddr: 0x3656C, symBinAddr: 0x1000396E0, symSize: 0x30 }
  - { offsetInCU: 0x472D6, offset: 0x472D6, size: 0x8, addend: 0x0, symName: __ZNSt3__129_AllocatorDestroyRangeReverseINS_9allocatorINS_9sub_matchINS_11__wrap_iterIPKcEEEEEENS_16reverse_iteratorIPS7_EEEC2B8ue170006ERS8_RSB_SE_, symObjAddr: 0x3659C, symBinAddr: 0x100039710, symSize: 0x38 }
  - { offsetInCU: 0x4732D, offset: 0x4732D, size: 0x8, addend: 0x0, symName: __ZNSt3__19allocatorINS_9sub_matchINS_11__wrap_iterIPKcEEEEE9constructB8ue170006IS6_JS6_EEEvPT_DpOT0_, symObjAddr: 0x365D4, symBinAddr: 0x100039748, symSize: 0x30 }
